 canvas

 Timestamp is 6318cefd (Wed Sep  7 17:03:57 2022)

 Preferred load address is 0000000180000000

 Start         Length     Name                   Class
 0001:00000000 00000640H .text                   CODE
 0001:00000640 00001e60H .text$di                CODE
 0001:000024a0 00056500H .text$mn                CODE
 0001:000589a0 00000200H .text$mn$00             CODE
 0001:00058ba0 00002940H .text$x                 CODE
 0001:0005b4e0 00000278H .text$yd                CODE
 0002:00000000 000009a0H .idata$5                DATA
 0002:000009a0 00000028H .00cfg                  DATA
 0002:000009c8 00000008H .CRT$XCA                DATA
 0002:000009d0 00000018H .CRT$XCC                DATA
 0002:000009e8 00000010H .CRT$XCL                DATA
 0002:000009f8 00000078H .CRT$XCU                DATA
 0002:00000a70 00000008H .CRT$XCZ                DATA
 0002:00000a78 00000008H .CRT$XIA                DATA
 0002:00000a80 00000028H .CRT$XIC                DATA
 0002:00000aa8 00000008H .CRT$XIZ                DATA
 0002:00000ab0 00000008H .CRT$XPA                DATA
 0002:00000ab8 00000010H .CRT$XPX                DATA
 0002:00000ac8 00000008H .CRT$XPXA               DATA
 0002:00000ad0 00000008H .CRT$XPZ                DATA
 0002:00000ad8 00000008H .CRT$XTA                DATA
 0002:00000ae0 00000010H .CRT$XTZ                DATA
 0002:00000ae8 00000000H .gehcont$y              DATA
 0002:00000ae8 00000000H .gfids$y                DATA
 0002:00000af0 00011510H .rdata                  DATA
 0002:00012000 00000000H .rdata$CastGuardVftablesA DATA
 0002:00012000 00000000H .rdata$CastGuardVftablesC DATA
 0002:00012000 0000075cH .rdata$r                DATA
 0002:0001275c 00000018H .rdata$voltmd           DATA
 0002:00012774 00000464H .rdata$zzzdbg           DATA
 0002:00012bd8 00000008H .rtc$IAA                DATA
 0002:00012be0 00000008H .rtc$IZZ                DATA
 0002:00012be8 00000008H .rtc$TAA                DATA
 0002:00012bf0 00000008H .rtc$TZZ                DATA
 0002:00012bf8 00005ba0H .xdata                  DATA
 0002:00018798 0000037cH .xdata$x                DATA
 0002:00018b14 00000020H .didat$2                DATA
 0002:00018b34 00000024H .didat$3                DATA
 0002:00018b58 00000350H .didat$4                DATA
 0002:00018ea8 00001cb0H .didat$6                DATA
 0002:0001ab58 00000358H .didat$7                DATA
 0002:0001aeb0 00000250H .edata                  DATA
 0002:0001b100 000000f0H .idata$2                DATA
 0002:0001b1f0 00000018H .idata$3                DATA
 0002:0001b208 000009a0H .idata$4                DATA
 0002:0001bba8 00001a38H .idata$6                DATA
 0002:0001d5e0 000003c4H .idata$7                DATA
 0003:00000000 00000c80H .data                   DATA
 0003:00000c80 00000290H .data$r                 DATA
 0003:00000f10 00000120H .data$rs                DATA
 0003:00001030 00000350H .didat$5                DATA
 0003:00001380 000017a4H .bss                    DATA
 0004:00000000 00003a74H .pdata                  DATA
 0005:00000000 000000f4H _RDATA                  DATA
 0006:00000000 00000060H .rsrc$01                DATA
 0006:00000060 00000180H .rsrc$02                DATA

  Address         Publics by Value              Rva+Base               Lib:Object

 0000:00000000       ___safe_se_handler_table   0000000000000000     <absolute>
 0000:00000000       __guard_longjmp_table      0000000000000000     <absolute>
 0000:00000000       __x64_code_ranges_to_entry_points 0000000000000000     <absolute>
 0000:00000000       __arm64x_redirection_metadata 0000000000000000     <absolute>
 0000:00000000       __guard_iat_table          0000000000000000     <absolute>
 0000:00000000       __guard_fids_count         0000000000000000     <absolute>
 0000:00000000       __arm64x_extra_rfe_table   0000000000000000     <absolute>
 0000:00000000       __guard_iat_count          0000000000000000     <absolute>
 0000:00000000       __guard_longjmp_count      0000000000000000     <absolute>
 0000:00000000       __dynamic_value_reloc_table 0000000000000000     <absolute>
 0000:00000000       __x64_code_ranges_to_entry_points_count 0000000000000000     <absolute>
 0000:00000000       __hybrid_code_map          0000000000000000     <absolute>
 0000:00000000       __hybrid_auxiliary_iat     0000000000000000     <absolute>
 0000:00000000       __arm64x_extra_rfe_table_size 0000000000000000     <absolute>
 0000:00000000       __hybrid_auxiliary_iat_copy 0000000000000000     <absolute>
 0000:00000000       ___safe_se_handler_count   0000000000000000     <absolute>
 0000:00000000       __AbsoluteZero             0000000000000000     <absolute>
 0000:00000000       __guard_check_icall_a64n_fptr 0000000000000000     <absolute>
 0000:00000000       __guard_eh_cont_count      0000000000000000     <absolute>
 0000:00000000       __guard_fids_table         0000000000000000     <absolute>
 0000:00000000       __arm64x_redirection_metadata_count 0000000000000000     <absolute>
 0000:00000000       __enclave_config           0000000000000000     <absolute>
 0000:00000000       __guard_eh_cont_table      0000000000000000     <absolute>
 0000:00000000       __arm64x_native_entrypoint 0000000000000000     <absolute>
 0000:00000000       __hybrid_code_map_count    0000000000000000     <absolute>
 0000:00000100       __guard_flags              0000000000000100     <absolute>
 0000:00000000       __ImageBase                0000000180000000     <linker-defined>
 0001:00000000       cairo_surface_destroy      0000000180001000     libcairo-2:D__a__temp_msys64_mingw64_lib_libcairo_2_lib_s01412.o
 0001:00000008       cairo_status_to_string     0000000180001008     libcairo-2:D__a__temp_msys64_mingw64_lib_libcairo_2_lib_s01403.o
 0001:00000010       cairo_surface_status       0000000180001010     libcairo-2:D__a__temp_msys64_mingw64_lib_libcairo_2_lib_s01445.o
 0001:00000018       cairo_image_surface_create 0000000180001018     libcairo-2:D__a__temp_msys64_mingw64_lib_libcairo_2_lib_s01204.o
 0001:00000020       cairo_image_surface_get_stride 0000000180001020     libcairo-2:D__a__temp_msys64_mingw64_lib_libcairo_2_lib_s01211.o
 0001:00000028       cairo_surface_finish       0000000180001028     libcairo-2:D__a__temp_msys64_mingw64_lib_libcairo_2_lib_s01413.o
 0001:00000030       cairo_image_surface_get_data 0000000180001030     libcairo-2:D__a__temp_msys64_mingw64_lib_libcairo_2_lib_s01208.o
 0001:00000038       cairo_pdf_surface_set_size 0000000180001038     libcairo-2:D__a__temp_msys64_mingw64_lib_libcairo_2_lib_s01286.o
 0001:00000040       cairo_pdf_surface_create_for_stream 0000000180001040     libcairo-2:D__a__temp_msys64_mingw64_lib_libcairo_2_lib_s01281.o
 0001:00000048       cairo_svg_surface_create_for_stream 0000000180001048     libcairo-2:D__a__temp_msys64_mingw64_lib_libcairo_2_lib_s01452.o
 0001:00000050       cairo_image_surface_get_format 0000000180001050     libcairo-2:D__a__temp_msys64_mingw64_lib_libcairo_2_lib_s01209.o
 0001:00000058       cairo_destroy              0000000180001058     libcairo-2:D__a__temp_msys64_mingw64_lib_libcairo_2_lib_s01116.o
 0001:00000060       cairo_image_surface_get_height 0000000180001060     libcairo-2:D__a__temp_msys64_mingw64_lib_libcairo_2_lib_s01210.o
 0001:00000068       cairo_surface_flush        0000000180001068     libcairo-2:D__a__temp_msys64_mingw64_lib_libcairo_2_lib_s01414.o
 0001:00000070       cairo_pdf_surface_set_metadata 0000000180001070     libcairo-2:D__a__temp_msys64_mingw64_lib_libcairo_2_lib_s01284.o
 0001:00000078       cairo_set_line_width       0000000180001078     libcairo-2:D__a__temp_msys64_mingw64_lib_libcairo_2_lib_s01387.o
 0001:00000080       cairo_image_surface_get_width 0000000180001080     libcairo-2:D__a__temp_msys64_mingw64_lib_libcairo_2_lib_s01212.o
 0001:00000088       cairo_create               0000000180001088     libcairo-2:D__a__temp_msys64_mingw64_lib_libcairo_2_lib_s01113.o
 0001:00000090       cairo_pattern_add_color_stop_rgba 0000000180001090     libcairo-2:D__a__temp_msys64_mingw64_lib_libcairo_2_lib_s01251.o
 0001:00000098       cairo_pattern_create_radial 0000000180001098     libcairo-2:D__a__temp_msys64_mingw64_lib_libcairo_2_lib_s01255.o
 0001:000000a0       cairo_pattern_create_linear 00000001800010a0     libcairo-2:D__a__temp_msys64_mingw64_lib_libcairo_2_lib_s01253.o
 0001:000000a8       cairo_pattern_destroy      00000001800010a8     libcairo-2:D__a__temp_msys64_mingw64_lib_libcairo_2_lib_s01259.o
 0001:000000b0       cairo_pattern_set_user_data 00000001800010b0     libcairo-2:D__a__temp_msys64_mingw64_lib_libcairo_2_lib_s01276.o
 0001:000000b8       cairo_matrix_init          00000001800010b8     libcairo-2:D__a__temp_msys64_mingw64_lib_libcairo_2_lib_s01219.o
 0001:000000c0       cairo_pattern_set_matrix   00000001800010c0     libcairo-2:D__a__temp_msys64_mingw64_lib_libcairo_2_lib_s01275.o
 0001:000000c8       cairo_pattern_get_user_data 00000001800010c8     libcairo-2:D__a__temp_msys64_mingw64_lib_libcairo_2_lib_s01271.o
 0001:000000d0       cairo_pattern_create_for_surface 00000001800010d0     libcairo-2:D__a__temp_msys64_mingw64_lib_libcairo_2_lib_s01252.o
 0001:000000d8       cairo_matrix_invert        00000001800010d8     libcairo-2:D__a__temp_msys64_mingw64_lib_libcairo_2_lib_s01224.o
 0001:000000e0       cairo_path_destroy         00000001800010e0     libcairo-2:D__a__temp_msys64_mingw64_lib_libcairo_2_lib_s01248.o
 0001:000000e8       cairo_in_fill              00000001800010e8     libcairo-2:D__a__temp_msys64_mingw64_lib_libcairo_2_lib_s01214.o
 0001:000000f0       cairo_set_operator         00000001800010f0     libcairo-2:D__a__temp_msys64_mingw64_lib_libcairo_2_lib_s01390.o
 0001:000000f8       cairo_pattern_get_linear_points 00000001800010f8     libcairo-2:D__a__temp_msys64_mingw64_lib_libcairo_2_lib_s01264.o
 0001:00000100       cairo_surface_mark_dirty_rectangle 0000000180001100     libcairo-2:D__a__temp_msys64_mingw64_lib_libcairo_2_lib_s01428.o
 0001:00000108       cairo_save                 0000000180001108     libcairo-2:D__a__temp_msys64_mingw64_lib_libcairo_2_lib_s01349.o
 0001:00000110       cairo_get_matrix           0000000180001110     libcairo-2:D__a__temp_msys64_mingw64_lib_libcairo_2_lib_s01189.o
 0001:00000118       cairo_arc_negative         0000000180001118     libcairo-2:D__a__temp_msys64_mingw64_lib_libcairo_2_lib_s01104.o
 0001:00000120       cairo_stroke_preserve      0000000180001120     libcairo-2:D__a__temp_msys64_mingw64_lib_libcairo_2_lib_s01406.o
 0001:00000128       cairo_rectangle            0000000180001128     libcairo-2:D__a__temp_msys64_mingw64_lib_libcairo_2_lib_s01317.o
 0001:00000130       cairo_set_line_join        0000000180001130     libcairo-2:D__a__temp_msys64_mingw64_lib_libcairo_2_lib_s01386.o
 0001:00000138       cairo_pattern_get_filter   0000000180001138     libcairo-2:D__a__temp_msys64_mingw64_lib_libcairo_2_lib_s01263.o
 0001:00000140       cairo_set_source_surface   0000000180001140     libcairo-2:D__a__temp_msys64_mingw64_lib_libcairo_2_lib_s01395.o
 0001:00000148       cairo_status               0000000180001148     libcairo-2:D__a__temp_msys64_mingw64_lib_libcairo_2_lib_s01402.o
 0001:00000150       cairo_fill                 0000000180001150     libcairo-2:D__a__temp_msys64_mingw64_lib_libcairo_2_lib_s01139.o
 0001:00000158       cairo_set_line_cap         0000000180001158     libcairo-2:D__a__temp_msys64_mingw64_lib_libcairo_2_lib_s01385.o
 0001:00000160       cairo_get_source           0000000180001160     libcairo-2:D__a__temp_msys64_mingw64_lib_libcairo_2_lib_s01194.o
 0001:00000168       cairo_mask_surface         0000000180001168     libcairo-2:D__a__temp_msys64_mingw64_lib_libcairo_2_lib_s01218.o
 0001:00000170       cairo_pattern_set_filter   0000000180001170     libcairo-2:D__a__temp_msys64_mingw64_lib_libcairo_2_lib_s01274.o
 0001:00000178       cairo_fill_extents         0000000180001178     libcairo-2:D__a__temp_msys64_mingw64_lib_libcairo_2_lib_s01140.o
 0001:00000180       cairo_show_page            0000000180001180     libcairo-2:D__a__temp_msys64_mingw64_lib_libcairo_2_lib_s01399.o
 0001:00000188       cairo_restore              0000000180001188     libcairo-2:D__a__temp_msys64_mingw64_lib_libcairo_2_lib_s01347.o
 0001:00000190       cairo_line_to              0000000180001190     libcairo-2:D__a__temp_msys64_mingw64_lib_libcairo_2_lib_s01216.o
 0001:00000198       cairo_set_fill_rule        0000000180001198     libcairo-2:D__a__temp_msys64_mingw64_lib_libcairo_2_lib_s01379.o
 0001:000001a0       cairo_paint                00000001800011a0     libcairo-2:D__a__temp_msys64_mingw64_lib_libcairo_2_lib_s01246.o
 0001:000001a8       cairo_push_group           00000001800011a8     libcairo-2:D__a__temp_msys64_mingw64_lib_libcairo_2_lib_s01302.o
 0001:000001b0       cairo_stroke               00000001800011b0     libcairo-2:D__a__temp_msys64_mingw64_lib_libcairo_2_lib_s01404.o
 0001:000001b8       cairo_move_to              00000001800011b8     libcairo-2:D__a__temp_msys64_mingw64_lib_libcairo_2_lib_s01243.o
 0001:000001c0       cairo_get_line_cap         00000001800011c0     libcairo-2:D__a__temp_msys64_mingw64_lib_libcairo_2_lib_s01186.o
 0001:000001c8       cairo_pattern_set_extend   00000001800011c8     libcairo-2:D__a__temp_msys64_mingw64_lib_libcairo_2_lib_s01273.o
 0001:000001d0       cairo_get_operator         00000001800011d0     libcairo-2:D__a__temp_msys64_mingw64_lib_libcairo_2_lib_s01191.o
 0001:000001d8       cairo_clip                 00000001800011d8     libcairo-2:D__a__temp_msys64_mingw64_lib_libcairo_2_lib_s01105.o
 0001:000001e0       cairo_get_antialias        00000001800011e0     libcairo-2:D__a__temp_msys64_mingw64_lib_libcairo_2_lib_s01176.o
 0001:000001e8       cairo_set_source_rgba      00000001800011e8     libcairo-2:D__a__temp_msys64_mingw64_lib_libcairo_2_lib_s01394.o
 0001:000001f0       cairo_copy_path_flat       00000001800011f0     libcairo-2:D__a__temp_msys64_mingw64_lib_libcairo_2_lib_s01112.o
 0001:000001f8       cairo_set_source           00000001800011f8     libcairo-2:D__a__temp_msys64_mingw64_lib_libcairo_2_lib_s01392.o
 0001:00000200       cairo_scale                0000000180001200     libcairo-2:D__a__temp_msys64_mingw64_lib_libcairo_2_lib_s01350.o
 0001:00000208       cairo_user_to_device_distance 0000000180001208     libcairo-2:D__a__temp_msys64_mingw64_lib_libcairo_2_lib_s01485.o
 0001:00000210       cairo_pattern_get_color_stop_count 0000000180001210     libcairo-2:D__a__temp_msys64_mingw64_lib_libcairo_2_lib_s01260.o
 0001:00000218       cairo_set_matrix           0000000180001218     libcairo-2:D__a__temp_msys64_mingw64_lib_libcairo_2_lib_s01388.o
 0001:00000220       cairo_surface_mark_dirty   0000000180001220     libcairo-2:D__a__temp_msys64_mingw64_lib_libcairo_2_lib_s01427.o
 0001:00000228       cairo_copy_path            0000000180001228     libcairo-2:D__a__temp_msys64_mingw64_lib_libcairo_2_lib_s01111.o
 0001:00000230       cairo_fill_preserve        0000000180001230     libcairo-2:D__a__temp_msys64_mingw64_lib_libcairo_2_lib_s01141.o
 0001:00000238       cairo_pattern_get_surface  0000000180001238     libcairo-2:D__a__temp_msys64_mingw64_lib_libcairo_2_lib_s01269.o
 0001:00000240       cairo_rotate               0000000180001240     libcairo-2:D__a__temp_msys64_mingw64_lib_libcairo_2_lib_s01348.o
 0001:00000248       cairo_stroke_extents       0000000180001248     libcairo-2:D__a__temp_msys64_mingw64_lib_libcairo_2_lib_s01405.o
 0001:00000250       cairo_pop_group_to_source  0000000180001250     libcairo-2:D__a__temp_msys64_mingw64_lib_libcairo_2_lib_s01290.o
 0001:00000258       cairo_get_dash             0000000180001258     libcairo-2:D__a__temp_msys64_mingw64_lib_libcairo_2_lib_s01178.o
 0001:00000260       cairo_get_miter_limit      0000000180001260     libcairo-2:D__a__temp_msys64_mingw64_lib_libcairo_2_lib_s01190.o
 0001:00000268       cairo_pattern_get_color_stop_rgba 0000000180001268     libcairo-2:D__a__temp_msys64_mingw64_lib_libcairo_2_lib_s01261.o
 0001:00000270       cairo_append_path          0000000180001270     libcairo-2:D__a__temp_msys64_mingw64_lib_libcairo_2_lib_s01102.o
 0001:00000278       cairo_new_path             0000000180001278     libcairo-2:D__a__temp_msys64_mingw64_lib_libcairo_2_lib_s01244.o
 0001:00000280       cairo_identity_matrix      0000000180001280     libcairo-2:D__a__temp_msys64_mingw64_lib_libcairo_2_lib_s01203.o
 0001:00000288       cairo_get_line_join        0000000180001288     libcairo-2:D__a__temp_msys64_mingw64_lib_libcairo_2_lib_s01187.o
 0001:00000290       cairo_in_stroke            0000000180001290     libcairo-2:D__a__temp_msys64_mingw64_lib_libcairo_2_lib_s01215.o
 0001:00000298       cairo_paint_with_alpha     0000000180001298     libcairo-2:D__a__temp_msys64_mingw64_lib_libcairo_2_lib_s01247.o
 0001:000002a0       cairo_set_antialias        00000001800012a0     libcairo-2:D__a__temp_msys64_mingw64_lib_libcairo_2_lib_s01377.o
 0001:000002a8       cairo_get_dash_count       00000001800012a8     libcairo-2:D__a__temp_msys64_mingw64_lib_libcairo_2_lib_s01179.o
 0001:000002b0       cairo_set_dash             00000001800012b0     libcairo-2:D__a__temp_msys64_mingw64_lib_libcairo_2_lib_s01378.o
 0001:000002b8       cairo_transform            00000001800012b8     libcairo-2:D__a__temp_msys64_mingw64_lib_libcairo_2_lib_s01471.o
 0001:000002c0       cairo_close_path           00000001800012c0     libcairo-2:D__a__temp_msys64_mingw64_lib_libcairo_2_lib_s01108.o
 0001:000002c8       cairo_arc                  00000001800012c8     libcairo-2:D__a__temp_msys64_mingw64_lib_libcairo_2_lib_s01103.o
 0001:000002d0       cairo_get_line_width       00000001800012d0     libcairo-2:D__a__temp_msys64_mingw64_lib_libcairo_2_lib_s01188.o
 0001:000002d8       cairo_pattern_get_type     00000001800012d8     libcairo-2:D__a__temp_msys64_mingw64_lib_libcairo_2_lib_s01270.o
 0001:000002e0       cairo_clip_preserve        00000001800012e0     libcairo-2:D__a__temp_msys64_mingw64_lib_libcairo_2_lib_s01107.o
 0001:000002e8       cairo_path_extents         00000001800012e8     libcairo-2:D__a__temp_msys64_mingw64_lib_libcairo_2_lib_s01249.o
 0001:000002f0       cairo_set_miter_limit      00000001800012f0     libcairo-2:D__a__temp_msys64_mingw64_lib_libcairo_2_lib_s01389.o
 0001:000002f8       cairo_get_current_point    00000001800012f8     libcairo-2:D__a__temp_msys64_mingw64_lib_libcairo_2_lib_s01177.o
 0001:00000300       cairo_translate            0000000180001300     libcairo-2:D__a__temp_msys64_mingw64_lib_libcairo_2_lib_s01472.o
 0001:00000308       cairo_pattern_get_radial_circles 0000000180001308     libcairo-2:D__a__temp_msys64_mingw64_lib_libcairo_2_lib_s01266.o
 0001:00000310       cairo_curve_to             0000000180001310     libcairo-2:D__a__temp_msys64_mingw64_lib_libcairo_2_lib_s01114.o
 0001:00000318       cairo_format_stride_for_width 0000000180001318     libcairo-2:D__a__temp_msys64_mingw64_lib_libcairo_2_lib_s01167.o
 0001:00000320       cairo_image_surface_create_from_png 0000000180001320     libcairo-2:D__a__temp_msys64_mingw64_lib_libcairo_2_lib_s01206.o
 0001:00000328       cairo_image_surface_create_from_png_stream 0000000180001328     libcairo-2:D__a__temp_msys64_mingw64_lib_libcairo_2_lib_s01207.o
 0001:00000330       cairo_image_surface_create_for_data 0000000180001330     libcairo-2:D__a__temp_msys64_mingw64_lib_libcairo_2_lib_s01205.o
 0001:00000338       cairo_surface_set_mime_data 0000000180001338     libcairo-2:D__a__temp_msys64_mingw64_lib_libcairo_2_lib_s01442.o
 0001:00000340       cairo_version_string       0000000180001340     libcairo-2:D__a__temp_msys64_mingw64_lib_libcairo_2_lib_s01487.o
 0001:00000350       png_destroy_write_struct   0000000180001350     libpng16-16:D__a__temp_msys64_mingw64_lib_libpng16_16_lib_s00019.o
 0001:00000358       png_set_bKGD               0000000180001358     libpng16-16:D__a__temp_msys64_mingw64_lib_libpng16_16_lib_s00155.o
 0001:00000360       png_set_write_user_transform_fn 0000000180001360     libpng16-16:D__a__temp_msys64_mingw64_lib_libpng16_16_lib_s00247.o
 0001:00000368       png_set_tRNS               0000000180001368     libpng16-16:D__a__temp_msys64_mingw64_lib_libpng16_16_lib_s00233.o
 0001:00000370       png_set_pHYs               0000000180001370     libpng16-16:D__a__temp_msys64_mingw64_lib_libpng16_16_lib_s00204.o
 0001:00000378       png_set_longjmp_fn         0000000180001378     libpng16-16:D__a__temp_msys64_mingw64_lib_libpng16_16_lib_s00198.o
 0001:00000380       png_malloc                 0000000180001380     libpng16-16:D__a__temp_msys64_mingw64_lib_libpng16_16_lib_s00129.o
 0001:00000388       png_get_io_ptr             0000000180001388     libpng16-16:D__a__temp_msys64_mingw64_lib_libpng16_16_lib_s00058.o
 0001:00000390       png_write_info             0000000180001390     libpng16-16:D__a__temp_msys64_mingw64_lib_libpng16_16_lib_s00260.o
 0001:00000398       png_set_packswap           0000000180001398     libpng16-16:D__a__temp_msys64_mingw64_lib_libpng16_16_lib_s00206.o
 0001:000003a0       png_write_image            00000001800013a0     libpng16-16:D__a__temp_msys64_mingw64_lib_libpng16_16_lib_s00259.o
 0001:000003a8       png_get_error_ptr          00000001800013a8     libpng16-16:D__a__temp_msys64_mingw64_lib_libpng16_16_lib_s00044.o
 0001:000003b0       png_set_packing            00000001800013b0     libpng16-16:D__a__temp_msys64_mingw64_lib_libpng16_16_lib_s00205.o
 0001:000003b8       png_set_PLTE               00000001800013b8     libpng16-16:D__a__temp_msys64_mingw64_lib_libpng16_16_lib_s00150.o
 0001:000003c0       png_set_filter             00000001800013c0     libpng16-16:D__a__temp_msys64_mingw64_lib_libpng16_16_lib_s00181.o
 0001:000003c8       png_data_freer             00000001800013c8     libpng16-16:D__a__temp_msys64_mingw64_lib_libpng16_16_lib_s00016.o
 0001:000003d0       png_set_compression_level  00000001800013d0     libpng16-16:D__a__temp_msys64_mingw64_lib_libpng16_16_lib_s00168.o
 0001:000003d8       png_set_IHDR               00000001800013d8     libpng16-16:D__a__temp_msys64_mingw64_lib_libpng16_16_lib_s00149.o
 0001:000003e0       png_set_write_fn           00000001800013e0     libpng16-16:D__a__temp_msys64_mingw64_lib_libpng16_16_lib_s00245.o
 0001:000003e8       png_create_info_struct     00000001800013e8     libpng16-16:D__a__temp_msys64_mingw64_lib_libpng16_16_lib_s00011.o
 0001:000003f0       png_set_filler             00000001800013f0     libpng16-16:D__a__temp_msys64_mingw64_lib_libpng16_16_lib_s00180.o
 0001:000003f8       png_write_end              00000001800013f8     libpng16-16:D__a__temp_msys64_mingw64_lib_libpng16_16_lib_s00255.o
 0001:00000400       png_error                  0000000180001400     libpng16-16:D__a__temp_msys64_mingw64_lib_libpng16_16_lib_s00020.o
 0001:00000408       png_create_write_struct_2  0000000180001408     libpng16-16:D__a__temp_msys64_mingw64_lib_libpng16_16_lib_s00015.o
 0001:00000410       jpeg_simple_progression    0000000180001410     libjpeg-8:D__a__temp_msys64_mingw64_lib_libjpeg_8_lib_s00091.o
 0001:00000418       jpeg_set_quality           0000000180001418     libjpeg-8:D__a__temp_msys64_mingw64_lib_libjpeg_8_lib_s00090.o
 0001:00000420       jpeg_CreateCompress        0000000180001420     libjpeg-8:D__a__temp_msys64_mingw64_lib_libjpeg_8_lib_s00029.o
 0001:00000428       jpeg_std_error             0000000180001428     libjpeg-8:D__a__temp_msys64_mingw64_lib_libjpeg_8_lib_s00096.o
 0001:00000430       jpeg_destroy_compress      0000000180001430     libjpeg-8:D__a__temp_msys64_mingw64_lib_libjpeg_8_lib_s00046.o
 0001:00000438       jpeg_set_defaults          0000000180001438     libjpeg-8:D__a__temp_msys64_mingw64_lib_libjpeg_8_lib_s00087.o
 0001:00000440       jpeg_finish_compress       0000000180001440     libjpeg-8:D__a__temp_msys64_mingw64_lib_libjpeg_8_lib_s00052.o
 0001:00000448       jpeg_write_scanlines       0000000180001448     libjpeg-8:D__a__temp_msys64_mingw64_lib_libjpeg_8_lib_s00106.o
 0001:00000450       jpeg_start_compress        0000000180001450     libjpeg-8:D__a__temp_msys64_mingw64_lib_libjpeg_8_lib_s00093.o
 0001:00000458       jpeg_CreateDecompress      0000000180001458     libjpeg-8:D__a__temp_msys64_mingw64_lib_libjpeg_8_lib_s00030.o
 0001:00000460       jpeg_destroy_decompress    0000000180001460     libjpeg-8:D__a__temp_msys64_mingw64_lib_libjpeg_8_lib_s00047.o
 0001:00000468       jpeg_read_header           0000000180001468     libjpeg-8:D__a__temp_msys64_mingw64_lib_libjpeg_8_lib_s00080.o
 0001:00000470       jpeg_start_decompress      0000000180001470     libjpeg-8:D__a__temp_msys64_mingw64_lib_libjpeg_8_lib_s00094.o
 0001:00000478       jpeg_stdio_src             0000000180001478     libjpeg-8:D__a__temp_msys64_mingw64_lib_libjpeg_8_lib_s00098.o
 0001:00000480       jpeg_finish_decompress     0000000180001480     libjpeg-8:D__a__temp_msys64_mingw64_lib_libjpeg_8_lib_s00053.o
 0001:00000488       jpeg_abort_decompress      0000000180001488     libjpeg-8:D__a__temp_msys64_mingw64_lib_libjpeg_8_lib_s00033.o
 0001:00000490       jpeg_mem_src               0000000180001490     libjpeg-8:D__a__temp_msys64_mingw64_lib_libjpeg_8_lib_s00074.o
 0001:00000498       jpeg_read_scanlines        0000000180001498     libjpeg-8:D__a__temp_msys64_mingw64_lib_libjpeg_8_lib_s00083.o
 0001:000004a0       pango_font_description_better_match 00000001800014a0     libpango-1.0-0:D__a__temp_msys64_mingw64_lib_libpango_1_0_0_lib_s00141.o
 0001:000004a8       pango_font_description_set_style 00000001800014a8     libpango-1.0-0:D__a__temp_msys64_mingw64_lib_libpango_1_0_0_lib_s00168.o
 0001:000004b0       pango_font_description_set_weight 00000001800014b0     libpango-1.0-0:D__a__temp_msys64_mingw64_lib_libpango_1_0_0_lib_s00172.o
 0001:000004b8       pango_font_description_equal 00000001800014b8     libpango-1.0-0:D__a__temp_msys64_mingw64_lib_libpango_1_0_0_lib_s00144.o
 0001:000004c0       pango_font_description_new 00000001800014c0     libpango-1.0-0:D__a__temp_msys64_mingw64_lib_libpango_1_0_0_lib_s00161.o
 0001:000004c8       pango_font_description_free 00000001800014c8     libpango-1.0-0:D__a__temp_msys64_mingw64_lib_libpango_1_0_0_lib_s00145.o
 0001:000004d0       pango_font_description_get_family 00000001800014d0     libpango-1.0-0:D__a__temp_msys64_mingw64_lib_libpango_1_0_0_lib_s00147.o
 0001:000004d8       pango_font_description_set_family 00000001800014d8     libpango-1.0-0:D__a__temp_msys64_mingw64_lib_libpango_1_0_0_lib_s00163.o
 0001:000004e0       pango_font_description_copy 00000001800014e0     libpango-1.0-0:D__a__temp_msys64_mingw64_lib_libpango_1_0_0_lib_s00142.o
 0001:000004e8       pango_layout_get_font_description 00000001800014e8     libpango-1.0-0:D__a__temp_msys64_mingw64_lib_libpango_1_0_0_lib_s00305.o
 0001:000004f0       pango_context_get_metrics  00000001800014f0     libpango-1.0-0:D__a__temp_msys64_mingw64_lib_libpango_1_0_0_lib_s00102.o
 0001:000004f8       pango_layout_set_font_description 00000001800014f8     libpango-1.0-0:D__a__temp_msys64_mingw64_lib_libpango_1_0_0_lib_s00378.o
 0001:00000500       pango_layout_get_context   0000000180001500     libpango-1.0-0:D__a__temp_msys64_mingw64_lib_libpango_1_0_0_lib_s00300.o
 0001:00000508       pango_layout_get_extents   0000000180001508     libpango-1.0-0:D__a__temp_msys64_mingw64_lib_libpango_1_0_0_lib_s00304.o
 0001:00000510       pango_layout_line_get_extents 0000000180001510     libpango-1.0-0:D__a__temp_msys64_mingw64_lib_libpango_1_0_0_lib_s00357.o
 0001:00000518       pango_font_description_from_string 0000000180001518     libpango-1.0-0:D__a__temp_msys64_mingw64_lib_libpango_1_0_0_lib_s00146.o
 0001:00000520       pango_layout_get_pixel_extents 0000000180001520     libpango-1.0-0:D__a__temp_msys64_mingw64_lib_libpango_1_0_0_lib_s00319.o
 0001:00000528       pango_font_description_set_absolute_size 0000000180001528     libpango-1.0-0:D__a__temp_msys64_mingw64_lib_libpango_1_0_0_lib_s00162.o
 0001:00000530       pango_context_get_language 0000000180001530     libpango-1.0-0:D__a__temp_msys64_mingw64_lib_libpango_1_0_0_lib_s00100.o
 0001:00000538       pango_font_metrics_unref   0000000180001538     libpango-1.0-0:D__a__temp_msys64_mingw64_lib_libpango_1_0_0_lib_s00223.o
 0001:00000540       pango_layout_get_baseline  0000000180001540     libpango-1.0-0:D__a__temp_msys64_mingw64_lib_libpango_1_0_0_lib_s00297.o
 0001:00000548       pango_layout_set_text      0000000180001548     libpango-1.0-0:D__a__temp_msys64_mingw64_lib_libpango_1_0_0_lib_s00389.o
 0001:00000550       pango_layout_get_line      0000000180001550     libpango-1.0-0:D__a__temp_msys64_mingw64_lib_libpango_1_0_0_lib_s00311.o
 0001:00000558       pango_font_metrics_get_ascent 0000000180001558     libpango-1.0-0:D__a__temp_msys64_mingw64_lib_libpango_1_0_0_lib_s00213.o
 0001:00000560       pango_font_description_set_stretch 0000000180001560     libpango-1.0-0:D__a__temp_msys64_mingw64_lib_libpango_1_0_0_lib_s00167.o
 0001:00000568       pango_font_description_set_family_static 0000000180001568     libpango-1.0-0:D__a__temp_msys64_mingw64_lib_libpango_1_0_0_lib_s00164.o
 0001:00000570       pango_cairo_show_layout    0000000180001570     libpangocairo-1.0-0:D__a__temp_msys64_mingw64_lib_libpangocairo_1_0_0_lib_s00029.o
 0001:00000578       pango_cairo_update_layout  0000000180001578     libpangocairo-1.0-0:D__a__temp_msys64_mingw64_lib_libpangocairo_1_0_0_lib_s00032.o
 0001:00000580       pango_cairo_layout_path    0000000180001580     libpangocairo-1.0-0:D__a__temp_msys64_mingw64_lib_libpangocairo_1_0_0_lib_s00024.o
 0001:00000588       pango_cairo_create_layout  0000000180001588     libpangocairo-1.0-0:D__a__temp_msys64_mingw64_lib_libpangocairo_1_0_0_lib_s00007.o
 0001:00000590       pango_cairo_font_map_set_default 0000000180001590     libpangocairo-1.0-0:D__a__temp_msys64_mingw64_lib_libpangocairo_1_0_0_lib_s00020.o
 0001:000005a0       g_object_unref             00000001800015a0     libgobject-2.0-0:D__a__temp_msys64_mingw64_lib_libgobject_2_0_0_lib_s00172.o
 0001:000005b0       g_iconv_open               00000001800015b0     libglib-2.0-0:D__a__temp_msys64_mingw64_lib_libglib_2_0_0_lib_s00534.o
 0001:000005b8       g_iconv                    00000001800015b8     libglib-2.0-0:D__a__temp_msys64_mingw64_lib_libglib_2_0_0_lib_s00532.o
 0001:000005c0       DGifOpen                   00000001800015c0     libgif-7:D__a__temp_msys64_mingw64_lib_libgif_7_lib_s00014.o
 0001:000005c8       DGifSlurp                  00000001800015c8     libgif-7:D__a__temp_msys64_mingw64_lib_libgif_7_lib_s00018.o
 0001:000005d0       DGifCloseFile              00000001800015d0     libgif-7:D__a__temp_msys64_mingw64_lib_libgif_7_lib_s00000.o
 0001:000005e0       FT_Get_Sfnt_Table          00000001800015e0     libfreetype-6:D__a__temp_msys64_mingw64_lib_libfreetype_6_lib_s00092.o
 0001:000005e8       FT_Done_FreeType           00000001800015e8     libfreetype-6:D__a__temp_msys64_mingw64_lib_libfreetype_6_lib_s00035.o
 0001:000005f0       FT_Done_Face               00000001800015f0     libfreetype-6:D__a__temp_msys64_mingw64_lib_libfreetype_6_lib_s00034.o
 0001:000005f8       FT_Get_Sfnt_Name_Count     00000001800015f8     libfreetype-6:D__a__temp_msys64_mingw64_lib_libfreetype_6_lib_s00091.o
 0001:00000600       FT_Init_FreeType           0000000180001600     libfreetype-6:D__a__temp_msys64_mingw64_lib_libfreetype_6_lib_s00113.o
 0001:00000608       FT_Open_Face               0000000180001608     libfreetype-6:D__a__temp_msys64_mingw64_lib_libfreetype_6_lib_s00139.o
 0001:00000610       FT_Get_Sfnt_Name           0000000180001610     libfreetype-6:D__a__temp_msys64_mingw64_lib_libfreetype_6_lib_s00090.o
 0001:00000620       rsvg_handle_render_cairo   0000000180001620     librsvg-2-2:D__a__temp_msys64_mingw64_lib_librsvg_2_2_lib_s00029.o
 0001:00000628       rsvg_handle_new_from_data  0000000180001628     librsvg-2-2:D__a__temp_msys64_mingw64_lib_librsvg_2_2_lib_s00023.o
 0001:00000630       rsvg_handle_get_dimensions 0000000180001630     librsvg-2-2:D__a__temp_msys64_mingw64_lib_librsvg_2_2_lib_s00008.o
 0001:000024a0       ?what@exception@stdext@@UEBAPEBDXZ 00000001800034a0 f i Backend.obj
 0001:000024c0       ?_Raise@exception@stdext@@QEBAXXZ 00000001800034c0 f i Backend.obj
 0001:00002500       ?_Doraise@exception@stdext@@MEBAXXZ 0000000180003500 f i Backend.obj
 0001:00002500       ?imbue@?$basic_streambuf@DU?$char_traits@D@std@@@std@@MEAAXAEBVlocale@2@@Z 0000000180003500 f i Canvas.obj
 0001:00002500       _guard_check_icall_nop     0000000180003500 f i LIBCMT:guard_support.obj
 0001:00002500       ?_Unlock@?$basic_streambuf@DU?$char_traits@D@std@@@std@@UEAAXXZ 0000000180003500 f i Canvas.obj
 0001:00002500       ?init_closure_destination@@YAXPEAUjpeg_compress_struct@@@Z 0000000180003500 f i Canvas.obj
 0001:00002500       ?stream_pdf_free@@YAXPEADPEAX@Z 0000000180003500 f i Canvas.obj
 0001:00002500       ?_Lock@?$basic_streambuf@DU?$char_traits@D@std@@@std@@UEAAXXZ 0000000180003500 f i Canvas.obj
 0001:00002510       ??_Gbad_array_new_length@stdext@@UEAAPEAXI@Z 0000000180003510 f i Backend.obj
 0001:00002510       ??_Eruntime_error@std@@UEAAPEAXI@Z 0000000180003510 f i * CIL library *:* CIL module *
 0001:00002510       ??_Ebad_array_new_length@stdext@@UEAAPEAXI@Z 0000000180003510 f i * CIL library *:* CIL module *
 0001:00002510       ??_Gruntime_error@std@@UEAAPEAXI@Z 0000000180003510 f i Canvas.obj
 0001:00002510       ??_Eexception@stdext@@UEAAPEAXI@Z 0000000180003510 f i * CIL library *:* CIL module *
 0001:00002510       ??_Gexception@stdext@@UEAAPEAXI@Z 0000000180003510 f i Backend.obj
 0001:00002540       ?_Doraise@failure@ios_base@std@@MEBAXXZ 0000000180003540 f i Canvas.obj
 0001:00002540       ?_Doraise@runtime_error@std@@MEBAXXZ 0000000180003540 f i Canvas.obj
 0001:00002540       ?_Doraise@bad_alloc@stdext@@MEBAXXZ 0000000180003540 f i Backend.obj
 0001:00002540       ?_Doraise@system_error@std@@MEBAXXZ 0000000180003540 f i Canvas.obj
 0001:00002560       ??0bad_array_new_length@stdext@@QEAA@XZ 0000000180003560 f i Backend.obj
 0001:00002580       ??1runtime_error@std@@UEAA@XZ 0000000180003580 f i Canvas.obj
 0001:00002580       ??1bad_array_new_length@stdext@@UEAA@XZ 0000000180003580 f i Backend.obj
 0001:00002580       ??1failure@ios_base@std@@UEAA@XZ 0000000180003580 f i Canvas.obj
 0001:00002590       ?_Throw_bad_array_new_length@std@@YAXXZ 0000000180003590 f i Backend.obj
 0001:000025b0       ?_Xlen_string@std@@YAXXZ   00000001800035b0 f i Backend.obj
 0001:000025d0       ??1ObjectWrap@Nan@@UEAA@XZ 00000001800035d0 f i Backend.obj
 0001:00002610       ?Wrap@ObjectWrap@Nan@@IEAAXV?$Local@VObject@v8@@@v8@@@Z 0000000180003610 f i Backend.obj
 0001:000026e0       ?Ref@ObjectWrap@Nan@@MEAAXXZ 00000001800036e0 f i Backend.obj
 0001:00002720       ?Unref@ObjectWrap@Nan@@MEAAXXZ 0000000180003720 f i Backend.obj
 0001:000027d0       ?WeakCallback@ObjectWrap@Nan@@CAXAEBV?$WeakCallbackInfo@VObjectWrap@Nan@@@v8@@@Z 00000001800037d0 f i Backend.obj
 0001:00002830       ??_GObjectWrap@Nan@@UEAAPEAXI@Z 0000000180003830 f i Backend.obj
 0001:00002830       ??_EObjectWrap@Nan@@UEAAPEAXI@Z 0000000180003830 f i * CIL library *:* CIL module *
 0001:00002890       ?underflow@?$basic_streambuf@DU?$char_traits@D@std@@@std@@MEAAHXZ 0000000180003890 f i Canvas.obj
 0001:00002890       ?pbackfail@?$basic_streambuf@DU?$char_traits@D@std@@@std@@MEAAHH@Z 0000000180003890 f i Canvas.obj
 0001:00002890       ?overflow@?$basic_streambuf@DU?$char_traits@D@std@@@std@@MEAAHH@Z 0000000180003890 f i Canvas.obj
 0001:00002890       ?getFormat@Backend@@UEAA?AW4_cairo_format@@XZ 0000000180003890 f i Backend.obj
 0001:000028a0       ??0Backend@@IEAA@V?$basic_string@DU?$char_traits@D@std@@V?$allocator@D@2@@std@@HH@Z 00000001800038a0 f   Backend.obj
 0001:00002980       ??_EBackend@@UEAAPEAXI@Z   0000000180003980 f i * CIL library *:* CIL module *
 0001:00002980       ??_GBackend@@UEAAPEAXI@Z   0000000180003980 f i Backend.obj
 0001:000029c0       ??1Backend@@UEAA@XZ        00000001800039c0 f   Backend.obj
 0001:00002a80       ?init@Backend@@KAXAEBV?$FunctionCallbackInfo@VValue@v8@@@Nan@@@Z 0000000180003a80 f   Backend.obj
 0001:00002bf0       ?recreateSurface@Backend@@UEAAPEAU_cairo_surface@@XZ 0000000180003bf0 f   Backend.obj
 0001:00002c10       ?getSurface@Backend@@QEAAPEAU_cairo_surface@@XZ 0000000180003c10 f   Backend.obj
 0001:00002c40       ?destroySurface@Backend@@UEAAXXZ 0000000180003c40 f   Backend.obj
 0001:00002c70       ?getName@Backend@@QEAA?AV?$basic_string@DU?$char_traits@D@std@@V?$allocator@D@2@@std@@XZ 0000000180003c70 f   Backend.obj
 0001:00002c90       ?getWidth@Backend@@QEAAHXZ 0000000180003c90 f   Backend.obj
 0001:00002ca0       ?setWidth@Backend@@UEAAXH@Z 0000000180003ca0 f   Backend.obj
 0001:00002cb0       ?getHeight@Backend@@QEAAHXZ 0000000180003cb0 f   Backend.obj
 0001:00002cc0       ?setHeight@Backend@@UEAAXH@Z 0000000180003cc0 f   Backend.obj
 0001:00002cd0       ??1?$pair@$$CBV?$basic_string@DU?$char_traits@D@std@@V?$allocator@D@2@@std@@H@std@@QEAA@XZ 0000000180003cd0 f i CanvasRenderingContext2d.obj
 0001:00002cd0       ??1?$pair@$$CBV?$basic_string@DU?$char_traits@D@std@@V?$allocator@D@2@@std@@W4_cairo_operator@@@std@@QEAA@XZ 0000000180003cd0 f i CanvasRenderingContext2d.obj
 0001:00002cd0       ??1?$pair@$$CBV?$basic_string@DU?$char_traits@D@std@@V?$allocator@D@2@@std@@I@std@@QEAA@XZ 0000000180003cd0 f i color.obj
 0001:00002cd0       ??1?$basic_string@DU?$char_traits@D@std@@V?$allocator@D@2@@std@@QEAA@XZ 0000000180003cd0 f i Backend.obj
 0001:00002d30       ??0?$basic_string@DU?$char_traits@D@std@@V?$allocator@D@2@@std@@QEAA@AEBV01@@Z 0000000180003d30 f i Backend.obj
 0001:00002e10       ??$?HDU?$char_traits@D@std@@V?$allocator@D@1@@std@@YA?AV?$basic_string@DU?$char_traits@D@std@@V?$allocator@D@2@@0@QEBDAEBV10@@Z 0000000180003e10 f i Backend.obj
 0001:00002f60       ??$?HDU?$char_traits@D@std@@V?$allocator@D@1@@std@@YA?AV?$basic_string@DU?$char_traits@D@std@@V?$allocator@D@2@@0@$$QEAV10@QEBD@Z 0000000180003f60 f i Backend.obj
 0001:00002fc0       ?append@?$basic_string@DU?$char_traits@D@std@@V?$allocator@D@2@@std@@QEAAAEAV12@QEBD_K@Z 0000000180003fc0 f i Backend.obj
 0001:00003040       ??$_Reallocate_grow_by@V<lambda_65e615be2a453ca0576c979606f46740>@@PEBD_K@?$basic_string@DU?$char_traits@D@std@@V?$allocator@D@2@@std@@AEAAAEAV01@_KV<lambda_65e615be2a453ca0576c979606f46740>@@PEBD_K@Z 0000000180004040 f i Backend.obj
 0001:000032b0       ?New@?$Factory@VFunctionTemplate@v8@@@imp@Nan@@SA?AV?$Local@VFunctionTemplate@v8@@@v8@@P6AXAEBV?$FunctionCallbackInfo@VValue@v8@@@3@@ZV?$Local@VValue@v8@@@5@V?$Local@VSignature@v8@@@5@@Z 00000001800042b0 f i ImageBackend.obj
 0001:00003470       ?AdjustExternalMemory@Nan@@YAHH@Z 0000000180004470 f i ImageBackend.obj
 0001:000034f0       ??1EscapableHandleScope@Nan@@QEAA@XZ 00000001800044f0 f i Canvas.obj
 0001:000034f0       ??1HandleScope@Nan@@QEAA@XZ 00000001800044f0 f i ImageBackend.obj
 0001:00003500       ??0ImageBackend@@QEAA@HH@Z 0000000180004500 f   ImageBackend.obj
 0001:00003580       ??_GImageBackend@@UEAAPEAXI@Z 0000000180004580 f i ImageBackend.obj
 0001:00003580       ??_EImageBackend@@UEAAPEAXI@Z 0000000180004580 f i * CIL library *:* CIL module *
 0001:000035c0       ?createSurface@ImageBackend@@EEAAPEAU_cairo_surface@@XZ 00000001800045c0 f   ImageBackend.obj
 0001:00003670       ?destroySurface@ImageBackend@@EEAAXXZ 0000000180004670 f   ImageBackend.obj
 0001:000036e0       ?getFormat@ImageBackend@@UEAA?AW4_cairo_format@@XZ 00000001800046e0 f   ImageBackend.obj
 0001:000036f0       ?Initialize@ImageBackend@@SAXV?$Local@VObject@v8@@@v8@@@Z 00000001800046f0 f   ImageBackend.obj
 0001:00003900       ?New@PdfBackend@@SAXAEBV?$FunctionCallbackInfo@VValue@v8@@@Nan@@@Z 0000000180004900 f   PdfBackend.obj
 0001:00003900       ?New@ImageBackend@@SAXAEBV?$FunctionCallbackInfo@VValue@v8@@@Nan@@@Z 0000000180004900 f   ImageBackend.obj
 0001:00003900       ?New@SvgBackend@@SAXAEBV?$FunctionCallbackInfo@VValue@v8@@@Nan@@@Z 0000000180004900 f   SvgBackend.obj
 0001:00003910       ??0?$basic_string@DU?$char_traits@D@std@@V?$allocator@D@2@@std@@QEAA@QEBD@Z 0000000180004910 f i ImageBackend.obj
 0001:00003950       ?assign@?$basic_string@DU?$char_traits@D@std@@V?$allocator@D@2@@std@@QEAAAEAV12@QEBD@Z 0000000180004950 f i ImageBackend.obj
 0001:00003970       ?assign@?$basic_string@DU?$char_traits@D@std@@V?$allocator@D@2@@std@@QEAAAEAV12@QEBD_K@Z 0000000180004970 f i ImageBackend.obj
 0001:00003ad0       ?backend@Canvas@@QEAAPEAVBackend@@XZ 0000000180004ad0 f i PdfBackend.obj
 0001:00003ae0       ?surface@Canvas@@QEAAPEAU_cairo_surface@@XZ 0000000180004ae0 f i PdfBackend.obj
 0001:00003b10       ?data@Canvas@@QEAAPEAEXZ   0000000180004b10 f i PdfBackend.obj
 0001:00003b40       ?stride@Canvas@@QEAAHXZ    0000000180004b40 f i PdfBackend.obj
 0001:00003b70       ?nBytes@Canvas@@QEAA_KXZ   0000000180004b70 f i PdfBackend.obj
 0001:00003bb0       ?getWidth@Canvas@@QEAAHXZ  0000000180004bb0 f i PdfBackend.obj
 0001:00003bc0       ?getHeight@Canvas@@QEAAHXZ 0000000180004bc0 f i PdfBackend.obj
 0001:00003bd0       ?writeVec@Closure@@SA?AW4_cairo_status@@PEAXPEBEI@Z 0000000180004bd0 f i PdfBackend.obj
 0001:00003c00       ??1Closure@@QEAA@XZ        0000000180004c00 f i PdfBackend.obj
 0001:00003c80       ??0PdfBackend@@QEAA@HH@Z   0000000180004c80 f   PdfBackend.obj
 0001:00003d50       ??_GPdfBackend@@UEAAPEAXI@Z 0000000180004d50 f i PdfBackend.obj
 0001:00003d50       ??_EPdfBackend@@UEAAPEAXI@Z 0000000180004d50 f i * CIL library *:* CIL module *
 0001:00003de0       ?createSurface@PdfBackend@@EEAAPEAU_cairo_surface@@XZ 0000000180004de0 f   PdfBackend.obj
 0001:00003e50       ?recreateSurface@PdfBackend@@EEAAPEAU_cairo_surface@@XZ 0000000180004e50 f   PdfBackend.obj
 0001:00003e80       ?Initialize@PdfBackend@@SAXV?$Local@VObject@v8@@@v8@@@Z 0000000180004e80 f   PdfBackend.obj
 0001:00004090       ??$_Insert_range@PEBE@?$vector@EV?$allocator@E@std@@@std@@AEAAXV?$_Vector_const_iterator@V?$_Vector_val@U?$_Simple_types@E@std@@@std@@@1@PEBE1Uforward_iterator_tag@1@@Z 0000000180005090 f i PdfBackend.obj
 0001:00004290       ?_Xlength@?$vector@NV?$allocator@N@std@@@std@@CAXXZ 0000000180005290 f i CanvasRenderingContext2d.obj
 0001:00004290       ?_Xlength@?$vector@EV?$allocator@E@std@@@std@@CAXXZ 0000000180005290 f i PdfBackend.obj
 0001:00004290       ?_Xlength@?$vector@VFontFace@@V?$allocator@VFontFace@@@std@@@std@@CAXXZ 0000000180005290 f i Canvas.obj
 0001:000042b0       ?_Change_array@?$vector@EV?$allocator@E@std@@@std@@AEAAXQEAE_K1@Z 00000001800052b0 f i PdfBackend.obj
 0001:00004340       ??0SvgBackend@@QEAA@HH@Z   0000000180005340 f   SvgBackend.obj
 0001:00004410       ??_GSvgBackend@@UEAAPEAXI@Z 0000000180005410 f i SvgBackend.obj
 0001:00004410       ??_ESvgBackend@@UEAAPEAXI@Z 0000000180005410 f i * CIL library *:* CIL module *
 0001:000044b0       ?createSurface@SvgBackend@@EEAAPEAU_cairo_surface@@XZ 00000001800054b0 f   SvgBackend.obj
 0001:00004540       ?recreateSurface@SvgBackend@@EEAAPEAU_cairo_surface@@XZ 0000000180005540 f   SvgBackend.obj
 0001:000045a0       ?Initialize@SvgBackend@@SAXV?$Local@VObject@v8@@@v8@@@Z 00000001800055a0 f   SvgBackend.obj
 0001:000047b0       ??1Parser@BMPParser@@QEAA@XZ 00000001800057b0 f   BMPParser.obj
 0001:00004880       ?parse@Parser@BMPParser@@QEAAXPEAEH0@Z 0000000180005880 f   BMPParser.obj
 0001:00007350       ?getErrMsg@Parser@BMPParser@@QEBA?AV?$basic_string@DU?$char_traits@D@std@@V?$allocator@D@2@@std@@XZ 0000000180008350 f   BMPParser.obj
 0001:00007600       ?getStr@Parser@BMPParser@@AEAA?AV?$basic_string@DU?$char_traits@D@std@@V?$allocator@D@2@@std@@H_N@Z 0000000180008600 f   BMPParser.obj
 0001:000078e0       ?skip@Parser@BMPParser@@AEAAXH@Z 00000001800088e0 f i BMPParser.obj
 0001:00007a00       ?calcMaskShift@Parser@BMPParser@@AEAAXAEAI0AEAN@Z 0000000180008a00 f   BMPParser.obj
 0001:00007b80       ?setOp@Parser@BMPParser@@AEAAXV?$basic_string@DU?$char_traits@D@std@@V?$allocator@D@2@@std@@@Z 0000000180008b80 f   BMPParser.obj
 0001:00007c30       ?setErrUnsupported@Parser@BMPParser@@AEAAXV?$basic_string@DU?$char_traits@D@std@@V?$allocator@D@2@@std@@@Z 0000000180008c30 f   BMPParser.obj
 0001:00007d80       ?setErrUnknown@Parser@BMPParser@@AEAAXV?$basic_string@DU?$char_traits@D@std@@V?$allocator@D@2@@std@@@Z 0000000180008d80 f   BMPParser.obj
 0001:00007ed0       ?setErr@Parser@BMPParser@@AEAAXV?$basic_string@DU?$char_traits@D@std@@V?$allocator@D@2@@std@@@Z 0000000180008ed0 f   BMPParser.obj
 0001:00007f90       ?assign@?$basic_string@DU?$char_traits@D@std@@V?$allocator@D@2@@std@@QEAAAEAV12@_KD@Z 0000000180008f90 f i BMPParser.obj
 0001:00008100       ??$?HDU?$char_traits@D@std@@V?$allocator@D@1@@std@@YA?AV?$basic_string@DU?$char_traits@D@std@@V?$allocator@D@2@@0@AEBV10@QEBD@Z 0000000180009100 f i BMPParser.obj
 0001:00008250       ??$?9DU?$char_traits@D@std@@V?$allocator@D@1@@std@@YA_NAEBV?$basic_string@DU?$char_traits@D@std@@V?$allocator@D@2@@0@QEBD@Z 0000000180009250 f i BMPParser.obj
 0001:000082a0       ??$get@I$00@Parser@BMPParser@@AEAAIXZ 00000001800092a0 f i BMPParser.obj
 0001:000082a0       ??$get@H$00@Parser@BMPParser@@AEAAHXZ 00000001800092a0 f i BMPParser.obj
 0001:000083c0       ??$get@G$00@Parser@BMPParser@@AEAAGXZ 00000001800093c0 f i BMPParser.obj
 0001:000084f0       ??$get@E$0A@@Parser@BMPParser@@AEAAEXZ 00000001800094f0 f i BMPParser.obj
 0001:00008500       ??$get@E$00@Parser@BMPParser@@AEAAEPEAE@Z 0000000180009500 f i BMPParser.obj
 0001:00008610       ??$get@G$0A@@Parser@BMPParser@@AEAAGXZ 0000000180009610 f i BMPParser.obj
 0001:00008620       ??$get@I$0A@@Parser@BMPParser@@AEAAIXZ 0000000180009620 f i BMPParser.obj
 0001:00008630       ??$_Reallocate_grow_by@V<lambda_319d5e083f45f90dcdce5dce53cbb275>@@D@?$basic_string@DU?$char_traits@D@std@@V?$allocator@D@2@@std@@AEAAAEAV01@_KV<lambda_319d5e083f45f90dcdce5dce53cbb275>@@D@Z 0000000180009630 f i BMPParser.obj
 0001:000087a0       ??$_Reallocate_grow_by@V<lambda_f3a66ab6a0570788f31503db83886f49>@@_KPEBD_K@?$basic_string@DU?$char_traits@D@std@@V?$allocator@D@2@@std@@AEAAAEAV01@_KV<lambda_f3a66ab6a0570788f31503db83886f49>@@_KPEBD2@Z 00000001800097a0 f i BMPParser.obj
 0001:00008b00       ??1AsyncResource@Nan@@QEAA@XZ 0000000180009b00 f i Canvas.obj
 0001:00008b30       ?ThrowError@Nan@@YAXPEBD@Z 0000000180009b30 f i Canvas.obj
 0001:00008bc0       ?ThrowTypeError@Nan@@YAXPEBD@Z 0000000180009bc0 f i Canvas.obj
 0001:00008c50       ??0Utf8String@Nan@@QEAA@V?$Local@VValue@v8@@@v8@@@Z 0000000180009c50 f i Canvas.obj
 0001:00008d80       ??1Utf8String@Nan@@QEAA@XZ 0000000180009d80 f i Canvas.obj
 0001:00008da0       ?SetPrototypeMethod@Nan@@YAXV?$Local@VFunctionTemplate@v8@@@v8@@PEBDP6AXAEBV?$FunctionCallbackInfo@VValue@v8@@@1@@ZV?$Local@VValue@v8@@@3@@Z 0000000180009da0 f i Canvas.obj
 0001:00008e90       ??0JpegClosure@@QEAA@PEAVCanvas@@@Z 0000000180009e90 f i Canvas.obj
 0001:00008f10       ??1JpegClosure@@QEAA@XZ    0000000180009f10 f i Canvas.obj
 0001:000090e0       ?setjmp_wrapper@@YA_NPEAUpng_struct_def@@@Z 000000018000a0e0 f   Canvas.obj
 0001:00009610       ?default_error_condition@error_category@std@@UEBA?AVerror_condition@2@H@Z 000000018000a610 f i Canvas.obj
 0001:00009620       ?equivalent@error_category@std@@UEBA_NHAEBVerror_condition@2@@Z 000000018000a620 f i Canvas.obj
 0001:00009660       ?equivalent@error_category@std@@UEBA_NAEBVerror_code@2@H@Z 000000018000a660 f i Canvas.obj
 0001:00009680       ?make_error_code@std@@YA?AVerror_code@1@W4io_errc@1@@Z 000000018000a680 f i Canvas.obj
 0001:000096a0       ??_Gsystem_error@std@@UEAAPEAXI@Z 000000018000a6a0 f i Canvas.obj
 0001:000096a0       ??_G_System_error@std@@UEAAPEAXI@Z 000000018000a6a0 f i Canvas.obj
 0001:000096a0       ??_Esystem_error@std@@UEAAPEAXI@Z 000000018000a6a0 f i * CIL library *:* CIL module *
 0001:000096a0       ??_E_System_error@std@@UEAAPEAXI@Z 000000018000a6a0 f i * CIL library *:* CIL module *
 0001:000096a0       ??_Efailure@ios_base@std@@UEAAPEAXI@Z 000000018000a6a0 f i * CIL library *:* CIL module *
 0001:000096a0       ??_Gfailure@ios_base@std@@UEAAPEAXI@Z 000000018000a6a0 f i Canvas.obj
 0001:000096d0       ??0system_error@std@@QEAA@Verror_code@1@PEBD@Z 000000018000a6d0 f i Canvas.obj
 0001:000098e0       ?name@_Iostream_error_category2@std@@UEBAPEBDXZ 000000018000a8e0 f i Canvas.obj
 0001:000098f0       ?message@_Iostream_error_category2@std@@UEBA?AV?$basic_string@DU?$char_traits@D@std@@V?$allocator@D@2@@2@H@Z 000000018000a8f0 f i Canvas.obj
 0001:00009970       ??_G_Iostream_error_category2@std@@UEAAPEAXI@Z 000000018000a970 f i Canvas.obj
 0001:00009970       ??_E_Iostream_error_category2@std@@UEAAPEAXI@Z 000000018000a970 f i * CIL library *:* CIL module *
 0001:000099a0       ??_G_Facet_base@std@@UEAAPEAXI@Z 000000018000a9a0 f i Canvas.obj
 0001:000099a0       ??_E_Facet_base@std@@UEAAPEAXI@Z 000000018000a9a0 f i * CIL library *:* CIL module *
 0001:000099d0       ?_Incref@facet@locale@std@@UEAAXXZ 000000018000a9d0 f i Canvas.obj
 0001:000099e0       ?_Decref@facet@locale@std@@UEAAPEAV_Facet_base@3@XZ 000000018000a9e0 f i Canvas.obj
 0001:000099f0       ??1locale@std@@QEAA@XZ     000000018000a9f0 f i Canvas.obj
 0001:00009a20       ?_Getcat@?$ctype@D@std@@SA_KPEAPEBVfacet@locale@2@PEBV42@@Z 000000018000aa20 f i Canvas.obj
 0001:00009bb0       ?do_tolower@?$ctype@D@std@@MEBADD@Z 000000018000abb0 f i Canvas.obj
 0001:00009bc0       ?do_tolower@?$ctype@D@std@@MEBAPEBDPEADPEBD@Z 000000018000abc0 f i Canvas.obj
 0001:00009c10       ?do_toupper@?$ctype@D@std@@MEBADD@Z 000000018000ac10 f i Canvas.obj
 0001:00009c20       ?do_toupper@?$ctype@D@std@@MEBAPEBDPEADPEBD@Z 000000018000ac20 f i Canvas.obj
 0001:00009c70       ?do_widen@?$ctype@D@std@@MEBADD@Z 000000018000ac70 f i Canvas.obj
 0001:00009c70       ?do_narrow@?$ctype@D@std@@MEBADDD@Z 000000018000ac70 f i Canvas.obj
 0001:00009c80       ?do_widen@?$ctype@D@std@@MEBAPEBDPEBD0PEAD@Z 000000018000ac80 f i Canvas.obj
 0001:00009ca0       ?do_narrow@?$ctype@D@std@@MEBAPEBDPEBD0DPEAD@Z 000000018000aca0 f i Canvas.obj
 0001:00009cc0       ??_G?$ctype@D@std@@MEAAPEAXI@Z 000000018000acc0 f i Canvas.obj
 0001:00009cc0       ??_E?$ctype@D@std@@MEAAPEAXI@Z 000000018000acc0 f i * CIL library *:* CIL module *
 0001:00009d30       ??0failure@ios_base@std@@QEAA@PEBDAEBVerror_code@2@@Z 000000018000ad30 f i Canvas.obj
 0001:00009d70       ??_Gios_base@std@@UEAAPEAXI@Z 000000018000ad70 f i Canvas.obj
 0001:00009d70       ??_Eios_base@std@@UEAAPEAXI@Z 000000018000ad70 f i * CIL library *:* CIL module *
 0001:00009db0       ?SetProtoAccessor@@YAXV?$Local@VObjectTemplate@v8@@@v8@@V?$Local@VString@v8@@@2@P6AX1AEBV?$PropertyCallbackInfo@VValue@v8@@@Nan@@@ZP6AX1V?$Local@VValue@v8@@@2@AEBV?$PropertyCallbackInfo@X@5@@ZV?$Local@VFunctionTemplate@v8@@@2@@Z 000000018000adb0 f i Canvas.obj
 0001:00009f70       ?empty_closure_output_buffer@@YAEPEAUjpeg_compress_struct@@@Z 000000018000af70 f   Canvas.obj
 0001:0000a200       ?term_closure_destination@@YAXPEAUjpeg_compress_struct@@@Z 000000018000b200 f   Canvas.obj
 0001:0000a550       ?encode_jpeg@@YAXUjpeg_compress_struct@@PEAU_cairo_surface@@H_NHH@Z 000000018000b550 f   Canvas.obj
 0001:0000a740       ?write_to_jpeg_buffer@@YAXPEAU_cairo_surface@@PEAUJpegClosure@@@Z 000000018000b740 f   Canvas.obj
 0001:0000a880       ?Initialize@Canvas@@SAXV?$Local@VObject@v8@@@v8@@@Z 000000018000b880 f   Canvas.obj
 0001:0000b190       ?New@Canvas@@SAXAEBV?$FunctionCallbackInfo@VValue@v8@@@Nan@@@Z 000000018000c190 f   Canvas.obj
 0001:0000b820       ?GetType@Canvas@@SAXV?$Local@VString@v8@@@v8@@AEBV?$PropertyCallbackInfo@VValue@v8@@@Nan@@@Z 000000018000c820 f   Canvas.obj
 0001:0000b8b0       ?GetStride@Canvas@@SAXV?$Local@VString@v8@@@v8@@AEBV?$PropertyCallbackInfo@VValue@v8@@@Nan@@@Z 000000018000c8b0 f   Canvas.obj
 0001:0000b940       ?GetWidth@Canvas@@SAXV?$Local@VString@v8@@@v8@@AEBV?$PropertyCallbackInfo@VValue@v8@@@Nan@@@Z 000000018000c940 f   Canvas.obj
 0001:0000b9c0       ?SetWidth@Canvas@@SAXV?$Local@VString@v8@@@v8@@V?$Local@VValue@v8@@@3@AEBV?$PropertyCallbackInfo@X@Nan@@@Z 000000018000c9c0 f   Canvas.obj
 0001:0000baa0       ?GetHeight@Canvas@@SAXV?$Local@VString@v8@@@v8@@AEBV?$PropertyCallbackInfo@VValue@v8@@@Nan@@@Z 000000018000caa0 f   Canvas.obj
 0001:0000bb20       ?SetHeight@Canvas@@SAXV?$Local@VString@v8@@@v8@@V?$Local@VValue@v8@@@3@AEBV?$PropertyCallbackInfo@X@Nan@@@Z 000000018000cb20 f   Canvas.obj
 0001:0000bc00       ?ToPngBufferAsync@Canvas@@SAXPEAUuv_work_s@@@Z 000000018000cc00 f   Canvas.obj
 0001:0000bc90       ?ToJpegBufferAsync@Canvas@@SAXPEAUuv_work_s@@@Z 000000018000cc90 f   Canvas.obj
 0001:0000bcd0       ?ToBufferAsyncAfter@Canvas@@SAXPEAUuv_work_s@@@Z 000000018000ccd0 f   Canvas.obj
 0001:0000ce00       ?ToBuffer@Canvas@@SAXAEBV?$FunctionCallbackInfo@VValue@v8@@@Nan@@@Z 000000018000de00 f   Canvas.obj
 0001:0000db30       ??1PngClosure@@QEAA@XZ     000000018000eb30 f i Canvas.obj
 0001:0000db40       ??1TryCatch@Nan@@QEAA@XZ   000000018000eb40 f i Canvas.obj
 0001:0000dde0       ?StreamPNGSync@Canvas@@SAXAEBV?$FunctionCallbackInfo@VValue@v8@@@Nan@@@Z 000000018000ede0 f   Canvas.obj
 0001:0000e450       ?StreamPDFSync@Canvas@@SAXAEBV?$FunctionCallbackInfo@VValue@v8@@@Nan@@@Z 000000018000f450 f   Canvas.obj
 0001:0000e860       ?StreamJPEGSync@Canvas@@SAXAEBV?$FunctionCallbackInfo@VValue@v8@@@Nan@@@Z 000000018000f860 f   Canvas.obj
 0001:0000ebe0       ?RegisterFont@Canvas@@SAXAEBV?$FunctionCallbackInfo@VValue@v8@@@Nan@@@Z 000000018000fbe0 f   Canvas.obj
 0001:0000f2f0       ?DeregisterAllFonts@Canvas@@SAXAEBV?$FunctionCallbackInfo@VValue@v8@@@Nan@@@Z 00000001800102f0 f   Canvas.obj
 0001:0000f450       ??_ECanvas@@EEAAPEAXI@Z    0000000180010450 f i * CIL library *:* CIL module *
 0001:0000f450       ??_GCanvas@@EEAAPEAXI@Z    0000000180010450 f i Canvas.obj
 0001:0000f4d0       ?GetStyleFromCSSString@Canvas@@SA?AW4PangoStyle@@PEBD@Z 00000001800104d0 f   Canvas.obj
 0001:0000f560       ?GetWeightFromCSSString@Canvas@@SA?AW4PangoWeight@@PEBD@Z 0000000180010560 f   Canvas.obj
 0001:0000f770       ?ResolveFontDescription@Canvas@@SAPEAU_PangoFontDescription@@PEBU2@@Z 0000000180010770 f   Canvas.obj
 0001:00010470       ??_D?$basic_istringstream@DU?$char_traits@D@std@@V?$allocator@D@2@@std@@QEAAXXZ 0000000180011470 f i Canvas.obj
 0001:00010510       ??1?$unordered_set@V?$basic_string@DU?$char_traits@D@std@@V?$allocator@D@2@@std@@U?$hash@V?$basic_string@DU?$char_traits@D@std@@V?$allocator@D@2@@std@@@2@U?$equal_to@V?$basic_string@DU?$char_traits@D@std@@V?$allocator@D@2@@std@@@2@V?$allocator@V?$basic_string@DU?$char_traits@D@std@@V?$allocator@D@2@@std@@@2@@std@@QEAA@XZ 0000000180011510 f i Canvas.obj
 0001:00010520       ??1?$_Hash@V?$_Uset_traits@V?$basic_string@DU?$char_traits@D@std@@V?$allocator@D@2@@std@@V?$_Uhash_compare@V?$basic_string@DU?$char_traits@D@std@@V?$allocator@D@2@@std@@U?$hash@V?$basic_string@DU?$char_traits@D@std@@V?$allocator@D@2@@std@@@2@U?$equal_to@V?$basic_string@DU?$char_traits@D@std@@V?$allocator@D@2@@std@@@2@@2@V?$allocator@V?$basic_string@DU?$char_traits@D@std@@V?$allocator@D@2@@std@@@2@$0A@@std@@@std@@QEAA@XZ 0000000180011520 f i Canvas.obj
 0001:00010590       ?resurface@Canvas@@QEAAXV?$Local@VObject@v8@@@v8@@@Z 0000000180011590 f   Canvas.obj
 0001:00010780       ??1?$_Hash_vec@V?$allocator@V?$_List_unchecked_const_iterator@V?$_List_val@U?$_List_simple_types@V?$basic_string@DU?$char_traits@D@std@@V?$allocator@D@2@@std@@@std@@@std@@U_Iterator_base0@2@@std@@@std@@@std@@QEAA@XZ 0000000180011780 f i Canvas.obj
 0001:000107e0       ??1?$list@V?$basic_string@DU?$char_traits@D@std@@V?$allocator@D@2@@std@@V?$allocator@V?$basic_string@DU?$char_traits@D@std@@V?$allocator@D@2@@std@@@2@@std@@QEAA@XZ 00000001800117e0 f i Canvas.obj
 0001:00010810       ?seekpos@?$basic_stringbuf@DU?$char_traits@D@std@@V?$allocator@D@2@@std@@MEAA?AV?$fpos@U_Mbstatet@@@2@V32@H@Z 0000000180011810 f i Canvas.obj
 0001:00010900       ?seekoff@?$basic_stringbuf@DU?$char_traits@D@std@@V?$allocator@D@2@@std@@MEAA?AV?$fpos@U_Mbstatet@@@2@_JHH@Z 0000000180011900 f i Canvas.obj
 0001:00010a60       ?underflow@?$basic_stringbuf@DU?$char_traits@D@std@@V?$allocator@D@2@@std@@MEAAHXZ 0000000180011a60 f i Canvas.obj
 0001:00010ad0       ?pbackfail@?$basic_stringbuf@DU?$char_traits@D@std@@V?$allocator@D@2@@std@@MEAAHH@Z 0000000180011ad0 f i Canvas.obj
 0001:00010b30       ?overflow@?$basic_stringbuf@DU?$char_traits@D@std@@V?$allocator@D@2@@std@@MEAAHH@Z 0000000180011b30 f i Canvas.obj
 0001:00010d40       ??1?$basic_stringbuf@DU?$char_traits@D@std@@V?$allocator@D@2@@std@@UEAA@XZ 0000000180011d40 f i Canvas.obj
 0001:00010e40       ?sync@?$basic_streambuf@DU?$char_traits@D@std@@@std@@MEAAHXZ 0000000180011e40 f i Canvas.obj
 0001:00010e40       ?showmanyc@?$basic_streambuf@DU?$char_traits@D@std@@@std@@MEAA_JXZ 0000000180011e40 f i Canvas.obj
 0001:00010e50       ?setbuf@?$basic_streambuf@DU?$char_traits@D@std@@@std@@MEAAPEAV12@PEAD_J@Z 0000000180011e50 f i Canvas.obj
 0001:00010e60       ?seekpos@?$basic_streambuf@DU?$char_traits@D@std@@@std@@MEAA?AV?$fpos@U_Mbstatet@@@2@V32@H@Z 0000000180011e60 f i Canvas.obj
 0001:00010e60       ?seekoff@?$basic_streambuf@DU?$char_traits@D@std@@@std@@MEAA?AV?$fpos@U_Mbstatet@@@2@_JHH@Z 0000000180011e60 f i Canvas.obj
 0001:00010e80       ?xsputn@?$basic_streambuf@DU?$char_traits@D@std@@@std@@MEAA_JPEBD_J@Z 0000000180011e80 f i Canvas.obj
 0001:00010f40       ?xsgetn@?$basic_streambuf@DU?$char_traits@D@std@@@std@@MEAA_JPEAD_J@Z 0000000180011f40 f i Canvas.obj
 0001:00010ff0       ?uflow@?$basic_streambuf@DU?$char_traits@D@std@@@std@@MEAAHXZ 0000000180011ff0 f i Canvas.obj
 0001:00011030       ??1?$basic_streambuf@DU?$char_traits@D@std@@@std@@UEAA@XZ 0000000180012030 f i Canvas.obj
 0001:00011090       ??0?$basic_istringstream@DU?$char_traits@D@std@@V?$allocator@D@2@@std@@QEAA@AEBV?$basic_string@DU?$char_traits@D@std@@V?$allocator@D@2@@1@H@Z 0000000180012090 f i Canvas.obj
 0001:00011260       ??1?$basic_istream@DU?$char_traits@D@std@@@std@@UEAA@XZ 0000000180012260 f i Canvas.obj
 0001:00011290       ??1?$basic_ios@DU?$char_traits@D@std@@@std@@UEAA@XZ 0000000180012290 f i Canvas.obj
 0001:000112b0       ??1?$_Yarn@_W@std@@QEAA@XZ 00000001800122b0 f i Canvas.obj
 0001:000112b0       ??1?$_Yarn@D@std@@QEAA@XZ  00000001800122b0 f i Canvas.obj
 0001:000112e0       ??_E?$basic_stringbuf@DU?$char_traits@D@std@@V?$allocator@D@2@@std@@UEAAPEAXI@Z 00000001800122e0 f i * CIL library *:* CIL module *
 0001:000112e0       ??_G?$basic_stringbuf@DU?$char_traits@D@std@@V?$allocator@D@2@@std@@UEAAPEAXI@Z 00000001800122e0 f i Canvas.obj
 0001:00011320       ??_G?$basic_streambuf@DU?$char_traits@D@std@@@std@@UEAAPEAXI@Z 0000000180012320 f i Canvas.obj
 0001:00011320       ??_E?$basic_streambuf@DU?$char_traits@D@std@@@std@@UEAAPEAXI@Z 0000000180012320 f i * CIL library *:* CIL module *
 0001:000113a0       ??_E?$basic_istringstream@DU?$char_traits@D@std@@V?$allocator@D@2@@std@@UEAAPEAXI@Z 00000001800123a0 f i * CIL library *:* CIL module *
 0001:000113a0       ??_G?$basic_istringstream@DU?$char_traits@D@std@@V?$allocator@D@2@@std@@UEAAPEAXI@Z 00000001800123a0 f i Canvas.obj
 0001:000113e0       ??_G?$basic_istream@DU?$char_traits@D@std@@@std@@UEAAPEAXI@Z 00000001800123e0 f i Canvas.obj
 0001:000113e0       ??_E?$basic_istream@DU?$char_traits@D@std@@@std@@UEAAPEAXI@Z 00000001800123e0 f i * CIL library *:* CIL module *
 0001:00011450       ??_G?$basic_ios@DU?$char_traits@D@std@@@std@@UEAAPEAXI@Z 0000000180012450 f i Canvas.obj
 0001:00011450       ??_E?$basic_ios@DU?$char_traits@D@std@@@std@@UEAAPEAXI@Z 0000000180012450 f i * CIL library *:* CIL module *
 0001:00011490       ?_Pnavail@?$basic_streambuf@DU?$char_traits@D@std@@@std@@IEBA_JXZ 0000000180012490 f i Canvas.obj
 0001:000114b0       ?_Gnavail@?$basic_streambuf@DU?$char_traits@D@std@@@std@@IEBA_JXZ 00000001800124b0 f i Canvas.obj
 0001:000114d0       ??0?$basic_istream@DU?$char_traits@D@std@@@std@@QEAA@PEAV?$basic_streambuf@DU?$char_traits@D@std@@@1@_N@Z 00000001800124d0 f i Canvas.obj
 0001:00011630       ?_Assign_grow@?$_Hash_vec@V?$allocator@V?$_List_unchecked_const_iterator@V?$_List_val@U?$_List_simple_types@V?$basic_string@DU?$char_traits@D@std@@V?$allocator@D@2@@std@@@std@@@std@@U_Iterator_base0@2@@std@@@std@@@std@@QEAAX_KV?$_List_unchecked_const_iterator@V?$_List_val@U?$_List_simple_types@V?$basic_string@DU?$char_traits@D@std@@V?$allocator@D@2@@std@@@std@@@std@@U_Iterator_base0@2@@2@@Z 0000000180012630 f i Canvas.obj
 0001:00011780       ??$New@VString@v8@@V?$basic_string@DU?$char_traits@D@std@@V?$allocator@D@2@@std@@@Nan@@YA?AV?$MaybeLocal@VString@v8@@@v8@@V?$basic_string@DU?$char_traits@D@std@@V?$allocator@D@2@@std@@@Z 0000000180012780 f i Canvas.obj
 0001:00011870       ??$use_facet@V?$ctype@D@std@@@std@@YAAEBV?$ctype@D@0@AEBVlocale@0@@Z 0000000180012870 f i Canvas.obj
 0001:00011980       ??$SetMethod@VFunctionTemplate@v8@@VLocal@2@@Nan@@YAXV?$Local@VFunctionTemplate@v8@@@v8@@PEBDP6AXAEBV?$FunctionCallbackInfo@VValue@v8@@@0@@ZV?$Local@VValue@v8@@@2@@Z 0000000180012980 f i Canvas.obj
 0001:00011a50       ??$Unwrap@VCanvas@@@ObjectWrap@Nan@@SAPEAVCanvas@@V?$Local@VObject@v8@@@v8@@@Z 0000000180012a50 f i Canvas.obj
 0001:00011a50       ??$Unwrap@VGradient@@@ObjectWrap@Nan@@SAPEAVGradient@@V?$Local@VObject@v8@@@v8@@@Z 0000000180012a50 f i CanvasGradient.obj
 0001:00011a50       ??$Unwrap@VImage@@@ObjectWrap@Nan@@SAPEAVImage@@V?$Local@VObject@v8@@@v8@@@Z 0000000180012a50 f i CanvasPattern.obj
 0001:00011a50       ??$Unwrap@VImageData@@@ObjectWrap@Nan@@SAPEAVImageData@@V?$Local@VObject@v8@@@v8@@@Z 0000000180012a50 f i CanvasRenderingContext2d.obj
 0001:00011a50       ??$Unwrap@VPattern@@@ObjectWrap@Nan@@SAPEAVPattern@@V?$Local@VObject@v8@@@v8@@@Z 0000000180012a50 f i CanvasPattern.obj
 0001:00011a50       ??$Unwrap@VContext2d@@@ObjectWrap@Nan@@SAPEAVContext2d@@V?$Local@VObject@v8@@@v8@@@Z 0000000180012a50 f i Canvas.obj
 0001:00011ae0       ??$emplace@V?$basic_string@DU?$char_traits@D@std@@V?$allocator@D@2@@std@@@?$_Hash@V?$_Uset_traits@V?$basic_string@DU?$char_traits@D@std@@V?$allocator@D@2@@std@@V?$_Uhash_compare@V?$basic_string@DU?$char_traits@D@std@@V?$allocator@D@2@@std@@U?$hash@V?$basic_string@DU?$char_traits@D@std@@V?$allocator@D@2@@std@@@2@U?$equal_to@V?$basic_string@DU?$char_traits@D@std@@V?$allocator@D@2@@std@@@2@@2@V?$allocator@V?$basic_string@DU?$char_traits@D@std@@V?$allocator@D@2@@std@@@2@$0A@@std@@@std@@QEAA?AU?$pair@V?$_List_const_iterator@V?$_List_val@U?$_List_simple_types@V?$basic_string@DU?$char_traits@D@std@@V?$allocator@D@2@@std@@@std@@@std@@@std@@_N@1@$$QEAV?$basic_string@DU?$char_traits@D@std@@V?$allocator@D@2@@1@@Z 0000000180012ae0 f i Canvas.obj
 0001:00011e40       ??$_Emplace_reallocate@AEBVFontFace@@@?$vector@VFontFace@@V?$allocator@VFontFace@@@std@@@std@@QEAAPEAVFontFace@@QEAV2@AEBV2@@Z 0000000180012e40 f i Canvas.obj
 0001:000120b0       ??$_Free_non_head@V?$allocator@U?$_List_node@V?$basic_string@DU?$char_traits@D@std@@V?$allocator@D@2@@std@@PEAX@std@@@std@@@?$_List_node@V?$basic_string@DU?$char_traits@D@std@@V?$allocator@D@2@@std@@PEAX@std@@SAXAEAV?$allocator@U?$_List_node@V?$basic_string@DU?$char_traits@D@std@@V?$allocator@D@2@@std@@PEAX@std@@@1@PEAU01@@Z 00000001800130b0 f i Canvas.obj
 0001:00012150       ??1?$_List_node_emplace_op2@V?$allocator@U?$_List_node@V?$basic_string@DU?$char_traits@D@std@@V?$allocator@D@2@@std@@PEAX@std@@@std@@@std@@QEAA@XZ 0000000180013150 f i Canvas.obj
 0001:000121e0       ??1?$unique_ptr@V_Facet_base@std@@U?$default_delete@V_Facet_base@std@@@2@@std@@QEAA@XZ 00000001800131e0 f i Canvas.obj
 0001:00012200       ??1?$_Alloc_construct_ptr@V?$allocator@U?$_List_node@V?$basic_string@DU?$char_traits@D@std@@V?$allocator@D@2@@std@@PEAX@std@@@std@@@std@@QEAA@XZ 0000000180013200 f i Canvas.obj
 0001:00012220       ?_Forced_rehash@?$_Hash@V?$_Uset_traits@V?$basic_string@DU?$char_traits@D@std@@V?$allocator@D@2@@std@@V?$_Uhash_compare@V?$basic_string@DU?$char_traits@D@std@@V?$allocator@D@2@@std@@U?$hash@V?$basic_string@DU?$char_traits@D@std@@V?$allocator@D@2@@std@@@2@U?$equal_to@V?$basic_string@DU?$char_traits@D@std@@V?$allocator@D@2@@std@@@2@@2@V?$allocator@V?$basic_string@DU?$char_traits@D@std@@V?$allocator@D@2@@std@@@2@$0A@@std@@@std@@IEAAX_K@Z 0000000180013220 f i Canvas.obj
 0001:000124a0       ??$getline@DU?$char_traits@D@std@@V?$allocator@D@2@@std@@YAAEAV?$basic_istream@DU?$char_traits@D@std@@@0@$$QEAV10@AEAV?$basic_string@DU?$char_traits@D@std@@V?$allocator@D@2@@0@D@Z 00000001800134a0 f i Canvas.obj
 0001:000127d0       ??$_Uninitialized_move@PEAVFontFace@@V?$allocator@VFontFace@@@std@@@std@@YAPEAVFontFace@@QEAV1@0PEAV1@AEAV?$allocator@VFontFace@@@0@@Z 00000001800137d0 f i Canvas.obj
 0001:00012870       ??1sentry@?$basic_istream@DU?$char_traits@D@std@@@std@@QEAA@XZ 0000000180013870 f i Canvas.obj
 0001:000128a0       ??1_Sentry_base@?$basic_ostream@DU?$char_traits@D@std@@@std@@QEAA@XZ 00000001800138a0 f i Canvas.obj
 0001:000128a0       ??1_Sentry_base@?$basic_istream@DU?$char_traits@D@std@@@std@@QEAA@XZ 00000001800138a0 f i Canvas.obj
 0001:000128d0       ?flush@?$basic_ostream@DU?$char_traits@D@std@@@std@@QEAAAEAV12@XZ 00000001800138d0 f i Canvas.obj
 0001:00012a60       ??1sentry@?$basic_ostream@DU?$char_traits@D@std@@@std@@QEAA@XZ 0000000180013a60 f i Canvas.obj
 0001:00012b18       ??_E?$basic_istream@DU?$char_traits@D@std@@@std@@$4PPPPPPPM@A@EAAPEAXI@Z 0000000180013b18 f i Canvas.obj
 0001:00012b24       ??_E?$basic_istringstream@DU?$char_traits@D@std@@V?$allocator@D@2@@std@@$4PPPPPPPM@A@EAAPEAXI@Z 0000000180013b24 f i Canvas.obj
 0001:00012b30       ?New@Gradient@@SAXAEBV?$FunctionCallbackInfo@VValue@v8@@@Nan@@@Z 0000000180013b30 f   CanvasGradient.obj
 0001:00013180       ?AddColorStop@Gradient@@SAXAEBV?$FunctionCallbackInfo@VValue@v8@@@Nan@@@Z 0000000180014180 f   CanvasGradient.obj
 0001:000133f0       ??_GGradient@@EEAAPEAXI@Z  00000001800143f0 f i CanvasGradient.obj
 0001:000133f0       ??_EGradient@@EEAAPEAXI@Z  00000001800143f0 f i * CIL library *:* CIL module *
 0001:00013470       ?Initialize@Pattern@@SAXV?$Local@VObject@v8@@@v8@@@Z 0000000180014470 f   CanvasPattern.obj
 0001:000136d0       ?SaveExternalModules@Pattern@@SAXAEBV?$FunctionCallbackInfo@VValue@v8@@@Nan@@@Z 00000001800146d0 f   CanvasPattern.obj
 0001:00013760       ?New@Pattern@@SAXAEBV?$FunctionCallbackInfo@VValue@v8@@@Nan@@@Z 0000000180014760 f   CanvasPattern.obj
 0001:00013ad0       ?SetTransform@Pattern@@SAXAEBV?$FunctionCallbackInfo@VValue@v8@@@Nan@@@Z 0000000180014ad0 f   CanvasPattern.obj
 0001:000142a0       ??_GPattern@@EEAAPEAXI@Z   00000001800152a0 f i CanvasPattern.obj
 0001:000142a0       ??_EPattern@@EEAAPEAXI@Z   00000001800152a0 f i * CIL library *:* CIL module *
 0001:00014320       ??$New@VFunction@v8@@@Nan@@YA?AV?$Local@VFunction@v8@@@v8@@P6AXAEBV?$FunctionCallbackInfo@VValue@v8@@@0@@ZV?$Local@VValue@v8@@@2@@Z 0000000180015320 f i CanvasPattern.obj
 0001:000144c0       ?_Throw_tree_length_error@std@@YAXXZ 00000001800154c0 f i CanvasRenderingContext2d.obj
 0001:00014610       ?Initialize@Context2d@@SAXV?$Local@VObject@v8@@@v8@@@Z 0000000180015610 f   CanvasRenderingContext2d.obj
 0001:00015460       ??_EContext2d@@EEAAPEAXI@Z 0000000180016460 f i * CIL library *:* CIL module *
 0001:00015460       ??_GContext2d@@EEAAPEAXI@Z 0000000180016460 f i CanvasRenderingContext2d.obj
 0001:00015530       ?resetState@Context2d@@QEAAX_N@Z 0000000180016530 f   CanvasRenderingContext2d.obj
 0001:000156b0       ?_resetPersistentHandles@Context2d@@AEAAXXZ 00000001800166b0 f   CanvasRenderingContext2d.obj
 0001:00015750       ?create_transparent_gradient@@YAPEAU_cairo_pattern@@PEAU1@M@Z 0000000180016750 f   CanvasRenderingContext2d.obj
 0001:000158e0       ?create_transparent_pattern@@YAPEAU_cairo_pattern@@PEAU1@M@Z 00000001800168e0 f   CanvasRenderingContext2d.obj
 0001:000159b0       ?setFillRule@Context2d@@QEAAXV?$Local@VValue@v8@@@v8@@@Z 00000001800169b0 f i CanvasRenderingContext2d.obj
 0001:00015a80       ?fill@Context2d@@QEAAX_N@Z 0000000180016a80 f   CanvasRenderingContext2d.obj
 0001:00015e60       ?stroke@Context2d@@QEAAX_N@Z 0000000180016e60 f   CanvasRenderingContext2d.obj
 0001:000160d0       ?shadow@Context2d@@QEAAXP6AXPEAU_cairo@@@Z@Z 00000001800170d0 f   CanvasRenderingContext2d.obj
 0001:000165e0       ?blur@Context2d@@QEAAXPEAU_cairo_surface@@H@Z 00000001800175e0 f   CanvasRenderingContext2d.obj
 0001:00016b50       ?New@Context2d@@SAXAEBV?$FunctionCallbackInfo@VValue@v8@@@Nan@@@Z 0000000180017b50 f   CanvasRenderingContext2d.obj
 0001:000171e0       ?SaveExternalModules@Context2d@@SAXAEBV?$FunctionCallbackInfo@VValue@v8@@@Nan@@@Z 00000001800181e0 f   CanvasRenderingContext2d.obj
 0001:000172f0       ?GetFormat@Context2d@@SAXV?$Local@VString@v8@@@v8@@AEBV?$PropertyCallbackInfo@VValue@v8@@@Nan@@@Z 00000001800182f0 f   CanvasRenderingContext2d.obj
 0001:00017540       ?AddPage@Context2d@@SAXAEBV?$FunctionCallbackInfo@VValue@v8@@@Nan@@@Z 0000000180018540 f   CanvasRenderingContext2d.obj
 0001:000177a0       ?PutImageData@Context2d@@SAXAEBV?$FunctionCallbackInfo@VValue@v8@@@Nan@@@Z 00000001800187a0 f   CanvasRenderingContext2d.obj
 0001:00018290       ?GetImageData@Context2d@@SAXAEBV?$FunctionCallbackInfo@VValue@v8@@@Nan@@@Z 0000000180019290 f   CanvasRenderingContext2d.obj
 0001:00018e30       ?CreateImageData@Context2d@@SAXAEBV?$FunctionCallbackInfo@VValue@v8@@@Nan@@@Z 0000000180019e30 f   CanvasRenderingContext2d.obj
 0001:000194b0       ?DrawImage@Context2d@@SAXAEBV?$FunctionCallbackInfo@VValue@v8@@@Nan@@@Z 000000018001a4b0 f   CanvasRenderingContext2d.obj
 0001:00019e10       ?GetGlobalAlpha@Context2d@@SAXV?$Local@VString@v8@@@v8@@AEBV?$PropertyCallbackInfo@VValue@v8@@@Nan@@@Z 000000018001ae10 f   CanvasRenderingContext2d.obj
 0001:00019e90       ?SetGlobalAlpha@Context2d@@SAXV?$Local@VString@v8@@@v8@@V?$Local@VValue@v8@@@3@AEBV?$PropertyCallbackInfo@X@Nan@@@Z 000000018001ae90 f   CanvasRenderingContext2d.obj
 0001:00019f60       ?GetGlobalCompositeOperation@Context2d@@SAXV?$Local@VString@v8@@@v8@@AEBV?$PropertyCallbackInfo@VValue@v8@@@Nan@@@Z 000000018001af60 f   CanvasRenderingContext2d.obj
 0001:0001a1b0       ?SetPatternQuality@Context2d@@SAXV?$Local@VString@v8@@@v8@@V?$Local@VValue@v8@@@3@AEBV?$PropertyCallbackInfo@X@Nan@@@Z 000000018001b1b0 f   CanvasRenderingContext2d.obj
 0001:0001a380       ?GetPatternQuality@Context2d@@SAXV?$Local@VString@v8@@@v8@@AEBV?$PropertyCallbackInfo@VValue@v8@@@Nan@@@Z 000000018001b380 f   CanvasRenderingContext2d.obj
 0001:0001a450       ?SetImageSmoothingEnabled@Context2d@@SAXV?$Local@VString@v8@@@v8@@V?$Local@VValue@v8@@@3@AEBV?$PropertyCallbackInfo@X@Nan@@@Z 000000018001b450 f   CanvasRenderingContext2d.obj
 0001:0001a4f0       ?GetImageSmoothingEnabled@Context2d@@SAXV?$Local@VString@v8@@@v8@@AEBV?$PropertyCallbackInfo@VValue@v8@@@Nan@@@Z 000000018001b4f0 f   CanvasRenderingContext2d.obj
 0001:0001a570       ?SetGlobalCompositeOperation@Context2d@@SAXV?$Local@VString@v8@@@v8@@V?$Local@VValue@v8@@@3@AEBV?$PropertyCallbackInfo@X@Nan@@@Z 000000018001b570 f   CanvasRenderingContext2d.obj
 0001:0001b070       ??1?$_Tree@V?$_Tmap_traits@V?$basic_string@DU?$char_traits@D@std@@V?$allocator@D@2@@std@@W4_cairo_operator@@U?$less@V?$basic_string@DU?$char_traits@D@std@@V?$allocator@D@2@@std@@@2@V?$allocator@U?$pair@$$CBV?$basic_string@DU?$char_traits@D@std@@V?$allocator@D@2@@std@@W4_cairo_operator@@@std@@@2@$0A@@std@@@std@@QEAA@XZ 000000018001c070 f i CanvasRenderingContext2d.obj
 0001:0001b070       ??1?$map@V?$basic_string@DU?$char_traits@D@std@@V?$allocator@D@2@@std@@HU?$less@V?$basic_string@DU?$char_traits@D@std@@V?$allocator@D@2@@std@@@2@V?$allocator@U?$pair@$$CBV?$basic_string@DU?$char_traits@D@std@@V?$allocator@D@2@@std@@H@std@@@2@@std@@QEAA@XZ 000000018001c070 f i CanvasRenderingContext2d.obj
 0001:0001b070       ??1?$_Tree@V?$_Tmap_traits@V?$basic_string@DU?$char_traits@D@std@@V?$allocator@D@2@@std@@IU?$less@V?$basic_string@DU?$char_traits@D@std@@V?$allocator@D@2@@std@@@2@V?$allocator@U?$pair@$$CBV?$basic_string@DU?$char_traits@D@std@@V?$allocator@D@2@@std@@I@std@@@2@$0A@@std@@@std@@QEAA@XZ 000000018001c070 f i color.obj
 0001:0001b070       ??1?$map@V?$basic_string@DU?$char_traits@D@std@@V?$allocator@D@2@@std@@W4_cairo_operator@@U?$less@V?$basic_string@DU?$char_traits@D@std@@V?$allocator@D@2@@std@@@2@V?$allocator@U?$pair@$$CBV?$basic_string@DU?$char_traits@D@std@@V?$allocator@D@2@@std@@W4_cairo_operator@@@std@@@2@@std@@QEAA@XZ 000000018001c070 f i CanvasRenderingContext2d.obj
 0001:0001b070       ??1?$_Tree@V?$_Tmap_traits@V?$basic_string@DU?$char_traits@D@std@@V?$allocator@D@2@@std@@HU?$less@V?$basic_string@DU?$char_traits@D@std@@V?$allocator@D@2@@std@@@2@V?$allocator@U?$pair@$$CBV?$basic_string@DU?$char_traits@D@std@@V?$allocator@D@2@@std@@H@std@@@2@$0A@@std@@@std@@QEAA@XZ 000000018001c070 f i CanvasRenderingContext2d.obj
 0001:0001b0a0       ?GetShadowOffsetX@Context2d@@SAXV?$Local@VString@v8@@@v8@@AEBV?$PropertyCallbackInfo@VValue@v8@@@Nan@@@Z 000000018001c0a0 f   CanvasRenderingContext2d.obj
 0001:0001b120       ?SetShadowOffsetX@Context2d@@SAXV?$Local@VString@v8@@@v8@@V?$Local@VValue@v8@@@3@AEBV?$PropertyCallbackInfo@X@Nan@@@Z 000000018001c120 f   CanvasRenderingContext2d.obj
 0001:0001b1e0       ?GetShadowOffsetY@Context2d@@SAXV?$Local@VString@v8@@@v8@@AEBV?$PropertyCallbackInfo@VValue@v8@@@Nan@@@Z 000000018001c1e0 f   CanvasRenderingContext2d.obj
 0001:0001b260       ?SetShadowOffsetY@Context2d@@SAXV?$Local@VString@v8@@@v8@@V?$Local@VValue@v8@@@3@AEBV?$PropertyCallbackInfo@X@Nan@@@Z 000000018001c260 f   CanvasRenderingContext2d.obj
 0001:0001b320       ?GetShadowBlur@Context2d@@SAXV?$Local@VString@v8@@@v8@@AEBV?$PropertyCallbackInfo@VValue@v8@@@Nan@@@Z 000000018001c320 f   CanvasRenderingContext2d.obj
 0001:0001b3a0       ?SetShadowBlur@Context2d@@SAXV?$Local@VString@v8@@@v8@@V?$Local@VValue@v8@@@3@AEBV?$PropertyCallbackInfo@X@Nan@@@Z 000000018001c3a0 f   CanvasRenderingContext2d.obj
 0001:0001b460       ?GetAntiAlias@Context2d@@SAXV?$Local@VString@v8@@@v8@@AEBV?$PropertyCallbackInfo@VValue@v8@@@Nan@@@Z 000000018001c460 f   CanvasRenderingContext2d.obj
 0001:0001b530       ?SetAntiAlias@Context2d@@SAXV?$Local@VString@v8@@@v8@@V?$Local@VValue@v8@@@3@AEBV?$PropertyCallbackInfo@X@Nan@@@Z 000000018001c530 f   CanvasRenderingContext2d.obj
 0001:0001b6d0       ?GetTextDrawingMode@Context2d@@SAXV?$Local@VString@v8@@@v8@@AEBV?$PropertyCallbackInfo@VValue@v8@@@Nan@@@Z 000000018001c6d0 f   CanvasRenderingContext2d.obj
 0001:0001b790       ?SetTextDrawingMode@Context2d@@SAXV?$Local@VString@v8@@@v8@@V?$Local@VValue@v8@@@3@AEBV?$PropertyCallbackInfo@X@Nan@@@Z 000000018001c790 f   CanvasRenderingContext2d.obj
 0001:0001b8f0       ?GetQuality@Context2d@@SAXV?$Local@VString@v8@@@v8@@AEBV?$PropertyCallbackInfo@VValue@v8@@@Nan@@@Z 000000018001c8f0 f   CanvasRenderingContext2d.obj
 0001:0001b9d0       ?SetQuality@Context2d@@SAXV?$Local@VString@v8@@@v8@@V?$Local@VValue@v8@@@3@AEBV?$PropertyCallbackInfo@X@Nan@@@Z 000000018001c9d0 f   CanvasRenderingContext2d.obj
 0001:0001bb60       ?get_current_transform@@YA?AV?$Local@VObject@v8@@@v8@@PEAVContext2d@@@Z 000000018001cb60 f   CanvasRenderingContext2d.obj
 0001:0001bd80       ?parse_matrix_from_object@@YAXAEAU_cairo_matrix@@V?$Local@VObject@v8@@@v8@@@Z 000000018001cd80 f   CanvasRenderingContext2d.obj
 0001:0001c410       ?GetCurrentTransform@Context2d@@SAXV?$Local@VString@v8@@@v8@@AEBV?$PropertyCallbackInfo@VValue@v8@@@Nan@@@Z 000000018001d410 f   CanvasRenderingContext2d.obj
 0001:0001c460       ?SetCurrentTransform@Context2d@@SAXV?$Local@VString@v8@@@v8@@V?$Local@VValue@v8@@@3@AEBV?$PropertyCallbackInfo@X@Nan@@@Z 000000018001d460 f   CanvasRenderingContext2d.obj
 0001:0001c5b0       ?GetFillStyle@Context2d@@SAXV?$Local@VString@v8@@@v8@@AEBV?$PropertyCallbackInfo@VValue@v8@@@Nan@@@Z 000000018001d5b0 f   CanvasRenderingContext2d.obj
 0001:0001c6a0       ?SetFillStyle@Context2d@@SAXV?$Local@VString@v8@@@v8@@V?$Local@VValue@v8@@@3@AEBV?$PropertyCallbackInfo@X@Nan@@@Z 000000018001d6a0 f   CanvasRenderingContext2d.obj
 0001:0001c9f0       ?GetStrokeStyle@Context2d@@SAXV?$Local@VString@v8@@@v8@@AEBV?$PropertyCallbackInfo@VValue@v8@@@Nan@@@Z 000000018001d9f0 f   CanvasRenderingContext2d.obj
 0001:0001caf0       ?SetStrokeStyle@Context2d@@SAXV?$Local@VString@v8@@@v8@@V?$Local@VValue@v8@@@3@AEBV?$PropertyCallbackInfo@X@Nan@@@Z 000000018001daf0 f   CanvasRenderingContext2d.obj
 0001:0001ce40       ?GetMiterLimit@Context2d@@SAXV?$Local@VString@v8@@@v8@@AEBV?$PropertyCallbackInfo@VValue@v8@@@Nan@@@Z 000000018001de40 f   CanvasRenderingContext2d.obj
 0001:0001cec0       ?SetMiterLimit@Context2d@@SAXV?$Local@VString@v8@@@v8@@V?$Local@VValue@v8@@@3@AEBV?$PropertyCallbackInfo@X@Nan@@@Z 000000018001dec0 f   CanvasRenderingContext2d.obj
 0001:0001cf80       ?GetLineWidth@Context2d@@SAXV?$Local@VString@v8@@@v8@@AEBV?$PropertyCallbackInfo@VValue@v8@@@Nan@@@Z 000000018001df80 f   CanvasRenderingContext2d.obj
 0001:0001d000       ?SetLineWidth@Context2d@@SAXV?$Local@VString@v8@@@v8@@V?$Local@VValue@v8@@@3@AEBV?$PropertyCallbackInfo@X@Nan@@@Z 000000018001e000 f   CanvasRenderingContext2d.obj
 0001:0001d0d0       ?GetLineJoin@Context2d@@SAXV?$Local@VString@v8@@@v8@@AEBV?$PropertyCallbackInfo@VValue@v8@@@Nan@@@Z 000000018001e0d0 f   CanvasRenderingContext2d.obj
 0001:0001d190       ?SetLineJoin@Context2d@@SAXV?$Local@VString@v8@@@v8@@V?$Local@VValue@v8@@@3@AEBV?$PropertyCallbackInfo@X@Nan@@@Z 000000018001e190 f   CanvasRenderingContext2d.obj
 0001:0001d2d0       ?GetLineCap@Context2d@@SAXV?$Local@VString@v8@@@v8@@AEBV?$PropertyCallbackInfo@VValue@v8@@@Nan@@@Z 000000018001e2d0 f   CanvasRenderingContext2d.obj
 0001:0001d390       ?SetLineCap@Context2d@@SAXV?$Local@VString@v8@@@v8@@V?$Local@VValue@v8@@@3@AEBV?$PropertyCallbackInfo@X@Nan@@@Z 000000018001e390 f   CanvasRenderingContext2d.obj
 0001:0001d4d0       ?IsPointInPath@Context2d@@SAXAEBV?$FunctionCallbackInfo@VValue@v8@@@Nan@@@Z 000000018001e4d0 f   CanvasRenderingContext2d.obj
 0001:0001d720       ?SetShadowColor@Context2d@@SAXV?$Local@VString@v8@@@v8@@V?$Local@VValue@v8@@@3@AEBV?$PropertyCallbackInfo@X@Nan@@@Z 000000018001e720 f   CanvasRenderingContext2d.obj
 0001:0001d890       ?GetShadowColor@Context2d@@SAXV?$Local@VString@v8@@@v8@@AEBV?$PropertyCallbackInfo@VValue@v8@@@Nan@@@Z 000000018001e890 f   CanvasRenderingContext2d.obj
 0001:0001d960       ?CreatePattern@Context2d@@SAXAEBV?$FunctionCallbackInfo@VValue@v8@@@Nan@@@Z 000000018001e960 f   CanvasRenderingContext2d.obj
 0001:0001db90       ?CreateLinearGradient@Context2d@@SAXAEBV?$FunctionCallbackInfo@VValue@v8@@@Nan@@@Z 000000018001eb90 f   CanvasRenderingContext2d.obj
 0001:0001dda0       ?CreateRadialGradient@Context2d@@SAXAEBV?$FunctionCallbackInfo@VValue@v8@@@Nan@@@Z 000000018001eda0 f   CanvasRenderingContext2d.obj
 0001:0001e000       ?BezierCurveTo@Context2d@@SAXAEBV?$FunctionCallbackInfo@VValue@v8@@@Nan@@@Z 000000018001f000 f   CanvasRenderingContext2d.obj
 0001:0001e090       ?QuadraticCurveTo@Context2d@@SAXAEBV?$FunctionCallbackInfo@VValue@v8@@@Nan@@@Z 000000018001f090 f   CanvasRenderingContext2d.obj
 0001:0001e1f0       ?Save@Context2d@@SAXAEBV?$FunctionCallbackInfo@VValue@v8@@@Nan@@@Z 000000018001f1f0 f   CanvasRenderingContext2d.obj
 0001:0001e310       ?Restore@Context2d@@SAXAEBV?$FunctionCallbackInfo@VValue@v8@@@Nan@@@Z 000000018001f310 f   CanvasRenderingContext2d.obj
 0001:0001e3b0       ?BeginPath@Context2d@@SAXAEBV?$FunctionCallbackInfo@VValue@v8@@@Nan@@@Z 000000018001f3b0 f   CanvasRenderingContext2d.obj
 0001:0001e3e0       ?ClosePath@Context2d@@SAXAEBV?$FunctionCallbackInfo@VValue@v8@@@Nan@@@Z 000000018001f3e0 f   CanvasRenderingContext2d.obj
 0001:0001e410       ?Rotate@Context2d@@SAXAEBV?$FunctionCallbackInfo@VValue@v8@@@Nan@@@Z 000000018001f410 f   CanvasRenderingContext2d.obj
 0001:0001e460       ?Transform@Context2d@@SAXAEBV?$FunctionCallbackInfo@VValue@v8@@@Nan@@@Z 000000018001f460 f   CanvasRenderingContext2d.obj
 0001:0001e510       ?GetTransform@Context2d@@SAXAEBV?$FunctionCallbackInfo@VValue@v8@@@Nan@@@Z 000000018001f510 f   CanvasRenderingContext2d.obj
 0001:0001e570       ?ResetTransform@Context2d@@SAXAEBV?$FunctionCallbackInfo@VValue@v8@@@Nan@@@Z 000000018001f570 f   CanvasRenderingContext2d.obj
 0001:0001e5a0       ?SetTransform@Context2d@@SAXAEBV?$FunctionCallbackInfo@VValue@v8@@@Nan@@@Z 000000018001f5a0 f   CanvasRenderingContext2d.obj
 0001:0001e720       ?Translate@Context2d@@SAXAEBV?$FunctionCallbackInfo@VValue@v8@@@Nan@@@Z 000000018001f720 f   CanvasRenderingContext2d.obj
 0001:0001e780       ?Scale@Context2d@@SAXAEBV?$FunctionCallbackInfo@VValue@v8@@@Nan@@@Z 000000018001f780 f   CanvasRenderingContext2d.obj
 0001:0001e7e0       ?Clip@Context2d@@SAXAEBV?$FunctionCallbackInfo@VValue@v8@@@Nan@@@Z 000000018001f7e0 f   CanvasRenderingContext2d.obj
 0001:0001e840       ?Fill@Context2d@@SAXAEBV?$FunctionCallbackInfo@VValue@v8@@@Nan@@@Z 000000018001f840 f   CanvasRenderingContext2d.obj
 0001:0001e8a0       ?Stroke@Context2d@@SAXAEBV?$FunctionCallbackInfo@VValue@v8@@@Nan@@@Z 000000018001f8a0 f   CanvasRenderingContext2d.obj
 0001:0001e8d0       ?paintText@@YAXAEBV?$FunctionCallbackInfo@VValue@v8@@@Nan@@_N@Z 000000018001f8d0 f   CanvasRenderingContext2d.obj
 0001:0001ebc0       ?FillText@Context2d@@SAXAEBV?$FunctionCallbackInfo@VValue@v8@@@Nan@@@Z 000000018001fbc0 f   CanvasRenderingContext2d.obj
 0001:0001ebd0       ?StrokeText@Context2d@@SAXAEBV?$FunctionCallbackInfo@VValue@v8@@@Nan@@@Z 000000018001fbd0 f   CanvasRenderingContext2d.obj
 0001:0001ebe0       ?getBaselineAdjustment@@YANPEAU_PangoLayout@@F@Z 000000018001fbe0 f i CanvasRenderingContext2d.obj
 0001:0001ec90       ?setTextPath@Context2d@@QEAAXNN@Z 000000018001fc90 f   CanvasRenderingContext2d.obj
 0001:0001eda0       ?LineTo@Context2d@@SAXAEBV?$FunctionCallbackInfo@VValue@v8@@@Nan@@@Z 000000018001fda0 f   CanvasRenderingContext2d.obj
 0001:0001ee00       ?MoveTo@Context2d@@SAXAEBV?$FunctionCallbackInfo@VValue@v8@@@Nan@@@Z 000000018001fe00 f   CanvasRenderingContext2d.obj
 0001:0001ee60       ?GetFont@Context2d@@SAXV?$Local@VString@v8@@@v8@@AEBV?$PropertyCallbackInfo@VValue@v8@@@Nan@@@Z 000000018001fe60 f   CanvasRenderingContext2d.obj
 0001:0001ef10       ?SetFont@Context2d@@SAXV?$Local@VString@v8@@@v8@@V?$Local@VValue@v8@@@3@AEBV?$PropertyCallbackInfo@X@Nan@@@Z 000000018001ff10 f   CanvasRenderingContext2d.obj
 0001:0001f800       ?GetTextBaseline@Context2d@@SAXV?$Local@VString@v8@@@v8@@AEBV?$PropertyCallbackInfo@VValue@v8@@@Nan@@@Z 0000000180020800 f   CanvasRenderingContext2d.obj
 0001:0001f8b0       ?SetTextBaseline@Context2d@@SAXV?$Local@VString@v8@@@v8@@V?$Local@VValue@v8@@@3@AEBV?$PropertyCallbackInfo@X@Nan@@@Z 00000001800208b0 f   CanvasRenderingContext2d.obj
 0001:0001fd10       ?GetTextAlign@Context2d@@SAXV?$Local@VString@v8@@@v8@@AEBV?$PropertyCallbackInfo@VValue@v8@@@Nan@@@Z 0000000180020d10 f   CanvasRenderingContext2d.obj
 0001:0001fdc0       ?SetTextAlign@Context2d@@SAXV?$Local@VString@v8@@@v8@@V?$Local@VValue@v8@@@3@AEBV?$PropertyCallbackInfo@X@Nan@@@Z 0000000180020dc0 f   CanvasRenderingContext2d.obj
 0001:000201f0       ?MeasureText@Context2d@@SAXAEBV?$FunctionCallbackInfo@VValue@v8@@@Nan@@@Z 00000001800211f0 f   CanvasRenderingContext2d.obj
 0001:00020aa0       ?SetLineDash@Context2d@@SAXAEBV?$FunctionCallbackInfo@VValue@v8@@@Nan@@@Z 0000000180021aa0 f   CanvasRenderingContext2d.obj
 0001:00020db0       ?GetLineDash@Context2d@@SAXAEBV?$FunctionCallbackInfo@VValue@v8@@@Nan@@@Z 0000000180021db0 f   CanvasRenderingContext2d.obj
 0001:00021050       ?SetLineDashOffset@Context2d@@SAXV?$Local@VString@v8@@@v8@@V?$Local@VValue@v8@@@3@AEBV?$PropertyCallbackInfo@X@Nan@@@Z 0000000180022050 f   CanvasRenderingContext2d.obj
 0001:00021200       ?GetLineDashOffset@Context2d@@SAXV?$Local@VString@v8@@@v8@@AEBV?$PropertyCallbackInfo@VValue@v8@@@Nan@@@Z 0000000180022200 f   CanvasRenderingContext2d.obj
 0001:00021290       ?FillRect@Context2d@@SAXAEBV?$FunctionCallbackInfo@VValue@v8@@@Nan@@@Z 0000000180022290 f   CanvasRenderingContext2d.obj
 0001:000213b0       ?StrokeRect@Context2d@@SAXAEBV?$FunctionCallbackInfo@VValue@v8@@@Nan@@@Z 00000001800223b0 f   CanvasRenderingContext2d.obj
 0001:000214c0       ?ClearRect@Context2d@@SAXAEBV?$FunctionCallbackInfo@VValue@v8@@@Nan@@@Z 00000001800224c0 f   CanvasRenderingContext2d.obj
 0001:00021600       ?Rect@Context2d@@SAXAEBV?$FunctionCallbackInfo@VValue@v8@@@Nan@@@Z 0000000180022600 f   CanvasRenderingContext2d.obj
 0001:00021c50       ?RoundRect@Context2d@@SAXAEBV?$FunctionCallbackInfo@VValue@v8@@@Nan@@@Z 0000000180022c50 f   CanvasRenderingContext2d.obj
 0001:00022500       ?Arc@Context2d@@SAXAEBV?$FunctionCallbackInfo@VValue@v8@@@Nan@@@Z 0000000180023500 f   CanvasRenderingContext2d.obj
 0001:000227c0       ?ArcTo@Context2d@@SAXAEBV?$FunctionCallbackInfo@VValue@v8@@@Nan@@@Z 00000001800237c0 f   CanvasRenderingContext2d.obj
 0001:00022d80       ?Ellipse@Context2d@@SAXAEBV?$FunctionCallbackInfo@VValue@v8@@@Nan@@@Z 0000000180023d80 f   CanvasRenderingContext2d.obj
 0001:00022fc0       ??0?$map@V?$basic_string@DU?$char_traits@D@std@@V?$allocator@D@2@@std@@HU?$less@V?$basic_string@DU?$char_traits@D@std@@V?$allocator@D@2@@std@@@2@V?$allocator@U?$pair@$$CBV?$basic_string@DU?$char_traits@D@std@@V?$allocator@D@2@@std@@H@std@@@2@@std@@QEAA@V?$initializer_list@U?$pair@$$CBV?$basic_string@DU?$char_traits@D@std@@V?$allocator@D@2@@std@@H@std@@@1@@Z 0000000180023fc0 f i CanvasRenderingContext2d.obj
 0001:00023110       ??1?$vector@NV?$allocator@N@std@@@std@@QEAA@XZ 0000000180024110 f i CanvasRenderingContext2d.obj
 0001:00023170       ??$_Erase_tree@V?$allocator@U?$_Tree_node@U?$pair@$$CBV?$basic_string@DU?$char_traits@D@std@@V?$allocator@D@2@@std@@I@std@@PEAX@std@@@std@@@?$_Tree_val@U?$_Tree_simple_types@U?$pair@$$CBV?$basic_string@DU?$char_traits@D@std@@V?$allocator@D@2@@std@@I@std@@@std@@@std@@QEAAXAEAV?$allocator@U?$_Tree_node@U?$pair@$$CBV?$basic_string@DU?$char_traits@D@std@@V?$allocator@D@2@@std@@I@std@@PEAX@std@@@1@PEAU?$_Tree_node@U?$pair@$$CBV?$basic_string@DU?$char_traits@D@std@@V?$allocator@D@2@@std@@I@std@@PEAX@1@@Z 0000000180024170 f i color.obj
 0001:00023170       ??$_Erase_tree@V?$allocator@U?$_Tree_node@U?$pair@$$CBV?$basic_string@DU?$char_traits@D@std@@V?$allocator@D@2@@std@@H@std@@PEAX@std@@@std@@@?$_Tree_val@U?$_Tree_simple_types@U?$pair@$$CBV?$basic_string@DU?$char_traits@D@std@@V?$allocator@D@2@@std@@H@std@@@std@@@std@@QEAAXAEAV?$allocator@U?$_Tree_node@U?$pair@$$CBV?$basic_string@DU?$char_traits@D@std@@V?$allocator@D@2@@std@@H@std@@PEAX@std@@@1@PEAU?$_Tree_node@U?$pair@$$CBV?$basic_string@DU?$char_traits@D@std@@V?$allocator@D@2@@std@@H@std@@PEAX@1@@Z 0000000180024170 f i CanvasRenderingContext2d.obj
 0001:00023170       ??$_Erase_tree@V?$allocator@U?$_Tree_node@U?$pair@$$CBV?$basic_string@DU?$char_traits@D@std@@V?$allocator@D@2@@std@@W4_cairo_operator@@@std@@PEAX@std@@@std@@@?$_Tree_val@U?$_Tree_simple_types@U?$pair@$$CBV?$basic_string@DU?$char_traits@D@std@@V?$allocator@D@2@@std@@W4_cairo_operator@@@std@@@std@@@std@@QEAAXAEAV?$allocator@U?$_Tree_node@U?$pair@$$CBV?$basic_string@DU?$char_traits@D@std@@V?$allocator@D@2@@std@@W4_cairo_operator@@@std@@PEAX@std@@@1@PEAU?$_Tree_node@U?$pair@$$CBV?$basic_string@DU?$char_traits@D@std@@V?$allocator@D@2@@std@@W4_cairo_operator@@@std@@PEAX@1@@Z 0000000180024170 f i CanvasRenderingContext2d.obj
 0001:00023230       ?_Insert_node@?$_Tree_val@U?$_Tree_simple_types@U?$pair@$$CBV?$basic_string@DU?$char_traits@D@std@@V?$allocator@D@2@@std@@I@std@@@std@@@std@@QEAAPEAU?$_Tree_node@U?$pair@$$CBV?$basic_string@DU?$char_traits@D@std@@V?$allocator@D@2@@std@@I@std@@PEAX@2@U?$_Tree_id@PEAU?$_Tree_node@U?$pair@$$CBV?$basic_string@DU?$char_traits@D@std@@V?$allocator@D@2@@std@@I@std@@PEAX@std@@@2@QEAU32@@Z 0000000180024230 f i color.obj
 0001:00023230       ?_Insert_node@?$_Tree_val@U?$_Tree_simple_types@U?$pair@$$CBV?$basic_string@DU?$char_traits@D@std@@V?$allocator@D@2@@std@@H@std@@@std@@@std@@QEAAPEAU?$_Tree_node@U?$pair@$$CBV?$basic_string@DU?$char_traits@D@std@@V?$allocator@D@2@@std@@H@std@@PEAX@2@U?$_Tree_id@PEAU?$_Tree_node@U?$pair@$$CBV?$basic_string@DU?$char_traits@D@std@@V?$allocator@D@2@@std@@H@std@@PEAX@std@@@2@QEAU32@@Z 0000000180024230 f i CanvasRenderingContext2d.obj
 0001:00023230       ?_Insert_node@?$_Tree_val@U?$_Tree_simple_types@U?$pair@$$CBV?$basic_string@DU?$char_traits@D@std@@V?$allocator@D@2@@std@@W4_cairo_operator@@@std@@@std@@@std@@QEAAPEAU?$_Tree_node@U?$pair@$$CBV?$basic_string@DU?$char_traits@D@std@@V?$allocator@D@2@@std@@W4_cairo_operator@@@std@@PEAX@2@U?$_Tree_id@PEAU?$_Tree_node@U?$pair@$$CBV?$basic_string@DU?$char_traits@D@std@@V?$allocator@D@2@@std@@W4_cairo_operator@@@std@@PEAX@std@@@2@QEAU32@@Z 0000000180024230 f i CanvasRenderingContext2d.obj
 0001:000234b0       ??1?$_Alloc_construct_ptr@V?$allocator@U?$_Tree_node@U?$pair@$$CBV?$basic_string@DU?$char_traits@D@std@@V?$allocator@D@2@@std@@H@std@@PEAX@std@@@std@@@std@@QEAA@XZ 00000001800244b0 f i CanvasRenderingContext2d.obj
 0001:000234b0       ??1?$_Alloc_construct_ptr@V?$allocator@U?$_Tree_node@U?$pair@$$CBV?$basic_string@DU?$char_traits@D@std@@V?$allocator@D@2@@std@@W4_cairo_operator@@@std@@PEAX@std@@@std@@@std@@QEAA@XZ 00000001800244b0 f i CanvasRenderingContext2d.obj
 0001:000234b0       ??1?$_Tree_temp_node_alloc@V?$allocator@U?$_Tree_node@U?$pair@$$CBV?$basic_string@DU?$char_traits@D@std@@V?$allocator@D@2@@std@@I@std@@PEAX@std@@@std@@@std@@QEAA@XZ 00000001800244b0 f i color.obj
 0001:000234b0       ??1?$_Tree_temp_node_alloc@V?$allocator@U?$_Tree_node@U?$pair@$$CBV?$basic_string@DU?$char_traits@D@std@@V?$allocator@D@2@@std@@W4_cairo_operator@@@std@@PEAX@std@@@std@@@std@@QEAA@XZ 00000001800244b0 f i CanvasRenderingContext2d.obj
 0001:000234b0       ??1?$_Tree_temp_node_alloc@V?$allocator@U?$_Tree_node@U?$pair@$$CBV?$basic_string@DU?$char_traits@D@std@@V?$allocator@D@2@@std@@H@std@@PEAX@std@@@std@@@std@@QEAA@XZ 00000001800244b0 f i CanvasRenderingContext2d.obj
 0001:000234b0       ??1?$_Alloc_construct_ptr@V?$allocator@U?$_Tree_node@U?$pair@$$CBV?$basic_string@DU?$char_traits@D@std@@V?$allocator@D@2@@std@@I@std@@PEAX@std@@@std@@@std@@QEAA@XZ 00000001800244b0 f i color.obj
 0001:000234d0       ??$_Find_hint@V?$basic_string@DU?$char_traits@D@std@@V?$allocator@D@2@@std@@@?$_Tree@V?$_Tmap_traits@V?$basic_string@DU?$char_traits@D@std@@V?$allocator@D@2@@std@@HU?$less@V?$basic_string@DU?$char_traits@D@std@@V?$allocator@D@2@@std@@@2@V?$allocator@U?$pair@$$CBV?$basic_string@DU?$char_traits@D@std@@V?$allocator@D@2@@std@@H@std@@@2@$0A@@std@@@std@@IEBA?AU?$_Tree_find_hint_result@PEAU?$_Tree_node@U?$pair@$$CBV?$basic_string@DU?$char_traits@D@std@@V?$allocator@D@2@@std@@H@std@@PEAX@std@@@1@QEAU?$_Tree_node@U?$pair@$$CBV?$basic_string@DU?$char_traits@D@std@@V?$allocator@D@2@@std@@H@std@@PEAX@1@AEBV?$basic_string@DU?$char_traits@D@std@@V?$allocator@D@2@@1@@Z 00000001800244d0 f i CanvasRenderingContext2d.obj
 0001:000234d0       ??$_Find_hint@V?$basic_string@DU?$char_traits@D@std@@V?$allocator@D@2@@std@@@?$_Tree@V?$_Tmap_traits@V?$basic_string@DU?$char_traits@D@std@@V?$allocator@D@2@@std@@W4_cairo_operator@@U?$less@V?$basic_string@DU?$char_traits@D@std@@V?$allocator@D@2@@std@@@2@V?$allocator@U?$pair@$$CBV?$basic_string@DU?$char_traits@D@std@@V?$allocator@D@2@@std@@W4_cairo_operator@@@std@@@2@$0A@@std@@@std@@IEBA?AU?$_Tree_find_hint_result@PEAU?$_Tree_node@U?$pair@$$CBV?$basic_string@DU?$char_traits@D@std@@V?$allocator@D@2@@std@@W4_cairo_operator@@@std@@PEAX@std@@@1@QEAU?$_Tree_node@U?$pair@$$CBV?$basic_string@DU?$char_traits@D@std@@V?$allocator@D@2@@std@@W4_cairo_operator@@@std@@PEAX@1@AEBV?$basic_string@DU?$char_traits@D@std@@V?$allocator@D@2@@1@@Z 00000001800244d0 f i CanvasRenderingContext2d.obj
 0001:00023910       ?init_destination@JpegClosure@@SAXPEAUjpeg_compress_struct@@@Z 0000000180024910 f   closure.obj
 0001:00023950       ?empty_output_buffer@JpegClosure@@SAEPEAUjpeg_compress_struct@@@Z 0000000180024950 f   closure.obj
 0001:00023a00       ?term_destination@JpegClosure@@SAXPEAUjpeg_compress_struct@@@Z 0000000180024a00 f   closure.obj
 0001:00023a20       ?resize@?$vector@EV?$allocator@E@std@@@std@@QEAAX_K@Z 0000000180024a20 f i closure.obj
 0001:00023b70       __local_stdio_printf_options 0000000180024b70 f i color.obj
 0001:00023b80       snprintf                   0000000180024b80 f i color.obj
 0001:00023c70       ?rgba_to_string@@YAXUrgba_t@@PEAD_K@Z 0000000180024c70 f   color.obj
 0001:00024ae0       ?rgba_from_string@@YAHPEBDPEAF@Z 0000000180025ae0 f   color.obj
 0001:00024d30       ??0?$map@V?$basic_string@DU?$char_traits@D@std@@V?$allocator@D@2@@std@@IU?$less@V?$basic_string@DU?$char_traits@D@std@@V?$allocator@D@2@@std@@@2@V?$allocator@U?$pair@$$CBV?$basic_string@DU?$char_traits@D@std@@V?$allocator@D@2@@std@@I@std@@@2@@std@@QEAA@V?$initializer_list@U?$pair@$$CBV?$basic_string@DU?$char_traits@D@std@@V?$allocator@D@2@@std@@I@std@@@1@@Z 0000000180025d30 f i color.obj
 0001:00025080       ??$?0AEAY0N@$$CBDI$0A@@?$pair@$$CBV?$basic_string@DU?$char_traits@D@std@@V?$allocator@D@2@@std@@I@std@@QEAA@AEAY0N@$$CBD$$QEAI@Z 0000000180026080 f i color.obj
 0001:00025080       ??$?0AEAY04$$CBDI$0A@@?$pair@$$CBV?$basic_string@DU?$char_traits@D@std@@V?$allocator@D@2@@std@@I@std@@QEAA@AEAY04$$CBD$$QEAI@Z 0000000180026080 f i color.obj
 0001:00025080       ??$?0AEAY04$$CBDH$0A@@?$pair@$$CBV?$basic_string@DU?$char_traits@D@std@@V?$allocator@D@2@@std@@I@std@@QEAA@AEAY04$$CBD$$QEAH@Z 0000000180026080 f i color.obj
 0001:00025080       ??$?0AEAY09$$CBDH$0A@@?$pair@$$CBV?$basic_string@DU?$char_traits@D@std@@V?$allocator@D@2@@std@@I@std@@QEAA@AEAY09$$CBD$$QEAH@Z 0000000180026080 f i color.obj
 0001:00025080       ??$?0AEAY0BA@$$CBDH$0A@@?$pair@$$CBV?$basic_string@DU?$char_traits@D@std@@V?$allocator@D@2@@std@@I@std@@QEAA@AEAY0BA@$$CBD$$QEAH@Z 0000000180026080 f i color.obj
 0001:00025080       ??$?0AEAY08$$CBDI$0A@@?$pair@$$CBV?$basic_string@DU?$char_traits@D@std@@V?$allocator@D@2@@std@@I@std@@QEAA@AEAY08$$CBD$$QEAI@Z 0000000180026080 f i color.obj
 0001:00025080       ??$?0AEAY06$$CBDI$0A@@?$pair@$$CBV?$basic_string@DU?$char_traits@D@std@@V?$allocator@D@2@@std@@I@std@@QEAA@AEAY06$$CBD$$QEAI@Z 0000000180026080 f i color.obj
 0001:00025080       ??$?0AEAY0L@$$CBDH$0A@@?$pair@$$CBV?$basic_string@DU?$char_traits@D@std@@V?$allocator@D@2@@std@@I@std@@QEAA@AEAY0L@$$CBD$$QEAH@Z 0000000180026080 f i color.obj
 0001:00025080       ??$?0AEAY09$$CBDI$0A@@?$pair@$$CBV?$basic_string@DU?$char_traits@D@std@@V?$allocator@D@2@@std@@I@std@@QEAA@AEAY09$$CBD$$QEAI@Z 0000000180026080 f i color.obj
 0001:00025080       ??$?0AEAY0L@$$CBDI$0A@@?$pair@$$CBV?$basic_string@DU?$char_traits@D@std@@V?$allocator@D@2@@std@@I@std@@QEAA@AEAY0L@$$CBD$$QEAI@Z 0000000180026080 f i color.obj
 0001:00025080       ??$?0AEAY0O@$$CBDH$0A@@?$pair@$$CBV?$basic_string@DU?$char_traits@D@std@@V?$allocator@D@2@@std@@I@std@@QEAA@AEAY0O@$$CBD$$QEAH@Z 0000000180026080 f i color.obj
 0001:00025080       ??$?0AEAY0M@$$CBDI$0A@@?$pair@$$CBV?$basic_string@DU?$char_traits@D@std@@V?$allocator@D@2@@std@@I@std@@QEAA@AEAY0M@$$CBD$$QEAI@Z 0000000180026080 f i color.obj
 0001:00025080       ??$?0AEAY08$$CBDH$0A@@?$pair@$$CBV?$basic_string@DU?$char_traits@D@std@@V?$allocator@D@2@@std@@I@std@@QEAA@AEAY08$$CBD$$QEAH@Z 0000000180026080 f i color.obj
 0001:00025080       ??$?0AEAY03$$CBDI$0A@@?$pair@$$CBV?$basic_string@DU?$char_traits@D@std@@V?$allocator@D@2@@std@@I@std@@QEAA@AEAY03$$CBD$$QEAI@Z 0000000180026080 f i color.obj
 0001:00025080       ??$?0AEAY07$$CBDI$0A@@?$pair@$$CBV?$basic_string@DU?$char_traits@D@std@@V?$allocator@D@2@@std@@I@std@@QEAA@AEAY07$$CBD$$QEAI@Z 0000000180026080 f i color.obj
 0001:00025080       ??$?0AEAY0O@$$CBDI$0A@@?$pair@$$CBV?$basic_string@DU?$char_traits@D@std@@V?$allocator@D@2@@std@@I@std@@QEAA@AEAY0O@$$CBD$$QEAI@Z 0000000180026080 f i color.obj
 0001:00025080       ??$?0AEAY05$$CBDI$0A@@?$pair@$$CBV?$basic_string@DU?$char_traits@D@std@@V?$allocator@D@2@@std@@I@std@@QEAA@AEAY05$$CBD$$QEAI@Z 0000000180026080 f i color.obj
 0001:00025080       ??$?0AEAY0P@$$CBDH$0A@@?$pair@$$CBV?$basic_string@DU?$char_traits@D@std@@V?$allocator@D@2@@std@@I@std@@QEAA@AEAY0P@$$CBD$$QEAH@Z 0000000180026080 f i color.obj
 0001:00025080       ??$?0AEAY0M@$$CBDH$0A@@?$pair@$$CBV?$basic_string@DU?$char_traits@D@std@@V?$allocator@D@2@@std@@I@std@@QEAA@AEAY0M@$$CBD$$QEAH@Z 0000000180026080 f i color.obj
 0001:000250e0       ??$?0AEAY0BB@$$CBDH$0A@@?$pair@$$CBV?$basic_string@DU?$char_traits@D@std@@V?$allocator@D@2@@std@@I@std@@QEAA@AEAY0BB@$$CBD$$QEAH@Z 00000001800260e0 f i color.obj
 0001:00025130       ??$?0AEAY0BC@$$CBDH$0A@@?$pair@$$CBV?$basic_string@DU?$char_traits@D@std@@V?$allocator@D@2@@std@@I@std@@QEAA@AEAY0BC@$$CBD$$QEAH@Z 0000000180026130 f i color.obj
 0001:00025180       ??$?0AEAY0BA@$$CBDI$0A@@?$pair@$$CBV?$basic_string@DU?$char_traits@D@std@@V?$allocator@D@2@@std@@I@std@@QEAA@AEAY0BA@$$CBD$$QEAI@Z 0000000180026180 f i color.obj
 0001:000251d0       ??$?0AEAY0N@$$CBDH$0A@@?$pair@$$CBV?$basic_string@DU?$char_traits@D@std@@V?$allocator@D@2@@std@@I@std@@QEAA@AEAY0N@$$CBD$$QEAH@Z 00000001800261d0 f i color.obj
 0001:00025220       ??$_Find_hint@V?$basic_string@DU?$char_traits@D@std@@V?$allocator@D@2@@std@@@?$_Tree@V?$_Tmap_traits@V?$basic_string@DU?$char_traits@D@std@@V?$allocator@D@2@@std@@IU?$less@V?$basic_string@DU?$char_traits@D@std@@V?$allocator@D@2@@std@@@2@V?$allocator@U?$pair@$$CBV?$basic_string@DU?$char_traits@D@std@@V?$allocator@D@2@@std@@I@std@@@2@$0A@@std@@@std@@IEBA?AU?$_Tree_find_hint_result@PEAU?$_Tree_node@U?$pair@$$CBV?$basic_string@DU?$char_traits@D@std@@V?$allocator@D@2@@std@@I@std@@PEAX@std@@@1@QEAU?$_Tree_node@U?$pair@$$CBV?$basic_string@DU?$char_traits@D@std@@V?$allocator@D@2@@std@@I@std@@PEAX@1@AEBV?$basic_string@DU?$char_traits@D@std@@V?$allocator@D@2@@1@@Z 0000000180026220 f i color.obj
 0001:00025670       ?Export@Nan@@YAXV?$Local@VObject@v8@@@v8@@PEBDP6AXAEBV?$FunctionCallbackInfo@VValue@v8@@@1@@Z@Z 0000000180026670 f i Image.obj
 0001:000257d0       ?Initialize@Image@@SAXV?$Local@VObject@v8@@@v8@@@Z 00000001800267d0 f   Image.obj
 0001:00025c90       ?New@Image@@SAXAEBV?$FunctionCallbackInfo@VValue@v8@@@Nan@@@Z 0000000180026c90 f   Image.obj
 0001:00025f30       ?GetComplete@Image@@SAXV?$Local@VString@v8@@@v8@@AEBV?$PropertyCallbackInfo@VValue@v8@@@Nan@@@Z 0000000180026f30 f   Image.obj
 0001:00025f70       ?GetDataMode@Image@@SAXV?$Local@VString@v8@@@v8@@AEBV?$PropertyCallbackInfo@VValue@v8@@@Nan@@@Z 0000000180026f70 f   Image.obj
 0001:00025ff0       ?SetDataMode@Image@@SAXV?$Local@VString@v8@@@v8@@V?$Local@VValue@v8@@@3@AEBV?$PropertyCallbackInfo@X@Nan@@@Z 0000000180026ff0 f   Image.obj
 0001:000260a0       ?GetNaturalWidth@Image@@SAXV?$Local@VString@v8@@@v8@@AEBV?$PropertyCallbackInfo@VValue@v8@@@Nan@@@Z 00000001800270a0 f   Image.obj
 0001:00026120       ?GetWidth@Image@@SAXV?$Local@VString@v8@@@v8@@AEBV?$PropertyCallbackInfo@VValue@v8@@@Nan@@@Z 0000000180027120 f   Image.obj
 0001:000261a0       ?SetWidth@Image@@SAXV?$Local@VString@v8@@@v8@@V?$Local@VValue@v8@@@3@AEBV?$PropertyCallbackInfo@X@Nan@@@Z 00000001800271a0 f   Image.obj
 0001:00026250       ?GetNaturalHeight@Image@@SAXV?$Local@VString@v8@@@v8@@AEBV?$PropertyCallbackInfo@VValue@v8@@@Nan@@@Z 0000000180027250 f   Image.obj
 0001:000262d0       ?GetHeight@Image@@SAXV?$Local@VString@v8@@@v8@@AEBV?$PropertyCallbackInfo@VValue@v8@@@Nan@@@Z 00000001800272d0 f   Image.obj
 0001:00026350       ?SetHeight@Image@@SAXV?$Local@VString@v8@@@v8@@V?$Local@VValue@v8@@@3@AEBV?$PropertyCallbackInfo@X@Nan@@@Z 0000000180027350 f   Image.obj
 0001:00026400       ?GetSource@Image@@SAXAEBV?$FunctionCallbackInfo@VValue@v8@@@Nan@@@Z 0000000180027400 f   Image.obj
 0001:000264f0       ?clearData@Image@@QEAAXXZ  00000001800274f0 f   Image.obj
 0001:00026580       ?SetSource@Image@@SAXAEBV?$FunctionCallbackInfo@VValue@v8@@@Nan@@@Z 0000000180027580 f   Image.obj
 0001:00026bf0       ??1CanvasError@@QEAA@XZ    0000000180027bf0 f i Image.obj
 0001:00026cf0       ?loadFromBuffer@Image@@QEAA?AW4_cairo_status@@PEAEI@Z 0000000180027cf0 f   Image.obj
 0001:00026ef0       ?readPNG@Image@@SA?AW4_cairo_status@@PEAXPEAEI@Z 0000000180027ef0 f   Image.obj
 0001:00026f30       ??_GImage@@EEAAPEAXI@Z     0000000180027f30 f i Image.obj
 0001:00026f30       ??_EImage@@EEAAPEAXI@Z     0000000180027f30 f i * CIL library *:* CIL module *
 0001:00026fb0       ?surface@Image@@QEAAPEAU_cairo_surface@@XZ 0000000180027fb0 f   Image.obj
 0001:000270b0       ?loadSurface@Image@@QEAA?AW4_cairo_status@@XZ 00000001800280b0 f   Image.obj
 0001:000274e0       ?read_gif_from_memory@@YAHPEAUGifFileType@@PEAEH@Z 00000001800284e0 f   Image.obj
 0001:00027530       ?loadGIFFromBuffer@Image@@QEAA?AW4_cairo_status@@PEAEI@Z 0000000180028530 f   Image.obj
 0001:00027ac0       ?jpegToARGB@Image@@QEAAXPEAUjpeg_decompress_struct@@PEAE1V?$function@$$A6AIPEAE@Z@std@@@Z 0000000180028ac0 f   Image.obj
 0001:00027bb0       ??1?$function@$$A6AIPEAE@Z@std@@QEAA@XZ 0000000180028bb0 f i Image.obj
 0001:00027be0       ?decodeJPEGIntoSurface@Image@@QEAA?AW4_cairo_status@@PEAUjpeg_decompress_struct@@@Z 0000000180028be0 f   Image.obj
 0001:00027dc0       ?decodeJPEGBufferIntoMimeSurface@Image@@QEAA?AW4_cairo_status@@PEAEI@Z 0000000180028dc0 f   Image.obj
 0001:00027f70       ?clearMimeData@@YAXPEAX@Z  0000000180028f70 f   Image.obj
 0001:00027fa0       ?assignDataAsMime@Image@@QEAA?AW4_cairo_status@@PEAEHPEBD@Z 0000000180028fa0 f   Image.obj
 0001:000280a0       ?loadJPEGFromBuffer@Image@@QEAA?AW4_cairo_status@@PEAEI@Z 00000001800290a0 f   Image.obj
 0001:000281a0       ?loadJPEG@Image@@QEAA?AW4_cairo_status@@PEAU_iobuf@@@Z 00000001800291a0 f   Image.obj
 0001:000282c0       ?loadSVGFromBuffer@Image@@QEAA?AW4_cairo_status@@PEAEI@Z 00000001800292c0 f   Image.obj
 0001:00028380       ?renderSVGToSurface@Image@@QEAA?AW4_cairo_status@@XZ 0000000180029380 f   Image.obj
 0001:000284b0       ?loadBMPFromBuffer@Image@@QEAA?AW4_cairo_status@@PEAEI@Z 00000001800294b0 f   Image.obj
 0001:000287a0       ?isSVG@Image@@SAHPEAEI@Z   00000001800297a0 f   Image.obj
 0001:00028820       ?isBMP@Image@@SAHPEAEI@Z   0000000180029820 f   Image.obj
 0001:00028b80       ??_GImageData@@UEAAPEAXI@Z 0000000180029b80 f i ImageData.obj
 0001:00028b80       ??_EImageData@@UEAAPEAXI@Z 0000000180029b80 f i * CIL library *:* CIL module *
 0001:00028be0       ?Initialize@ImageData@@SAXV?$Local@VObject@v8@@@v8@@@Z 0000000180029be0 f   ImageData.obj
 0001:00028e50       ?New@ImageData@@SAXAEBV?$FunctionCallbackInfo@VValue@v8@@@Nan@@@Z 0000000180029e50 f   ImageData.obj
 0001:000297d0       ?GetWidth@ImageData@@SAXV?$Local@VString@v8@@@v8@@AEBV?$PropertyCallbackInfo@VValue@v8@@@Nan@@@Z 000000018002a7d0 f   ImageData.obj
 0001:00029850       ?GetHeight@ImageData@@SAXV?$Local@VString@v8@@@v8@@AEBV?$PropertyCallbackInfo@VValue@v8@@@Nan@@@Z 000000018002a850 f   ImageData.obj
 0001:000298d0       ?init@@YAXV?$Local@VObject@v8@@@v8@@@Z 000000018002a8d0 f   init.obj
 0001:0002a0b0       ?get_family_name@@YAPEADPEAUFT_FaceRec_@@@Z 000000018002b0b0 f   register_font.obj
 0001:0002a330       ?get_pango_font_description@@YAPEAU_PangoFontDescription@@PEAE@Z 000000018002b330 f   register_font.obj
 0001:0002a6d4       __imp_load_?GetCurrentContext@Isolate@v8@@QEAA?AV?$Local@VContext@v8@@@2@XZ 000000018002b6d4 f   node:node.exe
 0001:0002a6e0       __tailMerge_node_exe       000000018002b6e0     node:node.exe
 0001:0002a759       __imp_load_?GetCurrent@Isolate@v8@@SAPEAV12@XZ 000000018002b759 f   node:node.exe
 0001:0002a765       __imp_load_??1HandleScope@v8@@QEAA@XZ 000000018002b765 f   node:node.exe
 0001:0002a771       ??1HandleScope@v8@@QEAA@XZ 000000018002b771 f   node:node.exe
 0001:0002a777       __imp_load_??0HandleScope@v8@@QEAA@PEAVIsolate@1@@Z 000000018002b777 f   node:node.exe
 0001:0002a783       __imp_load_?ClearWeak@V8@v8@@CAPEAXPEAPEAVObject@internal@2@@Z 000000018002b783 f   node:node.exe
 0001:0002a78f       __imp_load_?MakeWeak@V8@v8@@CAXPEAPEAVObject@internal@2@PEAXP6AXAEBV?$WeakCallbackInfo@X@2@@ZW4WeakCallbackType@2@@Z 000000018002b78f f   node:node.exe
 0001:0002a79b       __imp_load_?DisposeGlobal@V8@v8@@CAXPEAPEAVObject@internal@2@@Z 000000018002b79b f   node:node.exe
 0001:0002a7a7       __imp_load_?GlobalizeReference@V8@v8@@CAPEAPEAVObject@internal@2@PEAVIsolate@42@PEAPEAV342@@Z 000000018002b7a7 f   node:node.exe
 0001:0002a7b3       __imp_load_?Uint32Value@Value@v8@@QEBA?AV?$Maybe@I@2@V?$Local@VContext@v8@@@2@@Z 000000018002b7b3 f   node:node.exe
 0001:0002a7bf       __imp_load_?IsNumber@Value@v8@@QEBA_NXZ 000000018002b7bf f   node:node.exe
 0001:0002a7cb       __imp_load_?SetAlignedPointerInInternalField@Object@v8@@QEAAXHPEAX@Z 000000018002b7cb f   node:node.exe
 0001:0002a7d7       __imp_load_?InternalFieldCount@Object@v8@@QEAAHXZ 000000018002b7d7 f   node:node.exe
 0001:0002a7e3       __imp_load_?Value@External@v8@@QEBAPEAXXZ 000000018002b7e3 f   node:node.exe
 0001:0002a7ef       __imp_load_?New@External@v8@@SA?AV?$Local@VExternal@v8@@@2@PEAVIsolate@2@PEAX@Z 000000018002b7ef f   node:node.exe
 0001:0002a7fb       __imp_load_?CheckMemoryPressure@Isolate@v8@@AEAAXXZ 000000018002b7fb f   node:node.exe
 0001:0002a807       __imp_load_?ReportExternalAllocationLimitReached@Isolate@v8@@AEAAXXZ 000000018002b807 f   node:node.exe
 0001:0002a813       __imp_load_?CreateHandle@HandleScope@v8@@KAPEAPEAVObject@internal@2@PEAVIsolate@42@PEAV342@@Z 000000018002b813 f   node:node.exe
 0001:0002a81f       __imp_load_?CreateHandle@HandleScope@v8@@CAPEAPEAVObject@internal@2@PEAVHeapObject@42@PEAV342@@Z 000000018002b81f f   node:node.exe
 0001:0002a82b       __imp_load_?SetClassName@FunctionTemplate@v8@@QEAAXV?$Local@VString@v8@@@2@@Z 000000018002b82b f   node:node.exe
 0001:0002a837       __imp_load_?InstanceTemplate@FunctionTemplate@v8@@QEAA?AV?$Local@VObjectTemplate@v8@@@2@XZ 000000018002b837 f   node:node.exe
 0001:0002a843       __imp_load_?GetFunction@FunctionTemplate@v8@@QEAA?AV?$MaybeLocal@VFunction@v8@@@2@V?$Local@VContext@v8@@@2@@Z 000000018002b843 f   node:node.exe
 0001:0002a84f       __imp_load_?New@FunctionTemplate@v8@@SA?AV?$Local@VFunctionTemplate@v8@@@2@PEAVIsolate@2@P6AXAEBV?$FunctionCallbackInfo@VValue@v8@@@2@@ZV?$Local@VValue@v8@@@2@V?$Local@VSignature@v8@@@2@HW4ConstructorBehavior@2@W4SideEffectType@2@@Z 000000018002b84f f   node:node.exe
 0001:0002a85b       __imp_load_?ToLocalEmpty@V8@v8@@CAXXZ 000000018002b85b f   node:node.exe
 0001:0002a867       __imp_load_?Escape@EscapableHandleScope@v8@@AEAAPEAPEAVObject@internal@2@PEAPEAV342@@Z 000000018002b867 f   node:node.exe
 0001:0002a873       __imp_load_??0EscapableHandleScope@v8@@QEAA@PEAVIsolate@1@@Z 000000018002b873 f   node:node.exe
 0001:0002a87f       __imp_load_?NewFromUtf8@String@v8@@SA?AV?$MaybeLocal@VString@v8@@@2@PEAVIsolate@2@PEBDW4NewStringType@2@H@Z 000000018002b87f f   node:node.exe
 0001:0002a88b       __imp_load_?SlowGetInternalField@Object@v8@@AEAA?AV?$Local@VValue@v8@@@2@H@Z 000000018002b88b f   node:node.exe
 0001:0002a897       __imp_load_?SetInternalField@Object@v8@@QEAAXHV?$Local@VValue@v8@@@2@@Z 000000018002b897 f   node:node.exe
 0001:0002a8a3       __imp_load_?Set@Object@v8@@QEAA?AV?$Maybe@_N@2@V?$Local@VContext@v8@@@2@V?$Local@VValue@v8@@@2@1@Z 000000018002b8a3 f   node:node.exe
 0001:0002a8af       __imp_load_?SetInternalFieldCount@ObjectTemplate@v8@@QEAAXH@Z 000000018002b8af f   node:node.exe
 0001:0002a8bb       __imp_load_?NewInstance@ObjectTemplate@v8@@QEAA?AV?$MaybeLocal@VObject@v8@@@2@V?$Local@VContext@v8@@@2@@Z 000000018002b8bb f   node:node.exe
 0001:0002a8c7       __imp_load_?New@ObjectTemplate@v8@@SA?AV?$Local@VObjectTemplate@v8@@@2@PEAVIsolate@2@V?$Local@VFunctionTemplate@v8@@@2@@Z 000000018002b8c7 f   node:node.exe
 0001:0002a8d3       __imp_load_??1EscapableHandleScope@v8@@QEAA@XZ 000000018002b8d3 f   node:node.exe
 0001:0002a8df       ??1EscapableHandleScope@v8@@QEAA@XZ 000000018002b8df f   node:node.exe
 0001:0002a8e5       __imp_load_?New@Object@v8@@SA?AV?$Local@VObject@v8@@@2@PEAVIsolate@2@@Z 000000018002b8e5 f   node:node.exe
 0001:0002a8f1       __imp_load_uv_queue_work   000000018002b8f1 f   node:node.exe
 0001:0002a8fd       __imp_load_?GetIsolate@Context@v8@@QEAAPEAVIsolate@2@XZ 000000018002b8fd f   node:node.exe
 0001:0002a909       __imp_load_?Global@Context@v8@@QEAA?AV?$Local@VObject@v8@@@2@XZ 000000018002b909 f   node:node.exe
 0001:0002a915       __imp_load_?NewFromUnsigned@Integer@v8@@SA?AV?$Local@VInteger@v8@@@2@PEAVIsolate@2@I@Z 000000018002b915 f   node:node.exe
 0001:0002a921       __imp_load_?New@Signature@v8@@SA?AV?$Local@VSignature@v8@@@2@PEAVIsolate@2@V?$Local@VFunctionTemplate@v8@@@2@@Z 000000018002b921 f   node:node.exe
 0001:0002a92d       __imp_load_?ThrowException@Isolate@v8@@QEAA?AV?$Local@VValue@v8@@@2@V32@@Z 000000018002b92d f   node:node.exe
 0001:0002a939       __imp_load_?Length@TypedArray@v8@@QEAA_KXZ 000000018002b939 f   node:node.exe
 0001:0002a945       __imp_load_?Set@Template@v8@@QEAAXV?$Local@VName@v8@@@2@V?$Local@VData@v8@@@2@W4PropertyAttribute@2@@Z 000000018002b945 f   node:node.exe
 0001:0002a951       __imp_load_?ByteLength@ArrayBufferView@v8@@QEAA_KXZ 000000018002b951 f   node:node.exe
 0001:0002a95d       __imp_load_?ByteOffset@ArrayBufferView@v8@@QEAA_KXZ 000000018002b95d f   node:node.exe
 0001:0002a969       __imp_load_?Buffer@ArrayBufferView@v8@@QEAA?AV?$Local@VArrayBuffer@v8@@@2@XZ 000000018002b969 f   node:node.exe
 0001:0002a975       __imp_load_?Error@Exception@v8@@SA?AV?$Local@VValue@v8@@@2@V?$Local@VString@v8@@@2@@Z 000000018002b975 f   node:node.exe
 0001:0002a981       __imp_load_?TypeError@Exception@v8@@SA?AV?$Local@VValue@v8@@@2@V?$Local@VString@v8@@@2@@Z 000000018002b981 f   node:node.exe
 0001:0002a98d       __imp_load_?New@AccessorSignature@v8@@SA?AV?$Local@VAccessorSignature@v8@@@2@PEAVIsolate@2@V?$Local@VFunctionTemplate@v8@@@2@@Z 000000018002b98d f   node:node.exe
 0001:0002a999       __imp_load_?ValueOf@Date@v8@@QEBANXZ 000000018002b999 f   node:node.exe
 0001:0002a9a5       __imp_load_?HasInstance@FunctionTemplate@v8@@QEAA_NV?$Local@VValue@v8@@@2@@Z 000000018002b9a5 f   node:node.exe
 0001:0002a9b1       __imp_load_?PrototypeTemplate@FunctionTemplate@v8@@QEAA?AV?$Local@VObjectTemplate@v8@@@2@XZ 000000018002b9b1 f   node:node.exe
 0001:0002a9bd       __imp_load_?GetContents@ArrayBuffer@v8@@QEAA?AVContents@12@XZ 000000018002b9bd f   node:node.exe
 0001:0002a9c9       __imp_load_?StrictEquals@Value@v8@@QEBA_NV?$Local@VValue@v8@@@2@@Z 000000018002b9c9 f   node:node.exe
 0001:0002a9d5       __imp_load_?NumberValue@Value@v8@@QEBA?AV?$Maybe@N@2@V?$Local@VContext@v8@@@2@@Z 000000018002b9d5 f   node:node.exe
 0001:0002a9e1       __imp_load_?BooleanValue@Value@v8@@QEBA?AV?$Maybe@_N@2@V?$Local@VContext@v8@@@2@@Z 000000018002b9e1 f   node:node.exe
 0001:0002a9ed       __imp_load_?ToUint32@Value@v8@@QEBA?AV?$MaybeLocal@VUint32@v8@@@2@V?$Local@VContext@v8@@@2@@Z 000000018002b9ed f   node:node.exe
 0001:0002a9f9       __imp_load_?ToObject@Value@v8@@QEBA?AV?$MaybeLocal@VObject@v8@@@2@V?$Local@VContext@v8@@@2@@Z 000000018002b9f9 f   node:node.exe
 0001:0002aa05       __imp_load_?ToString@Value@v8@@QEBA?AV?$MaybeLocal@VString@v8@@@2@V?$Local@VContext@v8@@@2@@Z 000000018002ba05 f   node:node.exe
 0001:0002aa11       __imp_load_?IsUint8ClampedArray@Value@v8@@QEBA_NXZ 000000018002ba11 f   node:node.exe
 0001:0002aa1d       __imp_load_?IsArrayBufferView@Value@v8@@QEBA_NXZ 000000018002ba1d f   node:node.exe
 0001:0002aa29       __imp_load_?IsDate@Value@v8@@QEBA_NXZ 000000018002ba29 f   node:node.exe
 0001:0002aa35       __imp_load_?IsUint32@Value@v8@@QEBA_NXZ 000000018002ba35 f   node:node.exe
 0001:0002aa41       __imp_load_?IsBoolean@Value@v8@@QEBA_NXZ 000000018002ba41 f   node:node.exe
 0001:0002aa4d       __imp_load_?IsObject@Value@v8@@QEBA_NXZ 000000018002ba4d f   node:node.exe
 0001:0002aa59       __imp_load_?IsFunction@Value@v8@@QEBA_NXZ 000000018002ba59 f   node:node.exe
 0001:0002aa65       __imp_load_?ReThrow@TryCatch@v8@@QEAA?AV?$Local@VValue@v8@@@2@XZ 000000018002ba65 f   node:node.exe
 0001:0002aa71       __imp_load_?HasCaught@TryCatch@v8@@QEBA_NXZ 000000018002ba71 f   node:node.exe
 0001:0002aa7d       __imp_load_??1TryCatch@v8@@QEAA@XZ 000000018002ba7d f   node:node.exe
 0001:0002aa89       __imp_load_??0TryCatch@v8@@QEAA@PEAVIsolate@1@@Z 000000018002ba89 f   node:node.exe
 0001:0002aa95       __imp_load_?WriteUtf8@String@v8@@QEBAHPEADHPEAHH@Z 000000018002ba95 f   node:node.exe
 0001:0002aaa1       __imp_load_?Length@String@v8@@QEBAHXZ 000000018002baa1 f   node:node.exe
 0001:0002aaad       __imp_load_?New@Number@v8@@SA?AV?$Local@VNumber@v8@@@2@PEAVIsolate@2@N@Z 000000018002baad f   node:node.exe
 0001:0002aab9       __imp_load_?SlowGetAlignedPointerFromInternalField@Object@v8@@AEAAPEAXH@Z 000000018002bab9 f   node:node.exe
 0001:0002aac5       __imp_load_?Get@Object@v8@@QEAA?AV?$MaybeLocal@VValue@v8@@@2@V?$Local@VContext@v8@@@2@V?$Local@VValue@v8@@@2@@Z 000000018002bac5 f   node:node.exe
 0001:0002aad1       __imp_load_?Call@Function@v8@@QEAA?AV?$MaybeLocal@VValue@v8@@@2@V?$Local@VContext@v8@@@2@V?$Local@VValue@v8@@@2@HQEAV52@@Z 000000018002bad1 f   node:node.exe
 0001:0002aadd       __imp_load_?SetAccessor@ObjectTemplate@v8@@QEAAXV?$Local@VName@v8@@@2@P6AX0AEBV?$PropertyCallbackInfo@VValue@v8@@@2@@ZP6AX0V?$Local@VValue@v8@@@2@AEBV?$PropertyCallbackInfo@X@2@@Z3W4AccessControl@2@W4PropertyAttribute@2@V?$Local@VAccessorSignature@v8@@@2@@Z 000000018002badd f   node:node.exe
 0001:0002aae9       __imp_load_?EmitAsyncDestroy@node@@YAXPEAVIsolate@v8@@Uasync_context@1@@Z 000000018002bae9 f   node:node.exe
 0001:0002aaf5       __imp_load_?New@Buffer@node@@YA?AV?$MaybeLocal@VObject@v8@@@v8@@PEAVIsolate@4@PEAD_KP6AX1PEAX@Z3@Z 000000018002baf5 f   node:node.exe
 0001:0002ab01       __imp_load_?New@Buffer@node@@YA?AV?$MaybeLocal@VObject@v8@@@v8@@PEAVIsolate@4@PEAD_K@Z 000000018002bb01 f   node:node.exe
 0001:0002ab0d       __imp_load_?Copy@Buffer@node@@YA?AV?$MaybeLocal@VObject@v8@@@v8@@PEAVIsolate@4@PEBD_K@Z 000000018002bb0d f   node:node.exe
 0001:0002ab19       __imp_load_?MakeCallback@node@@YA?AV?$MaybeLocal@VValue@v8@@@v8@@PEAVIsolate@3@V?$Local@VObject@v8@@@3@V?$Local@VFunction@v8@@@3@HPEAV?$Local@VValue@v8@@@3@Uasync_context@1@@Z 000000018002bb19 f   node:node.exe
 0001:0002ab25       __imp_load_?EmitAsyncInit@node@@YA?AUasync_context@1@PEAVIsolate@v8@@V?$Local@VObject@v8@@@4@V?$Local@VString@v8@@@4@N@Z 000000018002bb25 f   node:node.exe
 0001:0002ab31       __imp_load_uv_default_loop 000000018002bb31 f   node:node.exe
 0001:0002ab3d       __imp_load_?FromJustIsNothing@V8@v8@@CAXXZ 000000018002bb3d f   node:node.exe
 0001:0002ab49       __imp_load_?InstanceOf@Value@v8@@QEAA?AV?$Maybe@_N@2@V?$Local@VContext@v8@@@2@V?$Local@VObject@v8@@@2@@Z 000000018002bb49 f   node:node.exe
 0001:0002ab55       __imp_load_?New@Function@v8@@SA?AV?$MaybeLocal@VFunction@v8@@@2@V?$Local@VContext@v8@@@2@P6AXAEBV?$FunctionCallbackInfo@VValue@v8@@@2@@ZV?$Local@VValue@v8@@@2@HW4ConstructorBehavior@2@W4SideEffectType@2@@Z 000000018002bb55 f   node:node.exe
 0001:0002ab61       __imp_load_?New@Uint8ClampedArray@v8@@SA?AV?$Local@VUint8ClampedArray@v8@@@2@V?$Local@VArrayBuffer@v8@@@2@_K1@Z 000000018002bb61 f   node:node.exe
 0001:0002ab6d       __imp_load_?New@Integer@v8@@SA?AV?$Local@VInteger@v8@@@2@PEAVIsolate@2@H@Z 000000018002bb6d f   node:node.exe
 0001:0002ab79       __imp_load_?RangeError@Exception@v8@@SA?AV?$Local@VValue@v8@@@2@V?$Local@VString@v8@@@2@@Z 000000018002bb79 f   node:node.exe
 0001:0002ab85       __imp_load_?New@Array@v8@@SA?AV?$Local@VArray@v8@@@2@PEAVIsolate@2@H@Z 000000018002bb85 f   node:node.exe
 0001:0002ab91       __imp_load_?Length@Array@v8@@QEBAIXZ 000000018002bb91 f   node:node.exe
 0001:0002ab9d       __imp_load_?New@ArrayBuffer@v8@@SA?AV?$Local@VArrayBuffer@v8@@@2@PEAVIsolate@2@_K@Z 000000018002bb9d f   node:node.exe
 0001:0002aba9       __imp_load_?Int32Value@Value@v8@@QEBA?AV?$Maybe@H@2@V?$Local@VContext@v8@@@2@@Z 000000018002bba9 f   node:node.exe
 0001:0002abb5       __imp_load_?ToInt32@Value@v8@@QEBA?AV?$MaybeLocal@VInt32@v8@@@2@V?$Local@VContext@v8@@@2@@Z 000000018002bbb5 f   node:node.exe
 0001:0002abc1       __imp_load_?IsArray@Value@v8@@QEBA_NXZ 000000018002bbc1 f   node:node.exe
 0001:0002abcd       __imp_load_?New@Float64Array@v8@@SA?AV?$Local@VFloat64Array@v8@@@2@V?$Local@VArrayBuffer@v8@@@2@_K1@Z 000000018002bbcd f   node:node.exe
 0001:0002abd9       __imp_load_?New@Uint16Array@v8@@SA?AV?$Local@VUint16Array@v8@@@2@V?$Local@VArrayBuffer@v8@@@2@_K1@Z 000000018002bbd9 f   node:node.exe
 0001:0002abe5       __imp_load_?Get@Object@v8@@QEAA?AV?$MaybeLocal@VValue@v8@@@2@V?$Local@VContext@v8@@@2@I@Z 000000018002bbe5 f   node:node.exe
 0001:0002abf1       __imp_load_?NewInstance@Function@v8@@QEBA?AV?$MaybeLocal@VObject@v8@@@2@V?$Local@VContext@v8@@@2@HQEAV?$Local@VValue@v8@@@2@@Z 000000018002bbf1 f   node:node.exe
 0001:0002abfd       __imp_load_?HasInstance@Buffer@node@@YA_NV?$Local@VValue@v8@@@v8@@@Z 000000018002bbfd f   node:node.exe
 0001:0002ac09       __imp_load_?Data@Buffer@node@@YAPEADV?$Local@VObject@v8@@@v8@@@Z 000000018002bc09 f   node:node.exe
 0001:0002ac15       __imp_load_?Length@Buffer@node@@YA_KV?$Local@VObject@v8@@@v8@@@Z 000000018002bc15 f   node:node.exe
 0001:0002ac21       __imp_load_?ErrnoException@node@@YA?AV?$Local@VValue@v8@@@v8@@PEAVIsolate@3@HPEBD11@Z 000000018002bc21 f   node:node.exe
 0001:0002ac2d       __imp_load_?IsUint16Array@Value@v8@@QEBA_NXZ 000000018002bc2d f   node:node.exe
 0001:0002ac39       __imp_load_node_module_register 000000018002bc39 f   node:node.exe
 0001:0002ac48       ??0bad_alloc@std@@QEAA@AEBV01@@Z 000000018002bc48 f i libcpmt:xthrow.obj
 0001:0002ac84       ??0bad_alloc@std@@QEAA@XZ  000000018002bc84 f i libcpmt:xthrow.obj
 0001:0002aca4       ??0bad_function_call@std@@QEAA@AEBV01@@Z 000000018002bca4 f i libcpmt:xthrow.obj
 0001:0002ace0       ??0bad_function_call@std@@QEAA@XZ 000000018002bce0 f i libcpmt:xthrow.obj
 0001:0002acf8       ??0exception@std@@QEAA@AEBV01@@Z 000000018002bcf8 f i libcpmt:xthrow.obj
 0001:0002ad2c       ??0length_error@std@@QEAA@AEBV01@@Z 000000018002bd2c f i libcpmt:xthrow.obj
 0001:0002ad68       ??0length_error@std@@QEAA@PEBD@Z 000000018002bd68 f i libcpmt:xthrow.obj
 0001:0002adb0       ??0logic_error@std@@QEAA@AEBV01@@Z 000000018002bdb0 f i libcpmt:xthrow.obj
 0001:0002adec       ??0runtime_error@std@@QEAA@AEBV01@@Z 000000018002bdec f i libcpmt:xthrow.obj
 0001:0002ae28       ??0runtime_error@std@@QEAA@PEBD@Z 000000018002be28 f i libcpmt:xthrow.obj
 0001:0002ae70       ??1bad_array_new_length@std@@UEAA@XZ 000000018002be70 f i libcpmt:locale.obj
 0001:0002ae70       ??1bad_alloc@std@@UEAA@XZ  000000018002be70 f i libcpmt:xthrow.obj
 0001:0002ae70       ??1bad_exception@std@@UEAA@XZ 000000018002be70 f i libvcruntime:frame.obj
 0001:0002ae70       ??1length_error@std@@UEAA@XZ 000000018002be70 f i libcpmt:xthrow.obj
 0001:0002ae70       ??1bad_function_call@std@@UEAA@XZ 000000018002be70 f i libcpmt:xthrow.obj
 0001:0002ae84       ??_Gbad_array_new_length@std@@UEAAPEAXI@Z 000000018002be84 f i libcpmt:locale.obj
 0001:0002ae84       ??_Elength_error@std@@UEAAPEAXI@Z 000000018002be84 f i libcpmt:xthrow.obj
 0001:0002ae84       ??_Elogic_error@std@@UEAAPEAXI@Z 000000018002be84 f i libcpmt:xthrow.obj
 0001:0002ae84       ??_Glogic_error@std@@UEAAPEAXI@Z 000000018002be84 f i libcpmt:xthrow.obj
 0001:0002ae84       ??_Glength_error@std@@UEAAPEAXI@Z 000000018002be84 f i libcpmt:xthrow.obj
 0001:0002ae84       ??_Ebad_array_new_length@std@@UEAAPEAXI@Z 000000018002be84 f i libcpmt:locale.obj
 0001:0002ae84       ??_Eexception@std@@UEAAPEAXI@Z 000000018002be84 f i libcpmt:xthrow.obj
 0001:0002ae84       ??_Ebad_exception@std@@UEAAPEAXI@Z 000000018002be84 f i libvcruntime:frame.obj
 0001:0002ae84       ??_Ebad_function_call@std@@UEAAPEAXI@Z 000000018002be84 f i libcpmt:xthrow.obj
 0001:0002ae84       ??_Gbad_function_call@std@@UEAAPEAXI@Z 000000018002be84 f i libcpmt:xthrow.obj
 0001:0002ae84       ??_Gbad_exception@std@@UEAAPEAXI@Z 000000018002be84 f i libvcruntime:frame.obj
 0001:0002ae84       ??_Ebad_alloc@std@@UEAAPEAXI@Z 000000018002be84 f i libcpmt:xthrow.obj
 0001:0002ae84       ??_Gexception@std@@UEAAPEAXI@Z 000000018002be84 f i libcpmt:xthrow.obj
 0001:0002ae84       ??_Gbad_alloc@std@@UEAAPEAXI@Z 000000018002be84 f i libcpmt:xthrow.obj
 0001:0002aec8       ?_Xbad_alloc@std@@YAXXZ    000000018002bec8 f   libcpmt:xthrow.obj
 0001:0002aec8       ?__scrt_throw_std_bad_alloc@@YAXXZ 000000018002bec8 f   LIBCMT:throw_bad_alloc.obj
 0001:0002aee8       ?_Xbad_function_call@std@@YAXXZ 000000018002bee8 f   libcpmt:xthrow.obj
 0001:0002af08       ?_Xlength_error@std@@YAXPEBD@Z 000000018002bf08 f   libcpmt:xthrow.obj
 0001:0002af2c       ?_Xruntime_error@std@@YAXPEBD@Z 000000018002bf2c f   libcpmt:xthrow.obj
 0001:0002af50       ?what@bad_function_call@std@@UEBAPEBDXZ 000000018002bf50 f i libcpmt:xthrow.obj
 0001:0002af58       ?what@exception@std@@UEBAPEBDXZ 000000018002bf58 f i libcpmt:xthrow.obj
 0001:0002af6c       ??0_Init_locks@std@@QEAA@XZ 000000018002bf6c f   libcpmt:xlock.obj
 0001:0002afb0       ??0_Lockit@std@@QEAA@H@Z   000000018002bfb0 f   libcpmt:xlock.obj
 0001:0002afec       ??1_Init_locks@std@@QEAA@XZ 000000018002bfec f   libcpmt:xlock.obj
 0001:0002b028       ??1_Lockit@std@@QEAA@XZ    000000018002c028 f   libcpmt:xlock.obj
 0001:0002b05c       ??0_Locimp@locale@std@@AEAA@_N@Z 000000018002c05c f i libcpmt:locale0.obj
 0001:0002b0e4       ??4?$_Yarn@D@std@@QEAAAEAV01@PEBD@Z 000000018002c0e4 f i libcpmt:locale0.obj
 0001:0002b15c       ??_E_Locimp@locale@std@@MEAAPEAXI@Z 000000018002c15c f i libcpmt:locale0.obj
 0001:0002b15c       ??_G_Locimp@locale@std@@MEAAPEAXI@Z 000000018002c15c f i libcpmt:locale0.obj
 0001:0002b1b8       ?_Facet_Register@std@@YAXPEAV_Facet_base@1@@Z 000000018002c1b8 f   libcpmt:locale0.obj
 0001:0002b1f0       ?_Getgloballocale@locale@std@@CAPEAV_Locimp@12@XZ 000000018002c1f0 f   libcpmt:locale0.obj
 0001:0002b1f8       ?_Init@locale@std@@CAPEAV_Locimp@12@_N@Z 000000018002c1f8 f   libcpmt:locale0.obj
 0001:0002b2f0       ?_Locimp_dtor@_Locimp@locale@std@@CAXPEAV123@@Z 000000018002c2f0 f   libcpmt:locale0.obj
 0001:0002b36c       ?_Locinfo_ctor@_Locinfo@std@@SAXPEAV12@PEBD@Z 000000018002c36c f   libcpmt:locale0.obj
 0001:0002b3d8       ?_Locinfo_dtor@_Locinfo@std@@SAXPEAV12@@Z 000000018002c3d8 f   libcpmt:locale0.obj
 0001:0002b3f4       ?_New_Locimp@_Locimp@locale@std@@CAPEAV123@_N@Z 000000018002c3f4 f   libcpmt:locale0.obj
 0001:0002b424       ?_Setgloballocale@locale@std@@CAXPEAX@Z 000000018002c424 f   libcpmt:locale0.obj
 0001:0002b458       _Deletegloballocale        000000018002c458 f   libcpmt:locale0.obj
 0001:0002b4c8       ?_Ios_base_dtor@ios_base@std@@CAXPEAV12@@Z 000000018002c4c8 f   libcpmt:ios.obj
 0001:0002b540       ?_Tidy@ios_base@std@@AEAAXXZ 000000018002c540 f i libcpmt:ios.obj
 0001:0002b5c0       ?_Syserror_map@std@@YAPEBDH@Z 000000018002c5c0 f   libcpmt:syserror.obj
 0001:0002b5e8       _Getctype                  000000018002c5e8 f   libcpmt:_tolower.obj
 0001:0002b6a8       _Tolower                   000000018002c6a8 f   libcpmt:_tolower.obj
 0001:0002b7d8       _Toupper                   000000018002c7d8 f   libcpmt:_toupper.obj
 0001:0002b918       _Mtxdst                    000000018002c918 f   libcpmt:xmtx.obj
 0001:0002b920       _Mtxinit                   000000018002c920 f   libcpmt:xmtx.obj
 0001:0002b930       _Mtxlock                   000000018002c930 f   libcpmt:xmtx.obj
 0001:0002b938       _Mtxunlock                 000000018002c938 f   libcpmt:xmtx.obj
 0001:0002b940       ??0bad_array_new_length@std@@QEAA@AEBV01@@Z 000000018002c940 f i libcpmt:locale.obj
 0001:0002b97c       ??0bad_array_new_length@std@@QEAA@XZ 000000018002c97c f i libcpmt:locale.obj
 0001:0002b99c       ?_Atexit@@YAXP6AXXZ@Z      000000018002c99c f   libcpmt:iosptrs.obj
 0001:0002b9d8       __crtLCMapStringA          000000018002c9d8 f   libcpmt:StlLCMapStringA.obj
 0001:0002bcf0       __security_check_cookie    000000018002ccf0 f   LIBCMT:amdsecgs.obj
 0001:0002bd10       ??2@YAPEAX_K@Z             000000018002cd10 f   LIBCMT:new_scalar.obj
 0001:0002bd4c       ??3@YAXPEAX_K@Z            000000018002cd4c f   LIBCMT:delete_scalar_size.obj
 0001:0002bd4c       ??_V@YAXPEAX@Z             000000018002cd4c f   LIBCMT:delete_array.obj
 0001:0002bd54       __scrt_acquire_startup_lock 000000018002cd54 f   LIBCMT:utility.obj
 0001:0002bd90       __scrt_dllmain_after_initialize_c 000000018002cd90 f   LIBCMT:utility.obj
 0001:0002bdc4       __scrt_dllmain_before_initialize_c 000000018002cdc4 f   LIBCMT:utility.obj
 0001:0002bddc       __scrt_dllmain_crt_thread_attach 000000018002cddc f   LIBCMT:utility.obj
 0001:0002be04       __scrt_dllmain_crt_thread_detach 000000018002ce04 f   LIBCMT:utility.obj
 0001:0002be1c       __scrt_dllmain_exception_filter 000000018002ce1c f   LIBCMT:utility.obj
 0001:0002be7c       __scrt_dllmain_uninitialize_c 000000018002ce7c f   LIBCMT:utility.obj
 0001:0002beac       __scrt_dllmain_uninitialize_critical 000000018002ceac f   LIBCMT:utility.obj
 0001:0002bec0       __scrt_initialize_crt      000000018002cec0 f   LIBCMT:utility.obj
 0001:0002bf0c       __scrt_initialize_onexit_tables 000000018002cf0c f   LIBCMT:utility.obj
 0001:0002bf98       __scrt_is_nonwritable_in_current_image 000000018002cf98 f   LIBCMT:utility.obj
 0001:0002c030       __scrt_release_startup_lock 000000018002d030 f   LIBCMT:utility.obj
 0001:0002c054       __scrt_uninitialize_crt    000000018002d054 f   LIBCMT:utility.obj
 0001:0002c080       _onexit                    000000018002d080 f   LIBCMT:utility.obj
 0001:0002c0bc       atexit                     000000018002d0bc f   LIBCMT:utility.obj
 0001:0002c0d4       ??_Etype_info@@UEAAPEAXI@Z 000000018002d0d4 f i LIBCMT:std_type_info_static.obj
 0001:0002c0d4       ??_Gtype_info@@UEAAPEAXI@Z 000000018002d0d4 f i LIBCMT:std_type_info_static.obj
 0001:0002c100       ??_U@YAPEAX_KAEBUnothrow_t@std@@@Z 000000018002d100 f   LIBCMT:new_array_nothrow.obj
 0001:0002c108       ??_M@YAXPEAX_K1P6AX0@Z@Z   000000018002d108 f   LIBCMT:ehvecdtr.obj
 0001:0002c174       ?__ArrayUnwind@@YAXPEAX_K1P6AX0@Z@Z 000000018002d174 f   LIBCMT:ehvecdtr.obj
 0001:0002c1d8       ??_U@YAPEAX_K@Z            000000018002d1d8 f   LIBCMT:new_array.obj
 0001:0002c500       _DllMainCRTStartup         000000018002d500 f   LIBCMT:dll_dllmain.obj
 0001:0002c540       __GSHandlerCheck           000000018002d540 f   LIBCMT:gshandler.obj
 0001:0002c560       __GSHandlerCheckCommon     000000018002d560 f   LIBCMT:gshandler.obj
 0001:0002c5bc       __GSHandlerCheck_EH4       000000018002d5bc f   LIBCMT:gshandlereh4.obj
 0001:0002c650       __chkstk                   000000018002d650 f   LIBCMT:chkstk.obj
 0001:0002c650       _alloca_probe              000000018002d650 f   LIBCMT:chkstk.obj
 0001:0002c6a0       __raise_securityfailure    000000018002d6a0 f   LIBCMT:gs_report.obj
 0001:0002c6d4       __report_gsfailure         000000018002d6d4 f   LIBCMT:gs_report.obj
 0001:0002c7a8       __report_rangecheckfailure 000000018002d7a8 f   LIBCMT:gs_report.obj
 0001:0002c7bc       __report_securityfailure   000000018002d7bc f   LIBCMT:gs_report.obj
 0001:0002c93c       ?__scrt_throw_std_bad_array_new_length@@YAXXZ 000000018002d93c f   LIBCMT:throw_bad_alloc.obj
 0001:0002c95c       ??3@YAXPEAX@Z              000000018002d95c f   LIBCMT:delete_scalar.obj
 0001:0002c964       __isa_available_init       000000018002d964 f   LIBCMT:cpu_disp.obj
 0001:0002cb08       DllMain                    000000018002db08 f   LIBCMT:dll_dllmain_stub.obj
 0001:0002cb08       _get_startup_argv_mode     000000018002db08 f   LIBCMT:argv_mode.obj
 0001:0002cb10       __scrt_is_ucrt_dll_in_use  000000018002db10 f   LIBCMT:ucrt_detection.obj
 0001:0002cb1c       __crt_debugger_hook        000000018002db1c f   LIBCMT:utility_desktop.obj
 0001:0002cb24       __scrt_fastfail            000000018002db24 f   LIBCMT:utility_desktop.obj
 0001:0002cc70       ??2@YAPEAX_KAEBUnothrow_t@std@@@Z 000000018002dc70 f   LIBCMT:new_scalar_nothrow.obj
 0001:0002cc84       __security_init_cookie     000000018002dc84 f   LIBCMT:gs_support.obj
 0001:0002cd30       ?__scrt_initialize_type_info@@YAXXZ 000000018002dd30 f   LIBCMT:tncleanup.obj
 0001:0002cd40       ?__scrt_uninitialize_type_info@@YAXXZ 000000018002dd40 f   LIBCMT:tncleanup.obj
 0001:0002cd4c       __local_stdio_scanf_options 000000018002dd4c f i LIBCMT:default_local_stdio_options.obj
 0001:0002cd54       __scrt_initialize_default_local_stdio_options 000000018002dd54 f   LIBCMT:default_local_stdio_options.obj
 0001:0002cd70       __scrt_get_dyn_tls_init_callback 000000018002dd70 f   LIBCMT:dyn_tls_init.obj
 0001:0002cd78       _RTC_Initialize            000000018002dd78 f   LIBCMT:initsect.obj
 0001:0002cdb4       _RTC_Terminate             000000018002ddb4 f   LIBCMT:initsect.obj
 0001:0002cdf0       ??$_CallSETranslator@V__FrameHandler3@@@@YAHPEAUEHExceptionRecord@@PEA_KPEAU_CONTEXT@@PEAU_xDISPATCHER_CONTEXT@@PEBU_s_FuncInfo@@K1H@Z 000000018002ddf0 f i libvcruntime:risctrnsctrl.obj
 0001:0002ce44       ??$_CallSETranslator@V__FrameHandler4@@@@YAHPEAUEHExceptionRecord@@PEA_KPEAU_CONTEXT@@PEAU_xDISPATCHER_CONTEXT@@PEAUFuncInfo4@FH4@@K1H@Z 000000018002de44 f i libvcruntime:risctrnsctrl.obj
 0001:0002ce98       ?CatchTryBlock@__FrameHandler3@@SAPEBU_s_TryBlockMapEntry@@PEBU_s_FuncInfo@@H@Z 000000018002de98 f   libvcruntime:risctrnsctrl.obj
 0001:0002ceec       ?DecompFuncInfo@FH4@@YA_JPEAEAEAUFuncInfo4@1@_KH_N@Z 000000018002deec f i libvcruntime:risctrnsctrl.obj
 0001:0002d010       ?ExecutionInCatch@__FrameHandler3@@SA_NPEAU_xDISPATCHER_CONTEXT@@PEBU_s_FuncInfo@@@Z 000000018002e010 f   libvcruntime:risctrnsctrl.obj
 0001:0002d03c       ?ExecutionInCatch@__FrameHandler4@@SA_NPEAU_xDISPATCHER_CONTEXT@@PEAUFuncInfo4@FH4@@@Z 000000018002e03c f   libvcruntime:risctrnsctrl.obj
 0001:0002d044       ?FrameUnwindToEmptyState@__FrameHandler3@@SAXPEA_KPEAU_xDISPATCHER_CONTEXT@@PEBU_s_FuncInfo@@@Z 000000018002e044 f   libvcruntime:risctrnsctrl.obj
 0001:0002d0a8       ?FrameUnwindToEmptyState@__FrameHandler4@@SAXPEA_KPEAU_xDISPATCHER_CONTEXT@@PEAUFuncInfo4@FH4@@@Z 000000018002e0a8 f   libvcruntime:risctrnsctrl.obj
 0001:0002d0dc       ?GetEstablisherFrame@__FrameHandler3@@SAPEA_KPEA_KPEAU_xDISPATCHER_CONTEXT@@PEBU_s_FuncInfo@@0@Z 000000018002e0dc f   libvcruntime:risctrnsctrl.obj
 0001:0002d1a8       ?GetEstablisherFrame@__FrameHandler4@@SAPEA_KPEA_KPEAU_xDISPATCHER_CONTEXT@@PEAUFuncInfo4@FH4@@0@Z 000000018002e1a8 f   libvcruntime:risctrnsctrl.obj
 0001:0002d1cc       ?GetRangeOfTrysToCheck@__FrameHandler3@@SA?AU?$pair@Viterator@TryBlockMap@__FrameHandler3@@V123@@std@@AEAVTryBlockMap@1@HPEAU_xDISPATCHER_CONTEXT@@PEBU_s_FuncInfo@@H@Z 000000018002e1cc f   libvcruntime:risctrnsctrl.obj
 0001:0002d30c       ?GetRangeOfTrysToCheck@__FrameHandler4@@SA?AU?$pair@Viterator@TryBlockMap4@FH4@@V123@@std@@AEAVTryBlockMap4@FH4@@HPEAU_xDISPATCHER_CONTEXT@@PEAUFuncInfo4@5@H@Z 000000018002e30c f   libvcruntime:risctrnsctrl.obj
 0001:0002d474       ?UnwindNestedFrames@__FrameHandler3@@SAXPEA_KPEAUEHExceptionRecord@@PEAU_CONTEXT@@0PEAXPEBU_s_FuncInfo@@HHPEBU_s_HandlerType@@PEAU_xDISPATCHER_CONTEXT@@E@Z 000000018002e474 f   libvcruntime:risctrnsctrl.obj
 0001:0002d578       ?UnwindNestedFrames@__FrameHandler4@@SAXPEA_KPEAUEHExceptionRecord@@PEAU_CONTEXT@@0PEAXPEAUFuncInfo4@FH4@@HHPEAUHandlerType4@5@PEAU_xDISPATCHER_CONTEXT@@E@Z 000000018002e578 f   libvcruntime:risctrnsctrl.obj
 0001:0002d698       ?setBuffer@TryBlockMap4@FH4@@QEAAXViterator@12@@Z 000000018002e698 f i libvcruntime:risctrnsctrl.obj
 0001:0002d858       _CreateFrameInfo           000000018002e858 f   libvcruntime:risctrnsctrl.obj
 0001:0002d894       _FindAndUnlinkFrame        000000018002e894 f   libvcruntime:risctrnsctrl.obj
 0001:0002d8e8       _GetImageBase              000000018002e8e8 f   libvcruntime:risctrnsctrl.obj
 0001:0002d8fc       _GetThrowImageBase         000000018002e8fc f   libvcruntime:risctrnsctrl.obj
 0001:0002d910       _SetImageBase              000000018002e910 f   libvcruntime:risctrnsctrl.obj
 0001:0002d928       _SetThrowImageBase         000000018002e928 f   libvcruntime:risctrnsctrl.obj
 0001:0002d940       __CxxFrameHandler3         000000018002e940 f   libvcruntime:risctrnsctrl.obj
 0001:0002d9c8       __CxxFrameHandler4         000000018002e9c8 f   libvcruntime:risctrnsctrl.obj
 0001:0002da88       _get_purecall_handler      000000018002ea88 f   libvcruntime:purevirt.obj
 0001:0002da94       _purecall                  000000018002ea94 f   libvcruntime:purevirt.obj
 0001:0002dab0       __DestructExceptionObject  000000018002eab0 f   libvcruntime:ehhelpers.obj
 0001:0002db20       ?_CallMemberFunction0@@YAXQEAX0@Z 000000018002eb20 f i libvcruntime:ehhelpers.obj
 0001:0002db24       _IsExceptionObjectToBeDestroyed 000000018002eb24 f   libvcruntime:ehhelpers.obj
 0001:0002db54       __AdjustPointer            000000018002eb54 f   libvcruntime:ehhelpers.obj
 0001:0002db78       __FrameUnwindFilter        000000018002eb78 f   libvcruntime:ehhelpers.obj
 0001:0002dbe0       __current_exception        000000018002ebe0 f   libvcruntime:ehhelpers.obj
 0001:0002dbf4       __current_exception_context 000000018002ebf4 f   libvcruntime:ehhelpers.obj
 0001:0002dc08       __std_terminate            000000018002ec08 f   libvcruntime:ehhelpers.obj
 0001:0002dc14       longjmp                    000000018002ec14 f   libvcruntime:longjmpc.obj
 0001:0002dc3c       strstr                     000000018002ec3c f   libvcruntime:strstr.obj
 0001:0002de38       __std_exception_copy       000000018002ee38 f   libvcruntime:std_exception.obj
 0001:0002dec8       __std_exception_destroy    000000018002eec8 f   libvcruntime:std_exception.obj
 0001:0002def0       _CxxThrowException         000000018002eef0 f   libvcruntime:throw.obj
 0001:0002dfa0       memcpy_repmovs             000000018002efa0 f   libvcruntime:memcpy.obj
 0001:0002dfc0       memcpy                     000000018002efc0 f   libvcruntime:memcpy.obj
 0001:0002dfc0       memmove                    000000018002efc0 f   libvcruntime:memcpy.obj
 0001:0002e650       memchr                     000000018002f650 f   libvcruntime:memchr.obj
 0001:0002e6d0       memset_repmovs             000000018002f6d0 f   libvcruntime:memset.obj
 0001:0002e6f0       memset                     000000018002f6f0 f   libvcruntime:memset.obj
 0001:0002e890       memcmp                     000000018002f890 f   libvcruntime:memcmp.obj
 0001:0002e958       __vcrt_initialize          000000018002f958 f   libvcruntime:initialization.obj
 0001:0002e980       __vcrt_thread_attach       000000018002f980 f   libvcruntime:initialization.obj
 0001:0002e994       __vcrt_thread_detach       000000018002f994 f   libvcruntime:initialization.obj
 0001:0002e9a8       __vcrt_uninitialize        000000018002f9a8 f   libvcruntime:initialization.obj
 0001:0002e9c4       __vcrt_uninitialize_critical 000000018002f9c4 f   libvcruntime:initialization.obj
 0001:0002e9d4       __C_specific_handler       000000018002f9d4 f   libvcruntime:riscchandler.obj
 0001:0002ebe0       __std_type_info_compare    000000018002fbe0 f   libvcruntime:std_type_info.obj
 0001:0002ec08       __std_type_info_destroy_list 000000018002fc08 f   libvcruntime:std_type_info.obj
 0001:0002ec34       __vcrt_freefls             000000018002fc34 f   libvcruntime:per_thread_data.obj
 0001:0002ec54       __vcrt_freeptd             000000018002fc54 f   libvcruntime:per_thread_data.obj
 0001:0002eca4       __vcrt_getptd              000000018002fca4 f   libvcruntime:per_thread_data.obj
 0001:0002ecc0       __vcrt_getptd_noexit       000000018002fcc0 f   libvcruntime:per_thread_data.obj
 0001:0002ed80       __vcrt_initialize_ptd      000000018002fd80 f   libvcruntime:per_thread_data.obj
 0001:0002edc8       __vcrt_uninitialize_ptd    000000018002fdc8 f   libvcruntime:per_thread_data.obj
 0001:0002edec       ?GetCurrentState@__FrameHandler3@@SAHPEA_KPEAU_xDISPATCHER_CONTEXT@@PEBU_s_FuncInfo@@@Z 000000018002fdec f   libvcruntime:ehstate.obj
 0001:0002ee14       ?GetUnwindTryBlock@__FrameHandler3@@SAHPEA_KPEAU_xDISPATCHER_CONTEXT@@PEBU_s_FuncInfo@@@Z 000000018002fe14 f   libvcruntime:ehstate.obj
 0001:0002ee40       ?SetState@__FrameHandler3@@SAXPEA_KPEBU_s_FuncInfo@@H@Z 000000018002fe40 f   libvcruntime:ehstate.obj
 0001:0002ee4c       ?SetUnwindTryBlock@__FrameHandler3@@SAXPEA_KPEAU_xDISPATCHER_CONTEXT@@PEBU_s_FuncInfo@@H@Z 000000018002fe4c f   libvcruntime:ehstate.obj
 0001:0002ee88       ?StateFromControlPc@__FrameHandler3@@SAHPEBU_s_FuncInfo@@PEAU_xDISPATCHER_CONTEXT@@@Z 000000018002fe88 f   libvcruntime:ehstate.obj
 0001:0002ee90       ?StateFromControlPc@__FrameHandler4@@SAHPEAUFuncInfo4@FH4@@PEAU_xDISPATCHER_CONTEXT@@@Z 000000018002fe90 f   libvcruntime:ehstate.obj
 0001:0002ee98       ?StateFromIp@__FrameHandler3@@SAHPEBU_s_FuncInfo@@PEAU_xDISPATCHER_CONTEXT@@_K@Z 000000018002fe98 f   libvcruntime:ehstate.obj
 0001:0002ef00       ?StateFromIp@__FrameHandler4@@SAHPEAUFuncInfo4@FH4@@PEAU_xDISPATCHER_CONTEXT@@_K@Z 000000018002ff00 f   libvcruntime:ehstate.obj
 0001:000305e4       ??$TypeMatchHelper@V__FrameHandler3@@@@YAHPEBU_s_HandlerType@@PEBU_s_CatchableType@@PEBU_s_ThrowInfo@@@Z 00000001800315e4 f i libvcruntime:frame.obj
 0001:00030724       ??$TypeMatchHelper@V__FrameHandler4@@@@YAHPEAUHandlerType4@FH4@@PEBU_s_CatchableType@@PEBU_s_ThrowInfo@@@Z 0000000180031724 f i libvcruntime:frame.obj
 0001:00030868       ??$__InternalCxxFrameHandler@V__FrameHandler3@@@@YA?AW4_EXCEPTION_DISPOSITION@@PEAUEHExceptionRecord@@PEA_KPEAU_CONTEXT@@PEAU_xDISPATCHER_CONTEXT@@PEBU_s_FuncInfo@@H1E@Z 0000000180031868 f i libvcruntime:frame.obj
 0001:00030aa0       ??$__InternalCxxFrameHandler@V__FrameHandler4@@@@YA?AW4_EXCEPTION_DISPOSITION@@PEAUEHExceptionRecord@@PEA_KPEAU_CONTEXT@@PEAU_xDISPATCHER_CONTEXT@@PEAUFuncInfo4@FH4@@H1E@Z 0000000180031aa0 f i libvcruntime:frame.obj
 0001:00030d34       ??0HandlerMap4@FH4@@QEAA@PEBUTryBlockMapEntry4@1@_KH@Z 0000000180031d34 f i libvcruntime:frame.obj
 0001:00030db0       ??0TryBlockMap4@FH4@@QEAA@PEBUFuncInfo4@1@_K@Z 0000000180031db0 f i libvcruntime:frame.obj
 0001:00030e88       ??0bad_exception@std@@QEAA@AEBV01@@Z 0000000180031e88 f i libvcruntime:frame.obj
 0001:00030ec4       ??0bad_exception@std@@QEAA@XZ 0000000180031ec4 f i libvcruntime:frame.obj
 0001:00030ee4       ?CxxCallCatchBlock@__FrameHandler3@@SAPEAXPEAU_EXCEPTION_RECORD@@@Z 0000000180031ee4 f   libvcruntime:frame.obj
 0001:000310d0       ?CxxCallCatchBlock@__FrameHandler4@@SAPEAXPEAU_EXCEPTION_RECORD@@@Z 00000001800320d0 f   libvcruntime:frame.obj
 0001:00031320       ?DecompHandler@HandlerMap4@FH4@@AEAAXXZ 0000000180032320 f i libvcruntime:frame.obj
 0001:00031560       ?FrameUnwindToState@__FrameHandler3@@SAXPEA_KPEAU_xDISPATCHER_CONTEXT@@PEBU_s_FuncInfo@@H@Z 0000000180032560 f   libvcruntime:frame.obj
 0001:000316ec       ?FrameUnwindToState@__FrameHandler4@@SAXPEA_KPEAU_xDISPATCHER_CONTEXT@@PEAUFuncInfo4@FH4@@H@Z 00000001800326ec f   libvcruntime:frame.obj
 0001:000319d4       ?GetHandlerSearchState@__FrameHandler3@@SAHPEA_KPEAU_xDISPATCHER_CONTEXT@@PEBU_s_FuncInfo@@@Z 00000001800329d4 f i libvcruntime:frame.obj
 0001:00031be4       ?ReadEntry@UWMap4@FH4@@AEAAXPEAPEAE@Z 0000000180032be4 f i libvcruntime:frame.obj
 0001:00031c84       ?_CallMemberFunction1@@YAXQEAX00@Z 0000000180032c84 f i libvcruntime:frame.obj
 0001:00031c90       ?_CallMemberFunction2@@YAXQEAX00H@Z 0000000180032c90 f i libvcruntime:frame.obj
 0001:00031ca0       ?getStartStop@UWMap4@FH4@@QEAAXHHAEAViterator@12@0@Z 0000000180032ca0 f i libvcruntime:frame.obj
 0001:00031d70       ?getStateFromIterators@UWMap4@FH4@@SAHAEBViterator@12@H0H0@Z 0000000180032d70 f i libvcruntime:frame.obj
 0001:00031e40       __except_validate_context_record 0000000180032e40 f   libvcruntime:jbcxrval.obj
 0001:00031e78       __except_validate_jump_buffer 0000000180032e78 f   libvcruntime:jbcxrval.obj
 0001:00031eb8       __vcrt_initialize_locks    0000000180032eb8 f   libvcruntime:locks.obj
 0001:00031eec       __vcrt_uninitialize_locks  0000000180032eec f   libvcruntime:locks.obj
 0001:00031f40       _NLG_Notify                0000000180032f40 f   libvcruntime:notify.obj
 0001:00031f60       __NLG_Dispatch2            0000000180032f60 f   libvcruntime:notify.obj
 0001:00031f70       __NLG_Return2              0000000180032f70 f   libvcruntime:notify.obj
 0001:000320c4       __vcrt_FlsAlloc            00000001800330c4 f   libvcruntime:winapi_downlevel.obj
 0001:0003210c       __vcrt_FlsFree             000000018003310c f   libvcruntime:winapi_downlevel.obj
 0001:00032154       __vcrt_FlsGetValue         0000000180033154 f   libvcruntime:winapi_downlevel.obj
 0001:0003219c       __vcrt_FlsSetValue         000000018003319c f   libvcruntime:winapi_downlevel.obj
 0001:000321f0       __vcrt_InitializeCriticalSectionEx 00000001800331f0 f   libvcruntime:winapi_downlevel.obj
 0001:00032270       _CallSettingFrame          0000000180033270 f   libvcruntime:handlers.obj
 0001:000322c0       _CallSettingFrame_LookupContinuationIndex 00000001800332c0 f   libvcruntime:handlers.obj
 0001:000322f0       _CallSettingFrame_NotifyContinuationAddr 00000001800332f0 f   libvcruntime:handlers.obj
 0001:00032320       _CallSettingFrameEncoded   0000000180033320 f   libvcruntime:handlers.obj
 0001:00032368       ?get_raw_ptd@__crt_cached_ptd_host@@QEAAPEAU__acrt_ptd@@XZ 0000000180033368 f i libucrt:invalid_parameter.obj
 0001:000323d0       ?get_raw_ptd_noexit@__crt_cached_ptd_host@@QEAAPEAU__acrt_ptd@@XZ 00000001800333d0 f i libucrt:invalid_parameter.obj
 0001:0003243c       ?value@?$dual_state_global@P6AXPEB_W00I_K@Z@__crt_state_management@@QEAAAEAP6AXPEB_W00I_K@ZAEAV__crt_cached_ptd_host@@@Z 000000018003343c f i libucrt:invalid_parameter.obj
 0001:00032488       __acrt_call_reportfault    0000000180033488 f   libucrt:invalid_parameter.obj
 0001:000325e4       __acrt_initialize_invalid_parameter_handler 00000001800335e4 f   libucrt:invalid_parameter.obj
 0001:000325ec       _invalid_parameter         00000001800335ec f   libucrt:invalid_parameter.obj
 0001:00032688       _invalid_parameter_internal 0000000180033688 f   libucrt:invalid_parameter.obj
 0001:00032758       _invalid_parameter_noinfo  0000000180033758 f   libucrt:invalid_parameter.obj
 0001:00032778       _invalid_parameter_noinfo_noreturn 0000000180033778 f   libucrt:invalid_parameter.obj
 0001:000327a8       _invoke_watson             00000001800337a8 f   libucrt:invalid_parameter.obj
 0001:00032e74       ??$ftprintf@PEAU_iobuf@@PEB_WAEBQEB_WAEBQEB_WAEBI@?$__crt_char_traits@_W@@SAH$$QEAPEAU_iobuf@@$$QEAPEB_WAEBQEB_W2AEBI@Z 0000000180033e74 f i libucrt:assert.obj
 0001:00032e94       ??0__crt_stdio_stream@@QEAA@QEAU_iobuf@@@Z 0000000180033e94 f i libucrt:assert.obj
 0001:00032f7c       ?has_any_buffer@__crt_stdio_stream@@QEBA_NXZ 0000000180033f7c f i libucrt:assert.obj
 0001:00032f8c       _wassert                   0000000180033f8c f   libucrt:assert.obj
 0001:00033000       fwprintf                   0000000180034000 f i libucrt:assert.obj
 0001:00033044       swprintf                   0000000180034044 f i libucrt:assert.obj
 0001:00033098       abort                      0000000180034098 f   libucrt:abort.obj
 0001:000330f0       ??0_LocaleUpdate@@QEAA@QEAU__crt_locale_pointers@@@Z 00000001800340f0 f i libucrt:tolower_toupper.obj
 0001:0003318c       _tolower_l                 000000018003418c f   libucrt:tolower_toupper.obj
 0001:000332c0       _toupper_l                 00000001800342c0 f   libucrt:tolower_toupper.obj
 0001:000333f4       tolower                    00000001800343f4 f   libucrt:tolower_toupper.obj
 0001:00033420       toupper                    0000000180034420 f   libucrt:tolower_toupper.obj
 0001:0003344c       ??$__acrt_convert_wcs_mbs_cp@D_WV<lambda_7c9dea7b4ca7285d2cdb541a38da6275>@@U__crt_win32_buffer_internal_dynamic_resizing@@@@YAHQEBDAEAV?$__crt_win32_buffer@_WU__crt_win32_buffer_internal_dynamic_resizing@@@@AEBV<lambda_7c9dea7b4ca7285d2cdb541a38da6275>@@I@Z 000000018003444c f i libucrt:strftime.obj
 0001:000335c8       ??$__acrt_convert_wcs_mbs_cp@_WDV<lambda_f788ae46380686e8b737efdd8c720d07>@@U__crt_win32_buffer_no_resizing@@@@YAHQEB_WAEAV?$__crt_win32_buffer@DU__crt_win32_buffer_no_resizing@@@@AEBV<lambda_f788ae46380686e8b737efdd8c720d07>@@I@Z 00000001800345c8 f i libucrt:strftime.obj
 0001:000336e4       _Strftime_l                00000001800346e4 f   libucrt:strftime.obj
 0001:00033850       strftime                   0000000180034850 f   libucrt:strftime.obj
 0001:0003386c       ??$__crt_time_is_leap_year@H@@YA_NH@Z 000000018003486c f i libucrt:gmtime.obj
 0001:00033b54       __getgmtimebuf             0000000180034b54 f   libucrt:gmtime.obj
 0001:00033ba0       _gmtime64                  0000000180034ba0 f   libucrt:gmtime.obj
 0001:00033c00       strncpy                    0000000180034c00 f   libucrt:strncpy.obj
 0001:00033d64       free                       0000000180034d64 f   libucrt:free.obj
 0001:00033d78       round                      0000000180034d78 f   libucrt:round.obj
 0001:00033de0       malloc                     0000000180034de0 f   libucrt:malloc.obj
 0001:00033de8       __acrt_initialize_stdio    0000000180034de8 f   libucrt:_file.obj
 0001:00033f08       __acrt_iob_func            0000000180034f08 f   libucrt:_file.obj
 0001:00033f1c       __acrt_uninitialize_stdio  0000000180034f1c f   libucrt:_file.obj
 0001:00033f78       _lock_file                 0000000180034f78 f   libucrt:_file.obj
 0001:00033f84       _unlock_file               0000000180034f84 f   libucrt:_file.obj
 0001:00033fd0       ??$ensure_buffer_is_big_enough@D@formatting_buffer@__crt_stdio_output@@QEAA_N_KAEAV__crt_cached_ptd_host@@@Z 0000000180034fd0 f i libucrt:output.obj
 0001:00034078       ??$ensure_buffer_is_big_enough@_W@formatting_buffer@__crt_stdio_output@@QEAA_N_KAEAV__crt_cached_ptd_host@@@Z 0000000180035078 f i libucrt:output.obj
 0001:00034124       ??$is_wide_character_specifier@_W@__crt_stdio_output@@YA_N_K_WW4length_modifier@0@@Z 0000000180035124 f i libucrt:output.obj
 0001:00034164       ??$parse_integer@KV?$c_string_character_source@D@__crt_strtox@@$0A@@__crt_strtox@@YAKAEAV__crt_cached_ptd_host@@V?$c_string_character_source@D@0@H_N@Z 0000000180035164 f i libucrt:output.obj
 0001:00034414       ??$parse_integer@KV?$c_string_character_source@_W@__crt_strtox@@$0A@@__crt_strtox@@YAKAEAV__crt_cached_ptd_host@@V?$c_string_character_source@_W@0@H_N@Z 0000000180035414 f i libucrt:output.obj
 0001:00034b6c       ??$type_case_integer@$07@?$output_processor@DV?$string_output_adapter@D@__crt_stdio_output@@V?$standard_base@DV?$string_output_adapter@D@__crt_stdio_output@@@2@@__crt_stdio_output@@AEAA_N_N@Z 0000000180035b6c f i libucrt:output.obj
 0001:00034d54       ??$type_case_integer@$07@?$output_processor@_WV?$string_output_adapter@_W@__crt_stdio_output@@V?$standard_base@_WV?$string_output_adapter@_W@__crt_stdio_output@@@2@@__crt_stdio_output@@AEAA_N_N@Z 0000000180035d54 f i libucrt:output.obj
 0001:00034d54       ??$type_case_integer@$07@?$output_processor@_WV?$stream_output_adapter@_W@__crt_stdio_output@@V?$standard_base@_WV?$stream_output_adapter@_W@__crt_stdio_output@@@2@@__crt_stdio_output@@AEAA_N_N@Z 0000000180035d54 f i libucrt:output.obj
 0001:00034f40       ??$type_case_integer@$09@?$output_processor@DV?$string_output_adapter@D@__crt_stdio_output@@V?$standard_base@DV?$string_output_adapter@D@__crt_stdio_output@@@2@@__crt_stdio_output@@AEAA_N_N@Z 0000000180035f40 f i libucrt:output.obj
 0001:00035128       ??$type_case_integer@$09@?$output_processor@_WV?$stream_output_adapter@_W@__crt_stdio_output@@V?$standard_base@_WV?$stream_output_adapter@_W@__crt_stdio_output@@@2@@__crt_stdio_output@@AEAA_N_N@Z 0000000180036128 f i libucrt:output.obj
 0001:00035128       ??$type_case_integer@$09@?$output_processor@_WV?$string_output_adapter@_W@__crt_stdio_output@@V?$standard_base@_WV?$string_output_adapter@_W@__crt_stdio_output@@@2@@__crt_stdio_output@@AEAA_N_N@Z 0000000180036128 f i libucrt:output.obj
 0001:00035314       ??$type_case_integer@$0BA@@?$output_processor@DV?$string_output_adapter@D@__crt_stdio_output@@V?$standard_base@DV?$string_output_adapter@D@__crt_stdio_output@@@2@@__crt_stdio_output@@AEAA_N_N@Z 0000000180036314 f i libucrt:output.obj
 0001:000354fc       ??$type_case_integer@$0BA@@?$output_processor@_WV?$stream_output_adapter@_W@__crt_stdio_output@@V?$standard_base@_WV?$stream_output_adapter@_W@__crt_stdio_output@@@2@@__crt_stdio_output@@AEAA_N_N@Z 00000001800364fc f i libucrt:output.obj
 0001:000354fc       ??$type_case_integer@$0BA@@?$output_processor@_WV?$string_output_adapter@_W@__crt_stdio_output@@V?$standard_base@_WV?$string_output_adapter@_W@__crt_stdio_output@@@2@@__crt_stdio_output@@AEAA_N_N@Z 00000001800364fc f i libucrt:output.obj
 0001:000356e8       ??$type_case_integer_parse_into_buffer@I$07@?$output_processor@DV?$string_output_adapter@D@__crt_stdio_output@@V?$standard_base@DV?$string_output_adapter@D@__crt_stdio_output@@@2@@__crt_stdio_output@@AEAAXI_N@Z 00000001800366e8 f i libucrt:output.obj
 0001:00035764       ??$type_case_integer_parse_into_buffer@I$07@?$output_processor@_WV?$string_output_adapter@_W@__crt_stdio_output@@V?$standard_base@_WV?$string_output_adapter@_W@__crt_stdio_output@@@2@@__crt_stdio_output@@AEAAXI_N@Z 0000000180036764 f i libucrt:output.obj
 0001:00035764       ??$type_case_integer_parse_into_buffer@I$07@?$output_processor@_WV?$stream_output_adapter@_W@__crt_stdio_output@@V?$standard_base@_WV?$stream_output_adapter@_W@__crt_stdio_output@@@2@@__crt_stdio_output@@AEAAXI_N@Z 0000000180036764 f i libucrt:output.obj
 0001:000357ec       ??$type_case_integer_parse_into_buffer@I$09@?$output_processor@DV?$string_output_adapter@D@__crt_stdio_output@@V?$standard_base@DV?$string_output_adapter@D@__crt_stdio_output@@@2@@__crt_stdio_output@@AEAAXI_N@Z 00000001800367ec f i libucrt:output.obj
 0001:00035894       ??$type_case_integer_parse_into_buffer@I$09@?$output_processor@_WV?$string_output_adapter@_W@__crt_stdio_output@@V?$standard_base@_WV?$string_output_adapter@_W@__crt_stdio_output@@@2@@__crt_stdio_output@@AEAAXI_N@Z 0000000180036894 f i libucrt:output.obj
 0001:00035894       ??$type_case_integer_parse_into_buffer@I$09@?$output_processor@_WV?$stream_output_adapter@_W@__crt_stdio_output@@V?$standard_base@_WV?$stream_output_adapter@_W@__crt_stdio_output@@@2@@__crt_stdio_output@@AEAAXI_N@Z 0000000180036894 f i libucrt:output.obj
 0001:0003594c       ??$type_case_integer_parse_into_buffer@I$0BA@@?$output_processor@DV?$string_output_adapter@D@__crt_stdio_output@@V?$standard_base@DV?$string_output_adapter@D@__crt_stdio_output@@@2@@__crt_stdio_output@@AEAAXI_N@Z 000000018003694c f i libucrt:output.obj
 0001:000359d8       ??$type_case_integer_parse_into_buffer@I$0BA@@?$output_processor@_WV?$stream_output_adapter@_W@__crt_stdio_output@@V?$standard_base@_WV?$stream_output_adapter@_W@__crt_stdio_output@@@2@@__crt_stdio_output@@AEAAXI_N@Z 00000001800369d8 f i libucrt:output.obj
 0001:000359d8       ??$type_case_integer_parse_into_buffer@I$0BA@@?$output_processor@_WV?$string_output_adapter@_W@__crt_stdio_output@@V?$standard_base@_WV?$string_output_adapter@_W@__crt_stdio_output@@@2@@__crt_stdio_output@@AEAAXI_N@Z 00000001800369d8 f i libucrt:output.obj
 0001:00035a7c       ??$type_case_integer_parse_into_buffer@_K$07@?$output_processor@DV?$string_output_adapter@D@__crt_stdio_output@@V?$standard_base@DV?$string_output_adapter@D@__crt_stdio_output@@@2@@__crt_stdio_output@@AEAAX_K_N@Z 0000000180036a7c f i libucrt:output.obj
 0001:00035af8       ??$type_case_integer_parse_into_buffer@_K$07@?$output_processor@_WV?$stream_output_adapter@_W@__crt_stdio_output@@V?$standard_base@_WV?$stream_output_adapter@_W@__crt_stdio_output@@@2@@__crt_stdio_output@@AEAAX_K_N@Z 0000000180036af8 f i libucrt:output.obj
 0001:00035af8       ??$type_case_integer_parse_into_buffer@_K$07@?$output_processor@_WV?$string_output_adapter@_W@__crt_stdio_output@@V?$standard_base@_WV?$string_output_adapter@_W@__crt_stdio_output@@@2@@__crt_stdio_output@@AEAAX_K_N@Z 0000000180036af8 f i libucrt:output.obj
 0001:00035b80       ??$type_case_integer_parse_into_buffer@_K$09@?$output_processor@DV?$string_output_adapter@D@__crt_stdio_output@@V?$standard_base@DV?$string_output_adapter@D@__crt_stdio_output@@@2@@__crt_stdio_output@@AEAAX_K_N@Z 0000000180036b80 f i libucrt:output.obj
 0001:00035c2c       ??$type_case_integer_parse_into_buffer@_K$09@?$output_processor@_WV?$string_output_adapter@_W@__crt_stdio_output@@V?$standard_base@_WV?$string_output_adapter@_W@__crt_stdio_output@@@2@@__crt_stdio_output@@AEAAX_K_N@Z 0000000180036c2c f i libucrt:output.obj
 0001:00035c2c       ??$type_case_integer_parse_into_buffer@_K$09@?$output_processor@_WV?$stream_output_adapter@_W@__crt_stdio_output@@V?$standard_base@_WV?$stream_output_adapter@_W@__crt_stdio_output@@@2@@__crt_stdio_output@@AEAAX_K_N@Z 0000000180036c2c f i libucrt:output.obj
 0001:00035cec       ??$type_case_integer_parse_into_buffer@_K$0BA@@?$output_processor@DV?$string_output_adapter@D@__crt_stdio_output@@V?$standard_base@DV?$string_output_adapter@D@__crt_stdio_output@@@2@@__crt_stdio_output@@AEAAX_K_N@Z 0000000180036cec f i libucrt:output.obj
 0001:00035d78       ??$type_case_integer_parse_into_buffer@_K$0BA@@?$output_processor@_WV?$stream_output_adapter@_W@__crt_stdio_output@@V?$standard_base@_WV?$stream_output_adapter@_W@__crt_stdio_output@@@2@@__crt_stdio_output@@AEAAX_K_N@Z 0000000180036d78 f i libucrt:output.obj
 0001:00035d78       ??$type_case_integer_parse_into_buffer@_K$0BA@@?$output_processor@_WV?$string_output_adapter@_W@__crt_stdio_output@@V?$standard_base@_WV?$string_output_adapter@_W@__crt_stdio_output@@@2@@__crt_stdio_output@@AEAAX_K_N@Z 0000000180036d78 f i libucrt:output.obj
 0001:00035f38       ?crop_zeroes@__crt_stdio_output@@YAXPEADQEAU__crt_locale_pointers@@@Z 0000000180036f38 f i libucrt:output.obj
 0001:00035fa4       ?parse_int_from_format_string@?$output_processor@DV?$string_output_adapter@D@__crt_stdio_output@@V?$standard_base@DV?$string_output_adapter@D@__crt_stdio_output@@@2@@__crt_stdio_output@@AEAA_NQEAH@Z 0000000180036fa4 f i libucrt:output.obj
 0001:00036034       ?parse_int_from_format_string@?$output_processor@_WV?$string_output_adapter@_W@__crt_stdio_output@@V?$standard_base@_WV?$string_output_adapter@_W@__crt_stdio_output@@@2@@__crt_stdio_output@@AEAA_NQEAH@Z 0000000180037034 f i libucrt:output.obj
 0001:00036034       ?parse_int_from_format_string@?$output_processor@_WV?$stream_output_adapter@_W@__crt_stdio_output@@V?$standard_base@_WV?$stream_output_adapter@_W@__crt_stdio_output@@@2@@__crt_stdio_output@@AEAA_NQEAH@Z 0000000180037034 f i libucrt:output.obj
 0001:000360c4       ?process@?$output_processor@DV?$string_output_adapter@D@__crt_stdio_output@@V?$standard_base@DV?$string_output_adapter@D@__crt_stdio_output@@@2@@__crt_stdio_output@@QEAAHXZ 00000001800370c4 f i libucrt:output.obj
 0001:00036448       ?process@?$output_processor@_WV?$stream_output_adapter@_W@__crt_stdio_output@@V?$standard_base@_WV?$stream_output_adapter@_W@__crt_stdio_output@@@2@@__crt_stdio_output@@QEAAHXZ 0000000180037448 f i libucrt:output.obj
 0001:00036704       ?process@?$output_processor@_WV?$string_output_adapter@_W@__crt_stdio_output@@V?$standard_base@_WV?$string_output_adapter@_W@__crt_stdio_output@@@2@@__crt_stdio_output@@QEAAHXZ 0000000180037704 f i libucrt:output.obj
 0001:000369c8       ?state_case_size@?$output_processor@DV?$string_output_adapter@D@__crt_stdio_output@@V?$standard_base@DV?$string_output_adapter@D@__crt_stdio_output@@@2@@__crt_stdio_output@@AEAA_NXZ 00000001800379c8 f i libucrt:output.obj
 0001:00036b4c       ?state_case_size@?$output_processor@_WV?$stream_output_adapter@_W@__crt_stdio_output@@V?$standard_base@_WV?$stream_output_adapter@_W@__crt_stdio_output@@@2@@__crt_stdio_output@@AEAA_NXZ 0000000180037b4c f i libucrt:output.obj
 0001:00036cf8       ?state_case_size@?$output_processor@_WV?$string_output_adapter@_W@__crt_stdio_output@@V?$standard_base@_WV?$string_output_adapter@_W@__crt_stdio_output@@@2@@__crt_stdio_output@@AEAA_NXZ 0000000180037cf8 f i libucrt:output.obj
 0001:00036ea4       ?state_case_type@?$output_processor@DV?$string_output_adapter@D@__crt_stdio_output@@V?$standard_base@DV?$string_output_adapter@D@__crt_stdio_output@@@2@@__crt_stdio_output@@AEAA_NXZ 0000000180037ea4 f i libucrt:output.obj
 0001:00037270       ?state_case_type@?$output_processor@_WV?$stream_output_adapter@_W@__crt_stdio_output@@V?$standard_base@_WV?$stream_output_adapter@_W@__crt_stdio_output@@@2@@__crt_stdio_output@@AEAA_NXZ 0000000180038270 f i libucrt:output.obj
 0001:00037740       ?state_case_type@?$output_processor@_WV?$string_output_adapter@_W@__crt_stdio_output@@V?$standard_base@_WV?$string_output_adapter@_W@__crt_stdio_output@@@2@@__crt_stdio_output@@AEAA_NXZ 0000000180038740 f i libucrt:output.obj
 0001:00037b9c       ?type_case_Z@?$output_processor@DV?$string_output_adapter@D@__crt_stdio_output@@V?$standard_base@DV?$string_output_adapter@D@__crt_stdio_output@@@2@@__crt_stdio_output@@AEAA_NXZ 0000000180038b9c f i libucrt:output.obj
 0001:00037c10       ?type_case_Z@?$output_processor@_WV?$string_output_adapter@_W@__crt_stdio_output@@V?$standard_base@_WV?$string_output_adapter@_W@__crt_stdio_output@@@2@@__crt_stdio_output@@AEAA_NXZ 0000000180038c10 f i libucrt:output.obj
 0001:00037c10       ?type_case_Z@?$output_processor@_WV?$stream_output_adapter@_W@__crt_stdio_output@@V?$standard_base@_WV?$stream_output_adapter@_W@__crt_stdio_output@@@2@@__crt_stdio_output@@AEAA_NXZ 0000000180038c10 f i libucrt:output.obj
 0001:00037c8c       ?type_case_a@?$output_processor@DV?$string_output_adapter@D@__crt_stdio_output@@V?$standard_base@DV?$string_output_adapter@D@__crt_stdio_output@@@2@@__crt_stdio_output@@AEAA_NXZ 0000000180038c8c f i libucrt:output.obj
 0001:00037ed8       ?type_case_a@?$output_processor@_WV?$stream_output_adapter@_W@__crt_stdio_output@@V?$standard_base@_WV?$stream_output_adapter@_W@__crt_stdio_output@@@2@@__crt_stdio_output@@AEAA_NXZ 0000000180038ed8 f i libucrt:output.obj
 0001:00037ed8       ?type_case_a@?$output_processor@_WV?$string_output_adapter@_W@__crt_stdio_output@@V?$standard_base@_WV?$string_output_adapter@_W@__crt_stdio_output@@@2@@__crt_stdio_output@@AEAA_NXZ 0000000180038ed8 f i libucrt:output.obj
 0001:00038138       ?type_case_c_tchar@?$output_processor@DV?$string_output_adapter@D@__crt_stdio_output@@V?$standard_base@DV?$string_output_adapter@D@__crt_stdio_output@@@2@@__crt_stdio_output@@AEAA_ND@Z 0000000180039138 f i libucrt:output.obj
 0001:000381fc       ?type_case_c_tchar@?$output_processor@_WV?$stream_output_adapter@_W@__crt_stdio_output@@V?$standard_base@_WV?$stream_output_adapter@_W@__crt_stdio_output@@@2@@__crt_stdio_output@@AEAA_N_W@Z 00000001800391fc f i libucrt:output.obj
 0001:000381fc       ?type_case_c_tchar@?$output_processor@_WV?$string_output_adapter@_W@__crt_stdio_output@@V?$standard_base@_WV?$string_output_adapter@_W@__crt_stdio_output@@@2@@__crt_stdio_output@@AEAA_N_W@Z 00000001800391fc f i libucrt:output.obj
 0001:000382c0       ?type_case_n@?$output_processor@_WV?$stream_output_adapter@_W@__crt_stdio_output@@V?$standard_base@_WV?$stream_output_adapter@_W@__crt_stdio_output@@@2@@__crt_stdio_output@@AEAA_NXZ 00000001800392c0 f i libucrt:output.obj
 0001:000382c0       ?type_case_n@?$output_processor@_WV?$string_output_adapter@_W@__crt_stdio_output@@V?$standard_base@_WV?$string_output_adapter@_W@__crt_stdio_output@@@2@@__crt_stdio_output@@AEAA_NXZ 00000001800392c0 f i libucrt:output.obj
 0001:000382c0       ?type_case_n@?$output_processor@DV?$string_output_adapter@D@__crt_stdio_output@@V?$standard_base@DV?$string_output_adapter@D@__crt_stdio_output@@@2@@__crt_stdio_output@@AEAA_NXZ 00000001800392c0 f i libucrt:output.obj
 0001:00038374       ?type_case_s@?$output_processor@DV?$string_output_adapter@D@__crt_stdio_output@@V?$standard_base@DV?$string_output_adapter@D@__crt_stdio_output@@@2@@__crt_stdio_output@@AEAA_NXZ 0000000180039374 f i libucrt:output.obj
 0001:00038408       ?type_case_s@?$output_processor@_WV?$string_output_adapter@_W@__crt_stdio_output@@V?$standard_base@_WV?$string_output_adapter@_W@__crt_stdio_output@@@2@@__crt_stdio_output@@AEAA_NXZ 0000000180039408 f i libucrt:output.obj
 0001:00038408       ?type_case_s@?$output_processor@_WV?$stream_output_adapter@_W@__crt_stdio_output@@V?$standard_base@_WV?$stream_output_adapter@_W@__crt_stdio_output@@@2@@__crt_stdio_output@@AEAA_NXZ 0000000180039408 f i libucrt:output.obj
 0001:000384a0       ?type_case_s_compute_narrow_string_length@?$output_processor@_WV?$stream_output_adapter@_W@__crt_stdio_output@@V?$standard_base@_WV?$stream_output_adapter@_W@__crt_stdio_output@@@2@@__crt_stdio_output@@AEAAHH_W@Z 00000001800394a0 f i libucrt:output.obj
 0001:000384a0       ?type_case_s_compute_narrow_string_length@?$output_processor@_WV?$string_output_adapter@_W@__crt_stdio_output@@V?$standard_base@_WV?$string_output_adapter@_W@__crt_stdio_output@@@2@@__crt_stdio_output@@AEAAHH_W@Z 00000001800394a0 f i libucrt:output.obj
 0001:00038520       ?update_locale_slow@__crt_cached_ptd_host@@AEAAXXZ 0000000180039520 f i libucrt:output.obj
 0001:00038598       ?write_string@?$string_output_adapter@D@__crt_stdio_output@@QEBAXQEBDHQEAHAEAV__crt_cached_ptd_host@@@Z 0000000180039598 f i libucrt:output.obj
 0001:0003863c       ?write_string@?$string_output_adapter@_W@__crt_stdio_output@@QEBAXQEB_WHQEAHAEAV__crt_cached_ptd_host@@@Z 000000018003963c f i libucrt:output.obj
 0001:000386e4       ?write_string_impl@?$output_adapter_common@_WV?$stream_output_adapter@_W@__crt_stdio_output@@@__crt_stdio_output@@IEBAXQEB_WHQEAHAEAV__crt_cached_ptd_host@@@Z 00000001800396e4 f i libucrt:output.obj
 0001:000387c0       __stdio_common_vfwprintf   00000001800397c0 f   libucrt:output.obj
 0001:000388e4       __stdio_common_vsprintf    00000001800398e4 f   libucrt:output.obj
 0001:00038b38       __stdio_common_vswprintf   0000000180039b38 f   libucrt:output.obj
 0001:000392a4       _ftelli64_nolock_internal  000000018003a2a4 f   libucrt:ftell.obj
 0001:000392ac       ftell                      000000018003a2ac f   libucrt:ftell.obj
 0001:00039400       fopen                      000000018003a400 f   libucrt:fopen.obj
 0001:0003952c       fclose                     000000018003a52c f   libucrt:fclose.obj
 0001:00039814       fseek                      000000018003a814 f   libucrt:fseek.obj
 0001:00039998       rewind                     000000018003a998 f   libucrt:rewind.obj
 0001:00039a24       __acrt_errno_from_os_error 000000018003aa24 f   libucrt:errno.obj
 0001:00039a6c       __acrt_errno_map_os_error  000000018003aa6c f   libucrt:errno.obj
 0001:00039ab4       __acrt_errno_map_os_error_ptd 000000018003aab4 f   libucrt:errno.obj
 0001:00039ad8       __doserrno                 000000018003aad8 f   libucrt:errno.obj
 0001:00039af8       _errno                     000000018003aaf8 f   libucrt:errno.obj
 0001:00039b18       _fread_nolock_s            000000018003ab18 f   libucrt:fread.obj
 0001:00039d78       fread                      000000018003ad78 f   libucrt:fread.obj
 0001:00039d98       fread_s                    000000018003ad98 f   libucrt:fread.obj
 0001:0003a2c4       _fstat64i32                000000018003b2c4 f   libucrt:stat.obj
 0001:0003a39c       __ascii_stricmp            000000018003b39c f   libucrt:stricmp.obj
 0001:0003a3d8       _stricmp                   000000018003b3d8 f   libucrt:stricmp.obj
 0001:0003a420       _stricmp_l                 000000018003b420 f   libucrt:stricmp.obj
 0001:0003a4a8       __acrt_initialize_locks    000000018003b4a8 f   libucrt:locks.obj
 0001:0003a4f0       __acrt_lock                000000018003b4f0 f   libucrt:locks.obj
 0001:0003a50c       __acrt_uninitialize_locks  000000018003b50c f   libucrt:locks.obj
 0001:0003a544       __acrt_unlock              000000018003b544 f   libucrt:locks.obj
 0001:0003a560       _lock_locales              000000018003b560 f   libucrt:locks.obj
 0001:0003a57c       _unlock_locales            000000018003b57c f   libucrt:locks.obj
 0001:0003a868       setlocale                  000000018003b868 f   libucrt:setlocale.obj
 0001:0003a8b4       __pctype_func              000000018003b8b4 f   libucrt:ctype.obj
 0001:0003a8f0       islower                    000000018003b8f0 f   libucrt:_ctype.obj
 0001:0003a9a0       isupper                    000000018003b9a0 f   libucrt:_ctype.obj
 0001:0003aa48       ___lc_codepage_func        000000018003ba48 f   libucrt:initctype.obj
 0001:0003aa78       ___lc_locale_name_func     000000018003ba78 f   libucrt:initctype.obj
 0001:0003aaac       __acrt_locale_initialize_ctype 000000018003baac f   libucrt:initctype.obj
 0001:0003b110       calloc                     000000018003c110 f   libucrt:calloc.obj
 0001:0003b118       _wcsdup                    000000018003c118 f   libucrt:wcsdup.obj
 0001:0003b1a0       ?divide@__crt_strtox@@YA_KAEAUbig_integer@1@AEBU21@@Z 000000018003c1a0 f i libucrt:strtod.obj
 0001:0003b6c0       pow                        000000018003c6c0 f   libucrt:pow.obj
 0001:0003cd60       powf                       000000018003dd60 f   libucrt:powf.obj
 0001:0003dc28       __strncnt                  000000018003ec28 f   libucrt:strncnt.obj
 0001:0003f288       _Wcsftime_l                0000000180040288 f   libucrt:wcsftime.obj
 0001:0003f414       strnlen                    0000000180040414 f   libucrt:strnlen.obj
 0001:0003f564       wcsnlen                    0000000180040564 f   libucrt:strnlen.obj
 0001:0003f73c       __acrt_initialize_new_handler 000000018004073c f   libucrt:new_handler.obj
 0001:0003f744       _callnewh                  0000000180040744 f   libucrt:new_handler.obj
 0001:0003f780       _query_new_handler         0000000180040780 f   libucrt:new_handler.obj
 0001:0003f7b4       _seh_filter_dll            00000001800407b4 f   libucrt:exception_filter.obj
 0001:0003f7c8       _seh_filter_exe            00000001800407c8 f   libucrt:exception_filter.obj
 0001:0003fbec       __acrt_initialize_thread_local_exit_callback 0000000180040bec f   libucrt:exit.obj
 0001:0003fbf4       _cexit                     0000000180040bf4 f   libucrt:exit.obj
 0001:0003fc04       _exit                      0000000180040c04 f   libucrt:exit.obj
 0001:0003fc10       _is_c_termination_complete 0000000180040c10 f   libucrt:exit.obj
 0001:0003fdd8       __acrt_allocate_buffer_for_argv 0000000180040dd8 f   libucrt:argv_parsing.obj
 0001:0003fe38       _configure_narrow_argv     0000000180040e38 f   libucrt:argv_parsing.obj
 0001:00040408       __dcrt_get_or_create_wide_environment_nolock 0000000180041408 f   libucrt:environment_initialization.obj
 0001:00040444       __dcrt_uninitialize_environments_nolock 0000000180041444 f   libucrt:environment_initialization.obj
 0001:00040488       _initialize_narrow_environment 0000000180041488 f   libucrt:environment_initialization.obj
 0001:000407d8       _crt_atexit                00000001800417d8 f   libucrt:onexit.obj
 0001:000407e8       _execute_onexit_table      00000001800417e8 f   libucrt:onexit.obj
 0001:0004082c       _initialize_onexit_table   000000018004182c f   libucrt:onexit.obj
 0001:00040854       _register_onexit_function  0000000180041854 f   libucrt:onexit.obj
 0001:000408f8       __acrt_uninitialize_command_line 00000001800418f8 f   libucrt:argv_data.obj
 0001:000409cc       __acrt_initialize          00000001800419cc f   libucrt:initialization.obj
 0001:000409e0       __acrt_thread_attach       00000001800419e0 f   libucrt:initialization.obj
 0001:000409f4       __acrt_thread_detach       00000001800419f4 f   libucrt:initialization.obj
 0001:00040a04       __acrt_uninitialize        0000000180041a04 f   libucrt:initialization.obj
 0001:00040a3c       __acrt_uninitialize_critical 0000000180041a3c f   libucrt:initialization.obj
 0001:00040a4c       terminate                  0000000180041a4c f   libucrt:terminate.obj
 0001:00040a78       _initterm                  0000000180041a78 f   libucrt:initterm.obj
 0001:00040abc       _initterm_e                0000000180041abc f   libucrt:initterm.obj
 0001:00040b04       strdup                     0000000180041b04 f   libucrt:strdup.obj
 0001:00040b04       _strdup                    0000000180041b04 f   libucrt:strdup.obj
 0001:00040b7c       _fileno                    0000000180041b7c f   libucrt:fileno.obj
 0001:00040b7c       fileno                     0000000180041b7c f   libucrt:fileno.obj
 0001:00040ba4       strcpy_s                   0000000180041ba4 f   libucrt:strcpy_s.obj
 0001:00040c04       ??$parse_integer@KV?$c_string_character_source@_W@__crt_strtox@@$00@__crt_strtox@@YAKAEAV__crt_cached_ptd_host@@V?$c_string_character_source@_W@0@H_N@Z 0000000180041c04 f i libucrt:atox.obj
 0001:0004138c       _wtol                      000000018004238c f   libucrt:atox.obj
 0001:00041450       strncmp                    0000000180042450 f   libucrt:strncmp.obj
 0001:000414d0       wcsncmp                    00000001800424d0 f   libucrt:wcsncmp.obj
 0001:00041874       __acrt_freeptd             0000000180042874 f   libucrt:per_thread_data.obj
 0001:000418b8       __acrt_getptd              00000001800428b8 f   libucrt:per_thread_data.obj
 0001:0004198c       __acrt_getptd_head         000000018004298c f   libucrt:per_thread_data.obj
 0001:00041a30       __acrt_getptd_noexit       0000000180042a30 f   libucrt:per_thread_data.obj
 0001:00041af8       __acrt_getptd_noexit_explicit 0000000180042af8 f   libucrt:per_thread_data.obj
 0001:00041bb8       __acrt_initialize_ptd      0000000180042bb8 f   libucrt:per_thread_data.obj
 0001:00041bf4       __acrt_uninitialize_ptd    0000000180042bf4 f   libucrt:per_thread_data.obj
 0001:00041e80       ?commit_locale_name@_expandlocale_locale_name_cache@@QEAAXQEB_W_K@Z 0000000180042e80 f i libucrt:wsetlocale.obj
 0001:00041ef8       __acrt_copy_locale_name    0000000180042ef8 f   libucrt:wsetlocale.obj
 0001:00041f7c       __acrt_set_locale_changed  0000000180042f7c f   libucrt:wsetlocale.obj
 0001:00041f88       __acrt_uninitialize_locale 0000000180042f88 f   libucrt:wsetlocale.obj
 0001:00041fb8       __lc_lctowcs               0000000180042fb8 f   libucrt:wsetlocale.obj
 0001:0004205c       __lc_wcstolc               000000018004305c f   libucrt:wsetlocale.obj
 0001:00042704       _wcscats                   0000000180043704 f   libucrt:wsetlocale.obj
 0001:0004276c       _wsetlocale                000000018004376c f   libucrt:wsetlocale.obj
 0001:000434a8       _query_app_type            00000001800444a8 f   libucrt:report_runtime_error.obj
 0001:000435f0       _itow_s                    00000001800445f0 f   libucrt:xtoa.obj
 0001:00043610       _set_error_mode            0000000180044610 f   libucrt:set_error_mode.obj
 0001:00043650       wcscat_s                   0000000180044650 f   libucrt:wcscat_s.obj
 0001:000436d4       wcscpy_s                   00000001800446d4 f   libucrt:wcscpy_s.obj
 0001:0004373c       wcsncat_s                  000000018004473c f   libucrt:wcsncat_s.obj
 0001:00043840       __acrt_GetModuleFileNameA  0000000180044840 f   libucrt:getmodulefilenamea.obj
 0001:00043964       __acrt_show_wide_message_box 0000000180044964 f   libucrt:crtmbox.obj
 0001:00043c24       __acrt_stdio_flush_nolock  0000000180044c24 f   libucrt:fflush.obj
 0001:00043cb0       _fflush_nolock             0000000180044cb0 f   libucrt:fflush.obj
 0001:00043d84       _flushall                  0000000180044d84 f   libucrt:fflush.obj
 0001:00043d8c       fflush                     0000000180044d8c f   libucrt:fflush.obj
 0001:00043f1c       setvbuf                    0000000180044f1c f   libucrt:setvbuf.obj
 0001:0004409c       __acrt_get_sigabrt_handler 000000018004509c f   libucrt:signal.obj
 0001:000440cc       __acrt_initialize_signal_handlers 00000001800450cc f   libucrt:signal.obj
 0001:000440ec       raise                      00000001800450ec f   libucrt:signal.obj
 0001:0004468c       __acrt_LCMapStringA        000000018004568c f   libucrt:lcmapstringa.obj
 0001:00044724       __acrt_update_locale_info  0000000180045724 f   libucrt:locale_update.obj
 0001:00044758       __acrt_update_locale_info_explicit 0000000180045758 f   libucrt:locale_update.obj
 0001:00044790       __acrt_update_multibyte_info 0000000180045790 f   libucrt:locale_update.obj
 0001:000447c4       __acrt_update_multibyte_info_explicit 00000001800457c4 f   libucrt:locale_update.obj
 0001:000447fc       _free_base                 00000001800457fc f   libucrt:free_base.obj
 0001:00044838       _malloc_base               0000000180045838 f   libucrt:malloc_base.obj
 0001:00044898       __acrt_MultiByteToWideChar 0000000180045898 f   libucrt:multibytetowidechar.obj
 0001:000448f4       __acrt_WideCharToMultiByte 00000001800458f4 f   libucrt:widechartomultibyte.obj
 0001:000449a4       _d_int                     00000001800459a4 f   libucrt:_test.obj
 0001:00044abc       _dtest                     0000000180045abc f   libucrt:_test.obj
 0001:00044b20       _calloc_base               0000000180045b20 f   libucrt:calloc_base.obj
 0001:00044e08       __acrt_AppPolicyGetProcessTerminationMethodInternal 0000000180045e08 f   libucrt:winapi_thunks.obj
 0001:00044e60       __acrt_AppPolicyGetShowDeveloperDiagnosticInternal 0000000180045e60 f   libucrt:winapi_thunks.obj
 0001:00044eb8       __acrt_AppPolicyGetWindowingModelInternal 0000000180045eb8 f   libucrt:winapi_thunks.obj
 0001:00044f10       __acrt_AreFileApisANSI     0000000180045f10 f   libucrt:winapi_thunks.obj
 0001:00044f54       __acrt_CompareStringEx     0000000180045f54 f   libucrt:winapi_thunks.obj
 0001:00045040       __acrt_EnumSystemLocalesEx 0000000180046040 f   libucrt:winapi_thunks.obj
 0001:000450e0       __acrt_FlsAlloc            00000001800460e0 f   libucrt:winapi_thunks.obj
 0001:000450e8       __acrt_FlsFree             00000001800460e8 f   libucrt:winapi_thunks.obj
 0001:000450f0       __acrt_FlsGetValue         00000001800460f0 f   libucrt:winapi_thunks.obj
 0001:000450f8       __acrt_FlsSetValue         00000001800460f8 f   libucrt:winapi_thunks.obj
 0001:00045100       __acrt_GetDateFormatEx     0000000180046100 f   libucrt:winapi_thunks.obj
 0001:000451c0       __acrt_GetLocaleInfoEx     00000001800461c0 f   libucrt:winapi_thunks.obj
 0001:00045250       __acrt_GetTimeFormatEx     0000000180046250 f   libucrt:winapi_thunks.obj
 0001:00045304       __acrt_GetUserDefaultLocaleName 0000000180046304 f   libucrt:winapi_thunks.obj
 0001:00045370       __acrt_InitializeCriticalSectionEx 0000000180046370 f   libucrt:winapi_thunks.obj
 0001:000453e0       __acrt_IsValidLocaleName   00000001800463e0 f   libucrt:winapi_thunks.obj
 0001:00045444       __acrt_LCIDToLocaleName    0000000180046444 f   libucrt:winapi_thunks.obj
 0001:000454c8       __acrt_LCMapStringEx       00000001800464c8 f   libucrt:winapi_thunks.obj
 0001:000455b4       __acrt_LocaleNameToLCID    00000001800465b4 f   libucrt:winapi_thunks.obj
 0001:00045614       __acrt_MessageBoxW         0000000180046614 f   libucrt:winapi_thunks.obj
 0001:00045690       __acrt_can_show_message_box 0000000180046690 f   libucrt:winapi_thunks.obj
 0001:00045700       __acrt_can_use_vista_locale_apis 0000000180046700 f   libucrt:winapi_thunks.obj
 0001:00045730       __acrt_eagerly_load_locale_apis 0000000180046730 f   libucrt:winapi_thunks.obj
 0001:0004588c       __acrt_get_parent_window   000000018004688c f   libucrt:winapi_thunks.obj
 0001:00045918       __acrt_initialize_winapi_thunks 0000000180046918 f   libucrt:winapi_thunks.obj
 0001:0004594c       __acrt_is_interactive      000000018004694c f   libucrt:winapi_thunks.obj
 0001:00045a2c       __acrt_uninitialize_winapi_thunks 0000000180046a2c f   libucrt:winapi_thunks.obj
 0001:00045a70       _fcloseall                 0000000180046a70 f   libucrt:closeall.obj
 0001:00045b24       __acrt_stdio_free_buffer_nolock 0000000180046b24 f   libucrt:_freebuf.obj
 0001:00045d5c       __acrt_initialize_lowio    0000000180046d5c f   libucrt:ioinit.obj
 0001:00045d98       __acrt_uninitialize_lowio  0000000180046d98 f   libucrt:ioinit.obj
 0001:00046908       __acrt_fp_format           0000000180047908 f   libucrt:cvt.obj
 0001:00046bf0       _wctomb_internal           0000000180047bf0 f   libucrt:wctomb.obj
 0001:00046da0       _mbtowc_internal           0000000180047da0 f   libucrt:mbtowc.obj
 0001:00046f18       _get_printf_count_output   0000000180047f18 f   libucrt:printf_count_output.obj
 0001:00046f30       _fputwc_nolock_internal    0000000180047f30 f   libucrt:fputwc.obj
 0001:000470bc       _fputc_nolock_internal     00000001800480bc f   libucrt:fputc.obj
 0001:000470d4       __acrt_should_use_temporary_buffer 00000001800480d4 f   libucrt:_sftbuf.obj
 0001:0004711c       __acrt_stdio_begin_temporary_buffering_nolock 000000018004811c f   libucrt:_sftbuf.obj
 0001:000471e4       __acrt_stdio_end_temporary_buffering_nolock 00000001800481e4 f   libucrt:_sftbuf.obj
 0001:00047618       _lseek_internal            0000000180048618 f   libucrt:lseek.obj
 0001:00047620       _lseeki64                  0000000180048620 f   libucrt:lseek.obj
 0001:000476bc       _lseeki64_internal         00000001800486bc f   libucrt:lseek.obj
 0001:000476c4       _lseeki64_nolock           00000001800486c4 f   libucrt:lseek.obj
 0001:00047760       _lseeki64_nolock_internal  0000000180048760 f   libucrt:lseek.obj
 0001:00047c14       _read                      0000000180048c14 f   libucrt:read.obj
 0001:00047d30       _read_nolock               0000000180048d30 f   libucrt:read.obj
 0001:0004817c       ?__acrt_stdio_allocate_stream@@YA?AV__crt_stdio_stream@@XZ 000000018004917c f   libucrt:stream.obj
 0001:000481d4       ?__acrt_stdio_free_stream@@YAXV__crt_stdio_stream@@@Z 00000001800491d4 f   libucrt:stream.obj
 0001:000482dc       ??$__acrt_stdio_parse_mode@D@@YA?AU__acrt_stdio_stream_mode@@QEBD@Z 00000001800492dc f i libucrt:openfile.obj
 0001:000485a0       _openfile                  00000001800495a0 f   libucrt:openfile.obj
 0001:000486b4       _close_internal            00000001800496b4 f   libucrt:close.obj
 0001:00048778       _close_nolock              0000000180049778 f   libucrt:close.obj
 0001:00048810       _close_nolock_internal     0000000180049810 f   libucrt:close.obj
 0001:000488e0       __acrt_stdio_refill_and_read_narrow_nolock 00000001800498e0 f   libucrt:_filbuf.obj
 0001:00048a4c       _getdrive                  0000000180049a4c f   libucrt:drive.obj
 0001:00048b44       wcspbrk                    0000000180049b44 f   libucrt:wcspbrk.obj
 0001:00048b78       __ascii_wcsicmp            0000000180049b78 f   libucrt:wcsicmp.obj
 0001:00048bb8       _wcsicmp                   0000000180049bb8 f   libucrt:wcsicmp.obj
 0001:00048c00       _wcsicmp_l                 0000000180049c00 f   libucrt:wcsicmp.obj
 0001:00048d28       __acrt_lowio_create_handle_array 0000000180049d28 f   libucrt:osfinfo.obj
 0001:00048dd0       __acrt_lowio_destroy_handle_array 0000000180049dd0 f   libucrt:osfinfo.obj
 0001:00048e20       __acrt_lowio_ensure_fh_exists 0000000180049e20 f   libucrt:osfinfo.obj
 0001:00048ec8       __acrt_lowio_lock_fh       0000000180049ec8 f   libucrt:osfinfo.obj
 0001:00048ef0       __acrt_lowio_set_os_handle 0000000180049ef0 f   libucrt:osfinfo.obj
 0001:00048fb0       __acrt_lowio_unlock_fh     0000000180049fb0 f   libucrt:osfinfo.obj
 0001:00048fd8       _alloc_osfhnd              0000000180049fd8 f   libucrt:osfinfo.obj
 0001:00049118       _free_osfhnd               000000018004a118 f   libucrt:osfinfo.obj
 0001:000491d4       _get_osfhandle             000000018004a1d4 f   libucrt:osfinfo.obj
 0001:00049478       __loctotime64_t            000000018004a478 f   libucrt:loctotime.obj
 0001:000497a0       mbstowcs_s                 000000018004a7a0 f   libucrt:mbstowcs.obj
 0001:00049ca8       _wcstombs_s_l              000000018004aca8 f   libucrt:wcstombs.obj
 0001:00049d60       _isctype_l                 000000018004ad60 f   libucrt:isctype.obj
 0001:00049fec       __acrt_GetLocaleInfoA      000000018004afec f   libucrt:getlocaleinfoa.obj
 0001:0004a1b4       __acrt_GetStringTypeA      000000018004b1b4 f   libucrt:getstringtypea.obj
 0001:0004a350       _dclass                    000000018004b350 f   libucrt:nan.obj
 0001:0004a36c       _raise_exc                 000000018004b36c f   libucrt:fpexcept.obj
 0001:0004a394       _raise_exc_ex              000000018004b394 f   libucrt:fpexcept.obj
 0001:0004a6a4       _raise_excf                000000018004b6a4 f   libucrt:fpexcept.obj
 0001:0004a6d0       _set_errno_from_matherr    000000018004b6d0 f   libucrt:fpexcept.obj
 0001:0004a700       _clrfp                     000000018004b700 f   libucrt:fpctrl.obj
 0001:0004a720       _ctrlfp                    000000018004b720 f   libucrt:fpctrl.obj
 0001:0004a79c       _set_statfp                000000018004b79c f   libucrt:fpctrl.obj
 0001:0004a7bc       _statfp                    000000018004b7bc f   libucrt:fpctrl.obj
 0001:0004a7d0       _realloc_base              000000018004b7d0 f   libucrt:realloc_base.obj
 0001:0004a84c       iswctype                   000000018004b84c f   libucrt:iswctype.obj
 0001:0004a8b8       fegetround                 000000018004b8b8 f   libucrt:fegetround.obj
 0001:0004a8d0       __acrt_initialize_fma3     000000018004b8d0 f   libucrt:fma3_available.obj
 0001:0004a940       _pow_special               000000018004b940 f   libucrt:pow_special.obj
 0001:0004aa64       _powf_special              000000018004ba64 f   libucrt:pow_special.obj
 0001:0004abb0       __acrt_initialize_timeset  000000018004bbb0 f   libucrt:timeset.obj
 0001:0004ac00       __daylight                 000000018004bc00 f   libucrt:timeset.obj
 0001:0004ac08       __dstbias                  000000018004bc08 f   libucrt:timeset.obj
 0001:0004ac10       __timezone                 000000018004bc10 f   libucrt:timeset.obj
 0001:0004ac18       __tzname                   000000018004bc18 f   libucrt:timeset.obj
 0001:0004ac20       __wide_tzname              000000018004bc20 f   libucrt:timeset.obj
 0001:0004ac28       _get_daylight              000000018004bc28 f   libucrt:timeset.obj
 0001:0004ac58       _get_dstbias               000000018004bc58 f   libucrt:timeset.obj
 0001:0004ac88       _get_timezone              000000018004bc88 f   libucrt:timeset.obj
 0001:0004b81c       __tzset                    000000018004c81c f   libucrt:tzset.obj
 0001:0004b85c       _isindst                   000000018004c85c f   libucrt:tzset.obj
 0001:0004b88c       __acrt_get_developer_information_policy 000000018004c88c f   libucrt:win_policies.obj
 0001:0004b8e0       __acrt_get_process_end_policy 000000018004c8e0 f   libucrt:win_policies.obj
 0001:0004b91c       __acrt_get_windowing_model_policy 000000018004c91c f   libucrt:win_policies.obj
 0001:0004b99c       ??$__acrt_convert_wcs_mbs_cp@_WDV<lambda_d8593a27d1aa8c02be35c86a17d324c4>@@U__crt_win32_buffer_internal_dynamic_resizing@@@@YAHQEB_WAEAV?$__crt_win32_buffer@DU__crt_win32_buffer_internal_dynamic_resizing@@@@AEBV<lambda_d8593a27d1aa8c02be35c86a17d324c4>@@I@Z 000000018004c99c f i libucrt:argv_wildcards.obj
 0001:0004c244       __acrt_expand_narrow_argv_wildcards 000000018004d244 f   libucrt:argv_wildcards.obj
 0001:0004ca44       __acrt_initialize_multibyte 000000018004da44 f   libucrt:mbctype.obj
 0001:0004caa4       __acrt_update_thread_multibyte_data 000000018004daa4 f   libucrt:mbctype.obj
 0001:0004cac0       _setmbcp_nolock            000000018004dac0 f   libucrt:mbctype.obj
 0001:0004cdf4       _ismbblead                 000000018004ddf4 f   libucrt:ismbbyte.obj
 0001:0004ce08       __acrt_initialize_command_line 000000018004de08 f   libucrt:argv_data.obj
 0001:0004ce30       __dcrt_get_narrow_environment_from_os 000000018004de30 f   libucrt:get_environment_from_os.obj
 0001:0004cf40       __dcrt_get_wide_environment_from_os 000000018004df40 f   libucrt:get_environment_from_os.obj
 0001:0004d430       __dcrt_set_variable_in_wide_environment_nolock 000000018004e430 f   libucrt:setenv.obj
 0001:0004d438       _recalloc_base             000000018004e438 f   libucrt:recalloc.obj
 0001:0004d4d0       __acrt_initialize_heap     000000018004e4d0 f   libucrt:heap_handle.obj
 0001:0004d4ec       __acrt_uninitialize_heap   000000018004e4ec f   libucrt:heap_handle.obj
 0001:0004d4f8       __acrt_execute_initializers 000000018004e4f8 f   libucrt:shared_initialization.obj
 0001:0004d58c       __acrt_execute_uninitializers 000000018004e58c f   libucrt:shared_initialization.obj
 0001:0004d5d4       __acrt_has_user_matherr    000000018004e5d4 f   libucrt:matherr.obj
 0001:0004d5f4       __acrt_initialize_user_matherr 000000018004e5f4 f   libucrt:matherr.obj
 0001:0004d5fc       __acrt_invoke_user_matherr 000000018004e5fc f   libucrt:matherr.obj
 0001:0004d634       __acrt_add_locale_ref      000000018004e634 f   libucrt:locale_refcounting.obj
 0001:0004d6c0       __acrt_free_locale         000000018004e6c0 f   libucrt:locale_refcounting.obj
 0001:0004d838       __acrt_locale_add_lc_time_reference 000000018004e838 f   libucrt:locale_refcounting.obj
 0001:0004d860       __acrt_locale_free_lc_time_if_unreferenced 000000018004e860 f   libucrt:locale_refcounting.obj
 0001:0004d898       __acrt_locale_release_lc_time_reference 000000018004e898 f   libucrt:locale_refcounting.obj
 0001:0004d8c0       __acrt_release_locale_ref  000000018004e8c0 f   libucrt:locale_refcounting.obj
 0001:0004d968       __acrt_update_thread_locale_data 000000018004e968 f   libucrt:locale_refcounting.obj
 0001:0004d9d8       _updatetlocinfoEx_nolock   000000018004e9d8 f   libucrt:locale_refcounting.obj
 0001:0004da40       __acrt_locale_free_monetary 000000018004ea40 f   libucrt:initmon.obj
 0001:0004db4c       __acrt_locale_initialize_monetary 000000018004eb4c f   libucrt:initmon.obj
 0001:0004e080       __acrt_locale_free_numeric 000000018004f080 f   libucrt:initnum.obj
 0001:0004e0ec       __acrt_locale_initialize_numeric 000000018004f0ec f   libucrt:initnum.obj
 0001:0004e744       __acrt_locale_free_time    000000018004f744 f   libucrt:inittime.obj
 0001:0004e84c       __acrt_locale_initialize_time 000000018004f84c f   libucrt:inittime.obj
 0001:0004e8e8       wcsncpy_s                  000000018004f8e8 f   libucrt:wcsncpy_s.obj
 0001:0004e9e4       wcscspn                    000000018004f9e4 f   libucrt:wcscspn.obj
 0001:0004f1d8       __acrt_get_qualified_locale 00000001800501d8 f   libucrt:get_qualified_locale.obj
 0001:0004fc0c       __acrt_get_qualified_locale_downlevel 0000000180050c0c f   libucrt:getqloc_downlevel.obj
 0001:0004ff18       _commit                    0000000180050f18 f   libucrt:commit.obj
 0001:000507c8       _write                     00000001800517c8 f   libucrt:write.obj
 0001:00050860       _write_internal            0000000180051860 f   libucrt:write.obj
 0001:00050988       _write_nolock              0000000180051988 f   libucrt:write.obj
 0001:00050c98       _query_new_mode            0000000180051c98 f   libucrt:new_mode.obj
 0001:00050ca0       __acrt_fenv_get_common_round_control 0000000180051ca0 f   libucrt:_fenvutils.obj
 0001:00050cac       __acrt_fenv_get_control    0000000180051cac f   libucrt:_fenvutils.obj
 0001:00050d90       __acrt_fenv_get_status     0000000180051d90 f   libucrt:_fenvutils.obj
 0001:00050de8       __acrt_fenv_set_control    0000000180051de8 f   libucrt:_fenvutils.obj
 0001:00050f24       __acrt_fenv_set_status     0000000180051f24 f   libucrt:_fenvutils.obj
 0001:00050f98       __acrt_DownlevelLCIDToLocaleName 0000000180051f98 f   libucrt:lcidtoname_downlevel.obj
 0001:00051080       __acrt_DownlevelLocaleNameToLCID 0000000180052080 f   libucrt:lcidtoname_downlevel.obj
 0001:00051128       __acrt_fp_strflt_to_string 0000000180052128 f   libucrt:_fptostr.obj
 0001:000512ac       __acrt_fltout              00000001800522ac f   libucrt:cfout.obj
 0001:000524ec       ?__c32rtomb_utf8@__crt_mbstring@@YA_KPEAD_UPEAU_Mbstatet@@AEAV__crt_cached_ptd_host@@@Z 00000001800534ec f   libucrt:c32rtomb.obj
 0001:00052590       ?__mbrtowc_utf8@__crt_mbstring@@YA_KPEA_WPEBD_KPEAU_Mbstatet@@AEAV__crt_cached_ptd_host@@@Z 0000000180053590 f   libucrt:mbrtowc.obj
 0001:000525d4       ?__mbsrtowcs_utf8@__crt_mbstring@@YA_KPEA_WPEAPEBD_KPEAU_Mbstatet@@AEAV__crt_cached_ptd_host@@@Z 00000001800535d4 f   libucrt:mbrtowc.obj
 0001:000529e8       __acrt_stdio_flush_and_write_narrow_nolock 00000001800539e8 f   libucrt:_flsbuf.obj
 0001:00052aac       __acrt_stdio_flush_and_write_wide_nolock 0000000180053aac f   libucrt:_flsbuf.obj
 0001:00052b70       _isatty                    0000000180053b70 f   libucrt:isatty.obj
 0001:00052bd0       __ascii_wcsnicmp           0000000180053bd0 f   libucrt:wcsnicmp.obj
 0001:00052c1c       _wcsnicmp                  0000000180053c1c f   libucrt:wcsnicmp.obj
 0001:00052c64       _wcsnicmp_l                0000000180053c64 f   libucrt:wcsnicmp.obj
 0001:00052db4       __ascii_strnicmp           0000000180053db4 f   libucrt:strnicmp.obj
 0001:00052e00       _strnicmp                  0000000180053e00 f   libucrt:strnicmp.obj
 0001:00052e50       _strnicmp_l                0000000180053e50 f   libucrt:strnicmp.obj
 0001:0005350c       _sopen_nolock              000000018005450c f   libucrt:open.obj
 0001:00053628       _sopen_s                   0000000180054628 f   libucrt:open.obj
 0001:0005365c       _wsopen_nolock             000000018005465c f   libucrt:open.obj
 0001:00053a4c       __acrt_stdio_allocate_buffer_nolock 0000000180054a4c f   libucrt:_getbuf.obj
 0001:00053ab8       _towlower_l                0000000180054ab8 f   libucrt:towlower.obj
 0001:00053bb0       ?__wcsrtombs_utf8@__crt_mbstring@@YA_KPEADPEAPEB_W_KPEAU_Mbstatet@@AEAV__crt_cached_ptd_host@@@Z 0000000180054bb0 f   libucrt:wcrtomb.obj
 0001:00053d04       strncpy_s                  0000000180054d04 f   libucrt:strncpy_s.obj
 0001:00053e10       _get_fpsr                  0000000180054e10 f   libucrt:fpsr.obj
 0001:00053e20       _set_fpsr                  0000000180054e20 f   libucrt:fpsr.obj
 0001:00053e2a       _fclrf                     0000000180054e2a f   libucrt:fpsr.obj
 0001:00053e3e       _frnd                      0000000180054e3e f   libucrt:fpsr.obj
 0001:00053e60       __acrt_GetStringTypeW      0000000180054e60 f   libucrt:getstringtypew.obj
 0001:00053f8c       _handle_error              0000000180054f8c f   libucrt:libm_error.obj
 0001:000540b4       _handle_errorf             00000001800550b4 f   libucrt:libm_error.obj
 0001:000541e8       _handle_nan                00000001800551e8 f   libucrt:libm_error.obj
 0001:00054204       _handle_nanf               0000000180055204 f   libucrt:libm_error.obj
 0001:00054214       wcstol                     0000000180055214 f   libucrt:strtox.obj
 0001:00054458       _wgetenv_s                 0000000180055458 f   libucrt:getenv.obj
 0001:00054460       qsort                      0000000180055460 f   libucrt:qsort.obj
 0001:00054910       strpbrk                    0000000180055910 f   libucrt:strpbrk.obj
 0001:00054cd8       _mbsdec                    0000000180055cd8 f   libucrt:mbsdec.obj
 0001:00054ce0       _mbsdec_l                  0000000180055ce0 f   libucrt:mbsdec.obj
 0001:00054d8c       _wcsnicoll                 0000000180055d8c f   libucrt:wcsnicol.obj
 0001:00054ddc       _wcsnicoll_l               0000000180055ddc f   libucrt:wcsnicol.obj
 0001:00054ecc       _msize_base                0000000180055ecc f   libucrt:msize.obj
 0001:00054f08       wcscmp                     0000000180055f08 f   libucrt:wcscmp.obj
 0001:00054f40       _putwch_nolock             0000000180055f40 f   libucrt:putwch.obj
 0001:00054f7c       _controlfp_s               0000000180055f7c f   libucrt:contrlfp.obj
 0001:00054fe0       fegetenv                   0000000180055fe0 f   libucrt:fegetenv.obj
 0001:00055000       fesetenv                   0000000180056000 f   libucrt:fesetenv.obj
 0001:0005504c       feholdexcept               000000018005604c f   libucrt:feholdexcept.obj
 0001:0005509c       ceil                       000000018005609c f   libucrt:ceil.obj
 0001:00055160       log10                      0000000180056160 f   libucrt:log10.obj
 0001:0005570c       ?reset_and_return@__crt_mbstring@@YA_K_KPEAU_Mbstatet@@@Z 000000018005670c f   libucrt:common_utf8.obj
 0001:00055714       ?return_illegal_sequence@__crt_mbstring@@YA_KPEAU_Mbstatet@@AEAV__crt_cached_ptd_host@@@Z 0000000180056714 f   libucrt:common_utf8.obj
 0001:00055728       ?__mbrtoc32_utf8@__crt_mbstring@@YA_KPEA_UPEBD_KPEAU_Mbstatet@@AEAV__crt_cached_ptd_host@@@Z 0000000180056728 f   libucrt:mbrtoc32.obj
 0001:00055904       _get_fmode                 0000000180056904 f   libucrt:setmode.obj
 0001:00055934       _setmode_nolock            0000000180056934 f   libucrt:setmode.obj
 0001:00055a14       _chsize_nolock             0000000180056a14 f   libucrt:chsize.obj
 0001:00055aac       _chsize_nolock_internal    0000000180056aac f   libucrt:chsize.obj
 0001:00055c40       __acrt_LCMapStringW        0000000180056c40 f   libucrt:lcmapstringw.obj
 0001:00055cc8       ?__c16rtomb_utf8@__crt_mbstring@@YA_KPEAD_SPEAU_Mbstatet@@AEAV__crt_cached_ptd_host@@@Z 0000000180056cc8 f   libucrt:c16rtomb.obj
 0001:00055d6c       __acrt_CompareStringW      0000000180056d6c f   libucrt:comparestringw.obj
 0001:00055e2c       __dcrt_lowio_ensure_console_output_initialized 0000000180056e2c f   libucrt:initcon.obj
 0001:00055e80       __dcrt_terminate_console_output 0000000180056e80 f   libucrt:initcon.obj
 0001:00055e9c       __dcrt_write_console       0000000180056e9c f   libucrt:initcon.obj
 0001:00055f5c       _clearfp                   0000000180056f5c f   libucrt:ieee.obj
 0001:00055fcc       _control87                 0000000180056fcc f   libucrt:ieee.obj
 0001:000562a0       _log10_special             00000001800572a0 f   libucrt:log_special.obj
 0001:00056358       __acrt_initialize_fmode    0000000180057358 f   libucrt:txtmode.obj
 0001:00056371       RtlUnwind                  0000000180057371 f   kernel32:KERNEL32.dll
 0001:00056378       ?DloadAcquireSectionWriteAccess@@YAXXZ 0000000180057378 f i DelayImp:delayhlp.obj
 0001:00056424       ?DloadGetSRWLockFunctionPointers@@YAEXZ 0000000180057424 f i DelayImp:delayhlp.obj
 0001:000564c0       ?DloadMakePermanentImageCommit@@YAXPEAX_K@Z 00000001800574c0 f i DelayImp:delayhlp.obj
 0001:00056558       ?DloadObtainSection@@YAPEAXPEAK0@Z 0000000180057558 f i DelayImp:delayhlp.obj
 0001:000565f4       ?DloadProtectSection@@YAXKPEAK@Z 00000001800575f4 f i DelayImp:delayhlp.obj
 0001:00056684       ?DloadReleaseSectionWriteAccess@@YAXXZ 0000000180057684 f i DelayImp:delayhlp.obj
 0001:00056718       __delayLoadHelper2         0000000180057718 f   DelayImp:delayhlp.obj
 0001:000569f0       _FindPESection             00000001800579f0 f   LIBCMT:pesect.obj
 0001:00056a40       _IsNonwritableInCurrentImage 0000000180057a40 f   LIBCMT:pesect.obj
 0001:00056a90       _ValidateImageBase         0000000180057a90 f   LIBCMT:pesect.obj
 0001:00056ac0       __GSHandlerCheck_SEH       0000000180057ac0 f   LIBCMT:gshandlerseh.obj
 0001:00056b48       __GSHandlerCheck_EH        0000000180057b48 f   LIBCMT:gshandlereh.obj
 0001:00056bc8       __C_specific_handler_noexcept 0000000180057bc8 f   libvcruntime:chandler_noexcept.obj
 0001:00056c14       wcsrchr                    0000000180057c14 f   libvcruntime:wcsrchr.obj
 0001:00056cc4       strrchr                    0000000180057cc4 f   libvcruntime:strrchr.obj
 0001:00056df0       wcschr                     0000000180057df0 f   libvcruntime:wcschr.obj
 0001:00056e70       acos                       0000000180057e70 f   libucrt:acos.obj
 0001:00057110       acosf                      0000000180058110 f   libucrt:acosf.obj
 0001:0005733c       ceilf                      000000018005833c f   libucrt:ceilf.obj
 0001:000573c4       floor                      00000001800583c4 f   libucrt:floor.obj
 0001:00057480       fmod                       0000000180058480 f   libucrt:fmod.obj
 0001:00057754       fmodf                      0000000180058754 f   libucrt:fmodf.obj
 0001:00057998       sqrt                       0000000180058998 f   libucrt:sqrt.obj
 0001:00057a64       sqrtf                      0000000180058a64 f   libucrt:sqrtf.obj
 0001:00057b20       strcmp                     0000000180058b20 f   libucrt:strcmp.obj
 0001:00057b90       tan                        0000000180058b90 f   libucrt:tan.obj
 0001:000583cc       _tan_special               00000001800593cc f   libucrt:sincos_special.obj
 0001:000583e0       __remainder_piby2_fma3     00000001800593e0 f   libucrt:remainder_piby2_forfma3.obj
 0001:000585d0       __remainder_piby2_fma3_bdl 00000001800595d0 f   libucrt:remainder_piby2_forfma3.obj
 0001:00058650       __remainder_piby2_forAsm   0000000180059650 f   libucrt:remainder_piby2_forasm.obj
 0001:00058860       __remainder_piby2_cw_forAsm 0000000180059860 f   libucrt:remainder_piby2_forasm.obj
 0001:000589b0       _guard_dispatch_icall_nop  00000001800599b0 f   LIBCMT:guard_dispatch.obj
 0001:000589d0       _guard_xfg_dispatch_icall_nop 00000001800599d0 f   LIBCMT:guard_xfg_dispatch.obj
 0001:000589f0       __longjmp_internal         00000001800599f0 f   libvcruntime:longjmp.obj
 0001:00058af0       __intrinsic_setjmp         0000000180059af0 f   libvcruntime:setjmp.obj
 0001:00058af0       _setjmp                    0000000180059af0 f   libvcruntime:setjmp.obj
 0001:00058b90       setjmp                     0000000180059b90 f   libvcruntime:setjmp.obj
 0002:00000000       __imp_cairo_append_path    000000018005d000     libcairo-2:D__a__temp_msys64_mingw64_lib_libcairo_2_lib_s01102.o
 0002:00000008       __imp_cairo_arc            000000018005d008     libcairo-2:D__a__temp_msys64_mingw64_lib_libcairo_2_lib_s01103.o
 0002:00000010       __imp_cairo_arc_negative   000000018005d010     libcairo-2:D__a__temp_msys64_mingw64_lib_libcairo_2_lib_s01104.o
 0002:00000018       __imp_cairo_clip           000000018005d018     libcairo-2:D__a__temp_msys64_mingw64_lib_libcairo_2_lib_s01105.o
 0002:00000020       __imp_cairo_clip_preserve  000000018005d020     libcairo-2:D__a__temp_msys64_mingw64_lib_libcairo_2_lib_s01107.o
 0002:00000028       __imp_cairo_close_path     000000018005d028     libcairo-2:D__a__temp_msys64_mingw64_lib_libcairo_2_lib_s01108.o
 0002:00000030       __imp_cairo_copy_path      000000018005d030     libcairo-2:D__a__temp_msys64_mingw64_lib_libcairo_2_lib_s01111.o
 0002:00000038       __imp_cairo_copy_path_flat 000000018005d038     libcairo-2:D__a__temp_msys64_mingw64_lib_libcairo_2_lib_s01112.o
 0002:00000040       __imp_cairo_create         000000018005d040     libcairo-2:D__a__temp_msys64_mingw64_lib_libcairo_2_lib_s01113.o
 0002:00000048       __imp_cairo_curve_to       000000018005d048     libcairo-2:D__a__temp_msys64_mingw64_lib_libcairo_2_lib_s01114.o
 0002:00000050       __imp_cairo_destroy        000000018005d050     libcairo-2:D__a__temp_msys64_mingw64_lib_libcairo_2_lib_s01116.o
 0002:00000058       __imp_cairo_fill           000000018005d058     libcairo-2:D__a__temp_msys64_mingw64_lib_libcairo_2_lib_s01139.o
 0002:00000060       __imp_cairo_fill_extents   000000018005d060     libcairo-2:D__a__temp_msys64_mingw64_lib_libcairo_2_lib_s01140.o
 0002:00000068       __imp_cairo_fill_preserve  000000018005d068     libcairo-2:D__a__temp_msys64_mingw64_lib_libcairo_2_lib_s01141.o
 0002:00000070       __imp_cairo_format_stride_for_width 000000018005d070     libcairo-2:D__a__temp_msys64_mingw64_lib_libcairo_2_lib_s01167.o
 0002:00000078       __imp_cairo_get_antialias  000000018005d078     libcairo-2:D__a__temp_msys64_mingw64_lib_libcairo_2_lib_s01176.o
 0002:00000080       __imp_cairo_get_current_point 000000018005d080     libcairo-2:D__a__temp_msys64_mingw64_lib_libcairo_2_lib_s01177.o
 0002:00000088       __imp_cairo_get_dash       000000018005d088     libcairo-2:D__a__temp_msys64_mingw64_lib_libcairo_2_lib_s01178.o
 0002:00000090       __imp_cairo_get_dash_count 000000018005d090     libcairo-2:D__a__temp_msys64_mingw64_lib_libcairo_2_lib_s01179.o
 0002:00000098       __imp_cairo_get_line_cap   000000018005d098     libcairo-2:D__a__temp_msys64_mingw64_lib_libcairo_2_lib_s01186.o
 0002:000000a0       __imp_cairo_get_line_join  000000018005d0a0     libcairo-2:D__a__temp_msys64_mingw64_lib_libcairo_2_lib_s01187.o
 0002:000000a8       __imp_cairo_get_line_width 000000018005d0a8     libcairo-2:D__a__temp_msys64_mingw64_lib_libcairo_2_lib_s01188.o
 0002:000000b0       __imp_cairo_get_matrix     000000018005d0b0     libcairo-2:D__a__temp_msys64_mingw64_lib_libcairo_2_lib_s01189.o
 0002:000000b8       __imp_cairo_get_miter_limit 000000018005d0b8     libcairo-2:D__a__temp_msys64_mingw64_lib_libcairo_2_lib_s01190.o
 0002:000000c0       __imp_cairo_get_operator   000000018005d0c0     libcairo-2:D__a__temp_msys64_mingw64_lib_libcairo_2_lib_s01191.o
 0002:000000c8       __imp_cairo_get_source     000000018005d0c8     libcairo-2:D__a__temp_msys64_mingw64_lib_libcairo_2_lib_s01194.o
 0002:000000d0       __imp_cairo_identity_matrix 000000018005d0d0     libcairo-2:D__a__temp_msys64_mingw64_lib_libcairo_2_lib_s01203.o
 0002:000000d8       __imp_cairo_image_surface_create 000000018005d0d8     libcairo-2:D__a__temp_msys64_mingw64_lib_libcairo_2_lib_s01204.o
 0002:000000e0       __imp_cairo_image_surface_create_for_data 000000018005d0e0     libcairo-2:D__a__temp_msys64_mingw64_lib_libcairo_2_lib_s01205.o
 0002:000000e8       __imp_cairo_image_surface_create_from_png 000000018005d0e8     libcairo-2:D__a__temp_msys64_mingw64_lib_libcairo_2_lib_s01206.o
 0002:000000f0       __imp_cairo_image_surface_create_from_png_stream 000000018005d0f0     libcairo-2:D__a__temp_msys64_mingw64_lib_libcairo_2_lib_s01207.o
 0002:000000f8       __imp_cairo_image_surface_get_data 000000018005d0f8     libcairo-2:D__a__temp_msys64_mingw64_lib_libcairo_2_lib_s01208.o
 0002:00000100       __imp_cairo_image_surface_get_format 000000018005d100     libcairo-2:D__a__temp_msys64_mingw64_lib_libcairo_2_lib_s01209.o
 0002:00000108       __imp_cairo_image_surface_get_height 000000018005d108     libcairo-2:D__a__temp_msys64_mingw64_lib_libcairo_2_lib_s01210.o
 0002:00000110       __imp_cairo_image_surface_get_stride 000000018005d110     libcairo-2:D__a__temp_msys64_mingw64_lib_libcairo_2_lib_s01211.o
 0002:00000118       __imp_cairo_image_surface_get_width 000000018005d118     libcairo-2:D__a__temp_msys64_mingw64_lib_libcairo_2_lib_s01212.o
 0002:00000120       __imp_cairo_in_fill        000000018005d120     libcairo-2:D__a__temp_msys64_mingw64_lib_libcairo_2_lib_s01214.o
 0002:00000128       __imp_cairo_in_stroke      000000018005d128     libcairo-2:D__a__temp_msys64_mingw64_lib_libcairo_2_lib_s01215.o
 0002:00000130       __imp_cairo_line_to        000000018005d130     libcairo-2:D__a__temp_msys64_mingw64_lib_libcairo_2_lib_s01216.o
 0002:00000138       __imp_cairo_mask_surface   000000018005d138     libcairo-2:D__a__temp_msys64_mingw64_lib_libcairo_2_lib_s01218.o
 0002:00000140       __imp_cairo_matrix_init    000000018005d140     libcairo-2:D__a__temp_msys64_mingw64_lib_libcairo_2_lib_s01219.o
 0002:00000148       __imp_cairo_matrix_invert  000000018005d148     libcairo-2:D__a__temp_msys64_mingw64_lib_libcairo_2_lib_s01224.o
 0002:00000150       __imp_cairo_move_to        000000018005d150     libcairo-2:D__a__temp_msys64_mingw64_lib_libcairo_2_lib_s01243.o
 0002:00000158       __imp_cairo_new_path       000000018005d158     libcairo-2:D__a__temp_msys64_mingw64_lib_libcairo_2_lib_s01244.o
 0002:00000160       __imp_cairo_paint          000000018005d160     libcairo-2:D__a__temp_msys64_mingw64_lib_libcairo_2_lib_s01246.o
 0002:00000168       __imp_cairo_paint_with_alpha 000000018005d168     libcairo-2:D__a__temp_msys64_mingw64_lib_libcairo_2_lib_s01247.o
 0002:00000170       __imp_cairo_path_destroy   000000018005d170     libcairo-2:D__a__temp_msys64_mingw64_lib_libcairo_2_lib_s01248.o
 0002:00000178       __imp_cairo_path_extents   000000018005d178     libcairo-2:D__a__temp_msys64_mingw64_lib_libcairo_2_lib_s01249.o
 0002:00000180       __imp_cairo_pattern_add_color_stop_rgba 000000018005d180     libcairo-2:D__a__temp_msys64_mingw64_lib_libcairo_2_lib_s01251.o
 0002:00000188       __imp_cairo_pattern_create_for_surface 000000018005d188     libcairo-2:D__a__temp_msys64_mingw64_lib_libcairo_2_lib_s01252.o
 0002:00000190       __imp_cairo_pattern_create_linear 000000018005d190     libcairo-2:D__a__temp_msys64_mingw64_lib_libcairo_2_lib_s01253.o
 0002:00000198       __imp_cairo_pattern_create_radial 000000018005d198     libcairo-2:D__a__temp_msys64_mingw64_lib_libcairo_2_lib_s01255.o
 0002:000001a0       __imp_cairo_pattern_destroy 000000018005d1a0     libcairo-2:D__a__temp_msys64_mingw64_lib_libcairo_2_lib_s01259.o
 0002:000001a8       __imp_cairo_pattern_get_color_stop_count 000000018005d1a8     libcairo-2:D__a__temp_msys64_mingw64_lib_libcairo_2_lib_s01260.o
 0002:000001b0       __imp_cairo_pattern_get_color_stop_rgba 000000018005d1b0     libcairo-2:D__a__temp_msys64_mingw64_lib_libcairo_2_lib_s01261.o
 0002:000001b8       __imp_cairo_pattern_get_filter 000000018005d1b8     libcairo-2:D__a__temp_msys64_mingw64_lib_libcairo_2_lib_s01263.o
 0002:000001c0       __imp_cairo_pattern_get_linear_points 000000018005d1c0     libcairo-2:D__a__temp_msys64_mingw64_lib_libcairo_2_lib_s01264.o
 0002:000001c8       __imp_cairo_pattern_get_radial_circles 000000018005d1c8     libcairo-2:D__a__temp_msys64_mingw64_lib_libcairo_2_lib_s01266.o
 0002:000001d0       __imp_cairo_pattern_get_surface 000000018005d1d0     libcairo-2:D__a__temp_msys64_mingw64_lib_libcairo_2_lib_s01269.o
 0002:000001d8       __imp_cairo_pattern_get_type 000000018005d1d8     libcairo-2:D__a__temp_msys64_mingw64_lib_libcairo_2_lib_s01270.o
 0002:000001e0       __imp_cairo_pattern_get_user_data 000000018005d1e0     libcairo-2:D__a__temp_msys64_mingw64_lib_libcairo_2_lib_s01271.o
 0002:000001e8       __imp_cairo_pattern_set_extend 000000018005d1e8     libcairo-2:D__a__temp_msys64_mingw64_lib_libcairo_2_lib_s01273.o
 0002:000001f0       __imp_cairo_pattern_set_filter 000000018005d1f0     libcairo-2:D__a__temp_msys64_mingw64_lib_libcairo_2_lib_s01274.o
 0002:000001f8       __imp_cairo_pattern_set_matrix 000000018005d1f8     libcairo-2:D__a__temp_msys64_mingw64_lib_libcairo_2_lib_s01275.o
 0002:00000200       __imp_cairo_pattern_set_user_data 000000018005d200     libcairo-2:D__a__temp_msys64_mingw64_lib_libcairo_2_lib_s01276.o
 0002:00000208       __imp_cairo_pdf_surface_create_for_stream 000000018005d208     libcairo-2:D__a__temp_msys64_mingw64_lib_libcairo_2_lib_s01281.o
 0002:00000210       __imp_cairo_pdf_surface_set_metadata 000000018005d210     libcairo-2:D__a__temp_msys64_mingw64_lib_libcairo_2_lib_s01284.o
 0002:00000218       __imp_cairo_pdf_surface_set_size 000000018005d218     libcairo-2:D__a__temp_msys64_mingw64_lib_libcairo_2_lib_s01286.o
 0002:00000220       __imp_cairo_pop_group_to_source 000000018005d220     libcairo-2:D__a__temp_msys64_mingw64_lib_libcairo_2_lib_s01290.o
 0002:00000228       __imp_cairo_push_group     000000018005d228     libcairo-2:D__a__temp_msys64_mingw64_lib_libcairo_2_lib_s01302.o
 0002:00000230       __imp_cairo_rectangle      000000018005d230     libcairo-2:D__a__temp_msys64_mingw64_lib_libcairo_2_lib_s01317.o
 0002:00000238       __imp_cairo_restore        000000018005d238     libcairo-2:D__a__temp_msys64_mingw64_lib_libcairo_2_lib_s01347.o
 0002:00000240       __imp_cairo_rotate         000000018005d240     libcairo-2:D__a__temp_msys64_mingw64_lib_libcairo_2_lib_s01348.o
 0002:00000248       __imp_cairo_save           000000018005d248     libcairo-2:D__a__temp_msys64_mingw64_lib_libcairo_2_lib_s01349.o
 0002:00000250       __imp_cairo_scale          000000018005d250     libcairo-2:D__a__temp_msys64_mingw64_lib_libcairo_2_lib_s01350.o
 0002:00000258       __imp_cairo_set_antialias  000000018005d258     libcairo-2:D__a__temp_msys64_mingw64_lib_libcairo_2_lib_s01377.o
 0002:00000260       __imp_cairo_set_dash       000000018005d260     libcairo-2:D__a__temp_msys64_mingw64_lib_libcairo_2_lib_s01378.o
 0002:00000268       __imp_cairo_set_fill_rule  000000018005d268     libcairo-2:D__a__temp_msys64_mingw64_lib_libcairo_2_lib_s01379.o
 0002:00000270       __imp_cairo_set_line_cap   000000018005d270     libcairo-2:D__a__temp_msys64_mingw64_lib_libcairo_2_lib_s01385.o
 0002:00000278       __imp_cairo_set_line_join  000000018005d278     libcairo-2:D__a__temp_msys64_mingw64_lib_libcairo_2_lib_s01386.o
 0002:00000280       __imp_cairo_set_line_width 000000018005d280     libcairo-2:D__a__temp_msys64_mingw64_lib_libcairo_2_lib_s01387.o
 0002:00000288       __imp_cairo_set_matrix     000000018005d288     libcairo-2:D__a__temp_msys64_mingw64_lib_libcairo_2_lib_s01388.o
 0002:00000290       __imp_cairo_set_miter_limit 000000018005d290     libcairo-2:D__a__temp_msys64_mingw64_lib_libcairo_2_lib_s01389.o
 0002:00000298       __imp_cairo_set_operator   000000018005d298     libcairo-2:D__a__temp_msys64_mingw64_lib_libcairo_2_lib_s01390.o
 0002:000002a0       __imp_cairo_set_source     000000018005d2a0     libcairo-2:D__a__temp_msys64_mingw64_lib_libcairo_2_lib_s01392.o
 0002:000002a8       __imp_cairo_set_source_rgba 000000018005d2a8     libcairo-2:D__a__temp_msys64_mingw64_lib_libcairo_2_lib_s01394.o
 0002:000002b0       __imp_cairo_set_source_surface 000000018005d2b0     libcairo-2:D__a__temp_msys64_mingw64_lib_libcairo_2_lib_s01395.o
 0002:000002b8       __imp_cairo_show_page      000000018005d2b8     libcairo-2:D__a__temp_msys64_mingw64_lib_libcairo_2_lib_s01399.o
 0002:000002c0       __imp_cairo_status         000000018005d2c0     libcairo-2:D__a__temp_msys64_mingw64_lib_libcairo_2_lib_s01402.o
 0002:000002c8       __imp_cairo_status_to_string 000000018005d2c8     libcairo-2:D__a__temp_msys64_mingw64_lib_libcairo_2_lib_s01403.o
 0002:000002d0       __imp_cairo_stroke         000000018005d2d0     libcairo-2:D__a__temp_msys64_mingw64_lib_libcairo_2_lib_s01404.o
 0002:000002d8       __imp_cairo_stroke_extents 000000018005d2d8     libcairo-2:D__a__temp_msys64_mingw64_lib_libcairo_2_lib_s01405.o
 0002:000002e0       __imp_cairo_stroke_preserve 000000018005d2e0     libcairo-2:D__a__temp_msys64_mingw64_lib_libcairo_2_lib_s01406.o
 0002:000002e8       __imp_cairo_surface_destroy 000000018005d2e8     libcairo-2:D__a__temp_msys64_mingw64_lib_libcairo_2_lib_s01412.o
 0002:000002f0       __imp_cairo_surface_finish 000000018005d2f0     libcairo-2:D__a__temp_msys64_mingw64_lib_libcairo_2_lib_s01413.o
 0002:000002f8       __imp_cairo_surface_flush  000000018005d2f8     libcairo-2:D__a__temp_msys64_mingw64_lib_libcairo_2_lib_s01414.o
 0002:00000300       __imp_cairo_surface_mark_dirty 000000018005d300     libcairo-2:D__a__temp_msys64_mingw64_lib_libcairo_2_lib_s01427.o
 0002:00000308       __imp_cairo_surface_mark_dirty_rectangle 000000018005d308     libcairo-2:D__a__temp_msys64_mingw64_lib_libcairo_2_lib_s01428.o
 0002:00000310       __imp_cairo_surface_set_mime_data 000000018005d310     libcairo-2:D__a__temp_msys64_mingw64_lib_libcairo_2_lib_s01442.o
 0002:00000318       __imp_cairo_surface_status 000000018005d318     libcairo-2:D__a__temp_msys64_mingw64_lib_libcairo_2_lib_s01445.o
 0002:00000320       __imp_cairo_svg_surface_create_for_stream 000000018005d320     libcairo-2:D__a__temp_msys64_mingw64_lib_libcairo_2_lib_s01452.o
 0002:00000328       __imp_cairo_transform      000000018005d328     libcairo-2:D__a__temp_msys64_mingw64_lib_libcairo_2_lib_s01471.o
 0002:00000330       __imp_cairo_translate      000000018005d330     libcairo-2:D__a__temp_msys64_mingw64_lib_libcairo_2_lib_s01472.o
 0002:00000338       __imp_cairo_user_to_device_distance 000000018005d338     libcairo-2:D__a__temp_msys64_mingw64_lib_libcairo_2_lib_s01485.o
 0002:00000340       __imp_cairo_version_string 000000018005d340     libcairo-2:D__a__temp_msys64_mingw64_lib_libcairo_2_lib_s01487.o
 0002:00000350       __imp_FT_Done_Face         000000018005d350     libfreetype-6:D__a__temp_msys64_mingw64_lib_libfreetype_6_lib_s00034.o
 0002:00000358       __imp_FT_Done_FreeType     000000018005d358     libfreetype-6:D__a__temp_msys64_mingw64_lib_libfreetype_6_lib_s00035.o
 0002:00000360       __imp_FT_Get_Sfnt_Name     000000018005d360     libfreetype-6:D__a__temp_msys64_mingw64_lib_libfreetype_6_lib_s00090.o
 0002:00000368       __imp_FT_Get_Sfnt_Name_Count 000000018005d368     libfreetype-6:D__a__temp_msys64_mingw64_lib_libfreetype_6_lib_s00091.o
 0002:00000370       __imp_FT_Get_Sfnt_Table    000000018005d370     libfreetype-6:D__a__temp_msys64_mingw64_lib_libfreetype_6_lib_s00092.o
 0002:00000378       __imp_FT_Init_FreeType     000000018005d378     libfreetype-6:D__a__temp_msys64_mingw64_lib_libfreetype_6_lib_s00113.o
 0002:00000380       __imp_FT_Open_Face         000000018005d380     libfreetype-6:D__a__temp_msys64_mingw64_lib_libfreetype_6_lib_s00139.o
 0002:00000390       __imp_DGifCloseFile        000000018005d390     libgif-7:D__a__temp_msys64_mingw64_lib_libgif_7_lib_s00000.o
 0002:00000398       __imp_DGifOpen             000000018005d398     libgif-7:D__a__temp_msys64_mingw64_lib_libgif_7_lib_s00014.o
 0002:000003a0       __imp_DGifSlurp            000000018005d3a0     libgif-7:D__a__temp_msys64_mingw64_lib_libgif_7_lib_s00018.o
 0002:000003b0       __imp_g_iconv              000000018005d3b0     libglib-2.0-0:D__a__temp_msys64_mingw64_lib_libglib_2_0_0_lib_s00532.o
 0002:000003b8       __imp_g_iconv_open         000000018005d3b8     libglib-2.0-0:D__a__temp_msys64_mingw64_lib_libglib_2_0_0_lib_s00534.o
 0002:000003c8       __imp_g_object_unref       000000018005d3c8     libgobject-2.0-0:D__a__temp_msys64_mingw64_lib_libgobject_2_0_0_lib_s00172.o
 0002:000003d8       __imp_jpeg_CreateCompress  000000018005d3d8     libjpeg-8:D__a__temp_msys64_mingw64_lib_libjpeg_8_lib_s00029.o
 0002:000003e0       __imp_jpeg_CreateDecompress 000000018005d3e0     libjpeg-8:D__a__temp_msys64_mingw64_lib_libjpeg_8_lib_s00030.o
 0002:000003e8       __imp_jpeg_abort_decompress 000000018005d3e8     libjpeg-8:D__a__temp_msys64_mingw64_lib_libjpeg_8_lib_s00033.o
 0002:000003f0       __imp_jpeg_destroy_compress 000000018005d3f0     libjpeg-8:D__a__temp_msys64_mingw64_lib_libjpeg_8_lib_s00046.o
 0002:000003f8       __imp_jpeg_destroy_decompress 000000018005d3f8     libjpeg-8:D__a__temp_msys64_mingw64_lib_libjpeg_8_lib_s00047.o
 0002:00000400       __imp_jpeg_finish_compress 000000018005d400     libjpeg-8:D__a__temp_msys64_mingw64_lib_libjpeg_8_lib_s00052.o
 0002:00000408       __imp_jpeg_finish_decompress 000000018005d408     libjpeg-8:D__a__temp_msys64_mingw64_lib_libjpeg_8_lib_s00053.o
 0002:00000410       __imp_jpeg_mem_src         000000018005d410     libjpeg-8:D__a__temp_msys64_mingw64_lib_libjpeg_8_lib_s00074.o
 0002:00000418       __imp_jpeg_read_header     000000018005d418     libjpeg-8:D__a__temp_msys64_mingw64_lib_libjpeg_8_lib_s00080.o
 0002:00000420       __imp_jpeg_read_scanlines  000000018005d420     libjpeg-8:D__a__temp_msys64_mingw64_lib_libjpeg_8_lib_s00083.o
 0002:00000428       __imp_jpeg_set_defaults    000000018005d428     libjpeg-8:D__a__temp_msys64_mingw64_lib_libjpeg_8_lib_s00087.o
 0002:00000430       __imp_jpeg_set_quality     000000018005d430     libjpeg-8:D__a__temp_msys64_mingw64_lib_libjpeg_8_lib_s00090.o
 0002:00000438       __imp_jpeg_simple_progression 000000018005d438     libjpeg-8:D__a__temp_msys64_mingw64_lib_libjpeg_8_lib_s00091.o
 0002:00000440       __imp_jpeg_start_compress  000000018005d440     libjpeg-8:D__a__temp_msys64_mingw64_lib_libjpeg_8_lib_s00093.o
 0002:00000448       __imp_jpeg_start_decompress 000000018005d448     libjpeg-8:D__a__temp_msys64_mingw64_lib_libjpeg_8_lib_s00094.o
 0002:00000450       __imp_jpeg_std_error       000000018005d450     libjpeg-8:D__a__temp_msys64_mingw64_lib_libjpeg_8_lib_s00096.o
 0002:00000458       __imp_jpeg_stdio_src       000000018005d458     libjpeg-8:D__a__temp_msys64_mingw64_lib_libjpeg_8_lib_s00098.o
 0002:00000460       __imp_jpeg_write_scanlines 000000018005d460     libjpeg-8:D__a__temp_msys64_mingw64_lib_libjpeg_8_lib_s00106.o
 0002:00000470       __imp_pango_context_get_language 000000018005d470     libpango-1.0-0:D__a__temp_msys64_mingw64_lib_libpango_1_0_0_lib_s00100.o
 0002:00000478       __imp_pango_context_get_metrics 000000018005d478     libpango-1.0-0:D__a__temp_msys64_mingw64_lib_libpango_1_0_0_lib_s00102.o
 0002:00000480       __imp_pango_font_description_better_match 000000018005d480     libpango-1.0-0:D__a__temp_msys64_mingw64_lib_libpango_1_0_0_lib_s00141.o
 0002:00000488       __imp_pango_font_description_copy 000000018005d488     libpango-1.0-0:D__a__temp_msys64_mingw64_lib_libpango_1_0_0_lib_s00142.o
 0002:00000490       __imp_pango_font_description_equal 000000018005d490     libpango-1.0-0:D__a__temp_msys64_mingw64_lib_libpango_1_0_0_lib_s00144.o
 0002:00000498       __imp_pango_font_description_free 000000018005d498     libpango-1.0-0:D__a__temp_msys64_mingw64_lib_libpango_1_0_0_lib_s00145.o
 0002:000004a0       __imp_pango_font_description_from_string 000000018005d4a0     libpango-1.0-0:D__a__temp_msys64_mingw64_lib_libpango_1_0_0_lib_s00146.o
 0002:000004a8       __imp_pango_font_description_get_family 000000018005d4a8     libpango-1.0-0:D__a__temp_msys64_mingw64_lib_libpango_1_0_0_lib_s00147.o
 0002:000004b0       __imp_pango_font_description_new 000000018005d4b0     libpango-1.0-0:D__a__temp_msys64_mingw64_lib_libpango_1_0_0_lib_s00161.o
 0002:000004b8       __imp_pango_font_description_set_absolute_size 000000018005d4b8     libpango-1.0-0:D__a__temp_msys64_mingw64_lib_libpango_1_0_0_lib_s00162.o
 0002:000004c0       __imp_pango_font_description_set_family 000000018005d4c0     libpango-1.0-0:D__a__temp_msys64_mingw64_lib_libpango_1_0_0_lib_s00163.o
 0002:000004c8       __imp_pango_font_description_set_family_static 000000018005d4c8     libpango-1.0-0:D__a__temp_msys64_mingw64_lib_libpango_1_0_0_lib_s00164.o
 0002:000004d0       __imp_pango_font_description_set_stretch 000000018005d4d0     libpango-1.0-0:D__a__temp_msys64_mingw64_lib_libpango_1_0_0_lib_s00167.o
 0002:000004d8       __imp_pango_font_description_set_style 000000018005d4d8     libpango-1.0-0:D__a__temp_msys64_mingw64_lib_libpango_1_0_0_lib_s00168.o
 0002:000004e0       __imp_pango_font_description_set_weight 000000018005d4e0     libpango-1.0-0:D__a__temp_msys64_mingw64_lib_libpango_1_0_0_lib_s00172.o
 0002:000004e8       __imp_pango_font_metrics_get_ascent 000000018005d4e8     libpango-1.0-0:D__a__temp_msys64_mingw64_lib_libpango_1_0_0_lib_s00213.o
 0002:000004f0       __imp_pango_font_metrics_unref 000000018005d4f0     libpango-1.0-0:D__a__temp_msys64_mingw64_lib_libpango_1_0_0_lib_s00223.o
 0002:000004f8       __imp_pango_layout_get_baseline 000000018005d4f8     libpango-1.0-0:D__a__temp_msys64_mingw64_lib_libpango_1_0_0_lib_s00297.o
 0002:00000500       __imp_pango_layout_get_context 000000018005d500     libpango-1.0-0:D__a__temp_msys64_mingw64_lib_libpango_1_0_0_lib_s00300.o
 0002:00000508       __imp_pango_layout_get_extents 000000018005d508     libpango-1.0-0:D__a__temp_msys64_mingw64_lib_libpango_1_0_0_lib_s00304.o
 0002:00000510       __imp_pango_layout_get_font_description 000000018005d510     libpango-1.0-0:D__a__temp_msys64_mingw64_lib_libpango_1_0_0_lib_s00305.o
 0002:00000518       __imp_pango_layout_get_line 000000018005d518     libpango-1.0-0:D__a__temp_msys64_mingw64_lib_libpango_1_0_0_lib_s00311.o
 0002:00000520       __imp_pango_layout_get_pixel_extents 000000018005d520     libpango-1.0-0:D__a__temp_msys64_mingw64_lib_libpango_1_0_0_lib_s00319.o
 0002:00000528       __imp_pango_layout_line_get_extents 000000018005d528     libpango-1.0-0:D__a__temp_msys64_mingw64_lib_libpango_1_0_0_lib_s00357.o
 0002:00000530       __imp_pango_layout_set_font_description 000000018005d530     libpango-1.0-0:D__a__temp_msys64_mingw64_lib_libpango_1_0_0_lib_s00378.o
 0002:00000538       __imp_pango_layout_set_text 000000018005d538     libpango-1.0-0:D__a__temp_msys64_mingw64_lib_libpango_1_0_0_lib_s00389.o
 0002:00000548       __imp_pango_cairo_create_layout 000000018005d548     libpangocairo-1.0-0:D__a__temp_msys64_mingw64_lib_libpangocairo_1_0_0_lib_s00007.o
 0002:00000550       __imp_pango_cairo_font_map_set_default 000000018005d550     libpangocairo-1.0-0:D__a__temp_msys64_mingw64_lib_libpangocairo_1_0_0_lib_s00020.o
 0002:00000558       __imp_pango_cairo_layout_path 000000018005d558     libpangocairo-1.0-0:D__a__temp_msys64_mingw64_lib_libpangocairo_1_0_0_lib_s00024.o
 0002:00000560       __imp_pango_cairo_show_layout 000000018005d560     libpangocairo-1.0-0:D__a__temp_msys64_mingw64_lib_libpangocairo_1_0_0_lib_s00029.o
 0002:00000568       __imp_pango_cairo_update_layout 000000018005d568     libpangocairo-1.0-0:D__a__temp_msys64_mingw64_lib_libpangocairo_1_0_0_lib_s00032.o
 0002:00000578       __imp_png_create_info_struct 000000018005d578     libpng16-16:D__a__temp_msys64_mingw64_lib_libpng16_16_lib_s00011.o
 0002:00000580       __imp_png_create_write_struct_2 000000018005d580     libpng16-16:D__a__temp_msys64_mingw64_lib_libpng16_16_lib_s00015.o
 0002:00000588       __imp_png_data_freer       000000018005d588     libpng16-16:D__a__temp_msys64_mingw64_lib_libpng16_16_lib_s00016.o
 0002:00000590       __imp_png_destroy_write_struct 000000018005d590     libpng16-16:D__a__temp_msys64_mingw64_lib_libpng16_16_lib_s00019.o
 0002:00000598       __imp_png_error            000000018005d598     libpng16-16:D__a__temp_msys64_mingw64_lib_libpng16_16_lib_s00020.o
 0002:000005a0       __imp_png_get_error_ptr    000000018005d5a0     libpng16-16:D__a__temp_msys64_mingw64_lib_libpng16_16_lib_s00044.o
 0002:000005a8       __imp_png_get_io_ptr       000000018005d5a8     libpng16-16:D__a__temp_msys64_mingw64_lib_libpng16_16_lib_s00058.o
 0002:000005b0       __imp_png_malloc           000000018005d5b0     libpng16-16:D__a__temp_msys64_mingw64_lib_libpng16_16_lib_s00129.o
 0002:000005b8       __imp_png_set_IHDR         000000018005d5b8     libpng16-16:D__a__temp_msys64_mingw64_lib_libpng16_16_lib_s00149.o
 0002:000005c0       __imp_png_set_PLTE         000000018005d5c0     libpng16-16:D__a__temp_msys64_mingw64_lib_libpng16_16_lib_s00150.o
 0002:000005c8       __imp_png_set_bKGD         000000018005d5c8     libpng16-16:D__a__temp_msys64_mingw64_lib_libpng16_16_lib_s00155.o
 0002:000005d0       __imp_png_set_compression_level 000000018005d5d0     libpng16-16:D__a__temp_msys64_mingw64_lib_libpng16_16_lib_s00168.o
 0002:000005d8       __imp_png_set_filler       000000018005d5d8     libpng16-16:D__a__temp_msys64_mingw64_lib_libpng16_16_lib_s00180.o
 0002:000005e0       __imp_png_set_filter       000000018005d5e0     libpng16-16:D__a__temp_msys64_mingw64_lib_libpng16_16_lib_s00181.o
 0002:000005e8       __imp_png_set_longjmp_fn   000000018005d5e8     libpng16-16:D__a__temp_msys64_mingw64_lib_libpng16_16_lib_s00198.o
 0002:000005f0       __imp_png_set_pHYs         000000018005d5f0     libpng16-16:D__a__temp_msys64_mingw64_lib_libpng16_16_lib_s00204.o
 0002:000005f8       __imp_png_set_packing      000000018005d5f8     libpng16-16:D__a__temp_msys64_mingw64_lib_libpng16_16_lib_s00205.o
 0002:00000600       __imp_png_set_packswap     000000018005d600     libpng16-16:D__a__temp_msys64_mingw64_lib_libpng16_16_lib_s00206.o
 0002:00000608       __imp_png_set_tRNS         000000018005d608     libpng16-16:D__a__temp_msys64_mingw64_lib_libpng16_16_lib_s00233.o
 0002:00000610       __imp_png_set_write_fn     000000018005d610     libpng16-16:D__a__temp_msys64_mingw64_lib_libpng16_16_lib_s00245.o
 0002:00000618       __imp_png_set_write_user_transform_fn 000000018005d618     libpng16-16:D__a__temp_msys64_mingw64_lib_libpng16_16_lib_s00247.o
 0002:00000620       __imp_png_write_end        000000018005d620     libpng16-16:D__a__temp_msys64_mingw64_lib_libpng16_16_lib_s00255.o
 0002:00000628       __imp_png_write_image      000000018005d628     libpng16-16:D__a__temp_msys64_mingw64_lib_libpng16_16_lib_s00259.o
 0002:00000630       __imp_png_write_info       000000018005d630     libpng16-16:D__a__temp_msys64_mingw64_lib_libpng16_16_lib_s00260.o
 0002:00000640       __imp_rsvg_handle_get_dimensions 000000018005d640     librsvg-2-2:D__a__temp_msys64_mingw64_lib_librsvg_2_2_lib_s00008.o
 0002:00000648       __imp_rsvg_handle_new_from_data 000000018005d648     librsvg-2-2:D__a__temp_msys64_mingw64_lib_librsvg_2_2_lib_s00023.o
 0002:00000650       __imp_rsvg_handle_render_cairo 000000018005d650     librsvg-2-2:D__a__temp_msys64_mingw64_lib_librsvg_2_2_lib_s00029.o
 0002:00000660       __imp_AddFontResourceExW   000000018005d660     gdi32:GDI32.dll
 0002:00000668       __imp_RemoveFontResourceExW 000000018005d668     gdi32:GDI32.dll
 0002:00000670       \177GDI32_NULL_THUNK_DATA  000000018005d670     gdi32:GDI32.dll
 0002:00000678       __imp_GetFileSizeEx        000000018005d678     kernel32:KERNEL32.dll
 0002:00000680       __imp_CreateFileW          000000018005d680     kernel32:KERNEL32.dll
 0002:00000688       __imp_VirtualQuery         000000018005d688     kernel32:KERNEL32.dll
 0002:00000690       __imp_CloseHandle          000000018005d690     kernel32:KERNEL32.dll
 0002:00000698       __imp_GetModuleHandleA     000000018005d698     kernel32:KERNEL32.dll
 0002:000006a0       __imp_MultiByteToWideChar  000000018005d6a0     kernel32:KERNEL32.dll
 0002:000006a8       __imp_ReadFile             000000018005d6a8     kernel32:KERNEL32.dll
 0002:000006b0       __imp_EnterCriticalSection 000000018005d6b0     kernel32:KERNEL32.dll
 0002:000006b8       __imp_LeaveCriticalSection 000000018005d6b8     kernel32:KERNEL32.dll
 0002:000006c0       __imp_InitializeCriticalSectionEx 000000018005d6c0     kernel32:KERNEL32.dll
 0002:000006c8       __imp_DeleteCriticalSection 000000018005d6c8     kernel32:KERNEL32.dll
 0002:000006d0       __imp_EncodePointer        000000018005d6d0     kernel32:KERNEL32.dll
 0002:000006d8       __imp_DecodePointer        000000018005d6d8     kernel32:KERNEL32.dll
 0002:000006e0       __imp_WideCharToMultiByte  000000018005d6e0     kernel32:KERNEL32.dll
 0002:000006e8       __imp_LCMapStringEx        000000018005d6e8     kernel32:KERNEL32.dll
 0002:000006f0       __imp_GetStringTypeW       000000018005d6f0     kernel32:KERNEL32.dll
 0002:000006f8       __imp_GetCPInfo            000000018005d6f8     kernel32:KERNEL32.dll
 0002:00000700       __imp_RtlCaptureContext    000000018005d700     kernel32:KERNEL32.dll
 0002:00000708       __imp_RtlLookupFunctionEntry 000000018005d708     kernel32:KERNEL32.dll
 0002:00000710       __imp_RtlVirtualUnwind     000000018005d710     kernel32:KERNEL32.dll
 0002:00000718       __imp_UnhandledExceptionFilter 000000018005d718     kernel32:KERNEL32.dll
 0002:00000720       __imp_SetUnhandledExceptionFilter 000000018005d720     kernel32:KERNEL32.dll
 0002:00000728       __imp_GetCurrentProcess    000000018005d728     kernel32:KERNEL32.dll
 0002:00000730       __imp_TerminateProcess     000000018005d730     kernel32:KERNEL32.dll
 0002:00000738       __imp_IsProcessorFeaturePresent 000000018005d738     kernel32:KERNEL32.dll
 0002:00000740       __imp_IsDebuggerPresent    000000018005d740     kernel32:KERNEL32.dll
 0002:00000748       __imp_GetStartupInfoW      000000018005d748     kernel32:KERNEL32.dll
 0002:00000750       __imp_GetModuleHandleW     000000018005d750     kernel32:KERNEL32.dll
 0002:00000758       __imp_QueryPerformanceCounter 000000018005d758     kernel32:KERNEL32.dll
 0002:00000760       __imp_GetCurrentProcessId  000000018005d760     kernel32:KERNEL32.dll
 0002:00000768       __imp_GetCurrentThreadId   000000018005d768     kernel32:KERNEL32.dll
 0002:00000770       __imp_GetSystemTimeAsFileTime 000000018005d770     kernel32:KERNEL32.dll
 0002:00000778       __imp_InitializeSListHead  000000018005d778     kernel32:KERNEL32.dll
 0002:00000780       __imp_RtlUnwindEx          000000018005d780     kernel32:KERNEL32.dll
 0002:00000788       __imp_RtlPcToFileHeader    000000018005d788     kernel32:KERNEL32.dll
 0002:00000790       __imp_RaiseException       000000018005d790     kernel32:KERNEL32.dll
 0002:00000798       __imp_InterlockedFlushSList 000000018005d798     kernel32:KERNEL32.dll
 0002:000007a0       __imp_GetLastError         000000018005d7a0     kernel32:KERNEL32.dll
 0002:000007a8       __imp_SetLastError         000000018005d7a8     kernel32:KERNEL32.dll
 0002:000007b0       __imp_RtlUnwind            000000018005d7b0     kernel32:KERNEL32.dll
 0002:000007b8       __imp_InitializeCriticalSectionAndSpinCount 000000018005d7b8     kernel32:KERNEL32.dll
 0002:000007c0       __imp_TlsAlloc             000000018005d7c0     kernel32:KERNEL32.dll
 0002:000007c8       __imp_TlsGetValue          000000018005d7c8     kernel32:KERNEL32.dll
 0002:000007d0       __imp_TlsSetValue          000000018005d7d0     kernel32:KERNEL32.dll
 0002:000007d8       __imp_TlsFree              000000018005d7d8     kernel32:KERNEL32.dll
 0002:000007e0       __imp_FreeLibrary          000000018005d7e0     kernel32:KERNEL32.dll
 0002:000007e8       __imp_GetProcAddress       000000018005d7e8     kernel32:KERNEL32.dll
 0002:000007f0       __imp_LoadLibraryExW       000000018005d7f0     kernel32:KERNEL32.dll
 0002:000007f8       __imp_GetStdHandle         000000018005d7f8     kernel32:KERNEL32.dll
 0002:00000800       __imp_GetFileType          000000018005d800     kernel32:KERNEL32.dll
 0002:00000808       __imp_GetModuleFileNameW   000000018005d808     kernel32:KERNEL32.dll
 0002:00000810       __imp_GetModuleHandleExW   000000018005d810     kernel32:KERNEL32.dll
 0002:00000818       __imp_WriteConsoleW        000000018005d818     kernel32:KERNEL32.dll
 0002:00000820       __imp_GetFileInformationByHandle 000000018005d820     kernel32:KERNEL32.dll
 0002:00000828       __imp_PeekNamedPipe        000000018005d828     kernel32:KERNEL32.dll
 0002:00000830       __imp_SystemTimeToTzSpecificLocalTime 000000018005d830     kernel32:KERNEL32.dll
 0002:00000838       __imp_FileTimeToSystemTime 000000018005d838     kernel32:KERNEL32.dll
 0002:00000840       __imp_ExitProcess          000000018005d840     kernel32:KERNEL32.dll
 0002:00000848       __imp_WriteFile            000000018005d848     kernel32:KERNEL32.dll
 0002:00000850       __imp_OutputDebugStringW   000000018005d850     kernel32:KERNEL32.dll
 0002:00000858       __imp_HeapFree             000000018005d858     kernel32:KERNEL32.dll
 0002:00000860       __imp_HeapAlloc            000000018005d860     kernel32:KERNEL32.dll
 0002:00000868       __imp_FlsAlloc             000000018005d868     kernel32:KERNEL32.dll
 0002:00000870       __imp_FlsGetValue          000000018005d870     kernel32:KERNEL32.dll
 0002:00000878       __imp_FlsSetValue          000000018005d878     kernel32:KERNEL32.dll
 0002:00000880       __imp_FlsFree              000000018005d880     kernel32:KERNEL32.dll
 0002:00000888       __imp_GetDateFormatW       000000018005d888     kernel32:KERNEL32.dll
 0002:00000890       __imp_GetTimeFormatW       000000018005d890     kernel32:KERNEL32.dll
 0002:00000898       __imp_CompareStringW       000000018005d898     kernel32:KERNEL32.dll
 0002:000008a0       __imp_LCMapStringW         000000018005d8a0     kernel32:KERNEL32.dll
 0002:000008a8       __imp_GetLocaleInfoW       000000018005d8a8     kernel32:KERNEL32.dll
 0002:000008b0       __imp_IsValidLocale        000000018005d8b0     kernel32:KERNEL32.dll
 0002:000008b8       __imp_GetUserDefaultLCID   000000018005d8b8     kernel32:KERNEL32.dll
 0002:000008c0       __imp_EnumSystemLocalesW   000000018005d8c0     kernel32:KERNEL32.dll
 0002:000008c8       __imp_SetFilePointerEx     000000018005d8c8     kernel32:KERNEL32.dll
 0002:000008d0       __imp_GetConsoleMode       000000018005d8d0     kernel32:KERNEL32.dll
 0002:000008d8       __imp_ReadConsoleW         000000018005d8d8     kernel32:KERNEL32.dll
 0002:000008e0       __imp_GetCurrentDirectoryW 000000018005d8e0     kernel32:KERNEL32.dll
 0002:000008e8       __imp_SetStdHandle         000000018005d8e8     kernel32:KERNEL32.dll
 0002:000008f0       __imp_HeapReAlloc          000000018005d8f0     kernel32:KERNEL32.dll
 0002:000008f8       __imp_GetTimeZoneInformation 000000018005d8f8     kernel32:KERNEL32.dll
 0002:00000900       __imp_FindClose            000000018005d900     kernel32:KERNEL32.dll
 0002:00000908       __imp_FindFirstFileExW     000000018005d908     kernel32:KERNEL32.dll
 0002:00000910       __imp_FindNextFileW        000000018005d910     kernel32:KERNEL32.dll
 0002:00000918       __imp_IsValidCodePage      000000018005d918     kernel32:KERNEL32.dll
 0002:00000920       __imp_GetACP               000000018005d920     kernel32:KERNEL32.dll
 0002:00000928       __imp_GetOEMCP             000000018005d928     kernel32:KERNEL32.dll
 0002:00000930       __imp_GetCommandLineA      000000018005d930     kernel32:KERNEL32.dll
 0002:00000938       __imp_GetCommandLineW      000000018005d938     kernel32:KERNEL32.dll
 0002:00000940       __imp_GetEnvironmentStringsW 000000018005d940     kernel32:KERNEL32.dll
 0002:00000948       __imp_FreeEnvironmentStringsW 000000018005d948     kernel32:KERNEL32.dll
 0002:00000950       __imp_SetEnvironmentVariableW 000000018005d950     kernel32:KERNEL32.dll
 0002:00000958       __imp_GetProcessHeap       000000018005d958     kernel32:KERNEL32.dll
 0002:00000960       __imp_FlushFileBuffers     000000018005d960     kernel32:KERNEL32.dll
 0002:00000968       __imp_GetConsoleOutputCP   000000018005d968     kernel32:KERNEL32.dll
 0002:00000970       __imp_HeapSize             000000018005d970     kernel32:KERNEL32.dll
 0002:00000978       __imp_SetEndOfFile         000000018005d978     kernel32:KERNEL32.dll
 0002:00000980       __imp_GetSystemInfo        000000018005d980     kernel32:KERNEL32.dll
 0002:00000988       __imp_VirtualProtect       000000018005d988     kernel32:KERNEL32.dll
 0002:00000990       __imp_LoadLibraryExA       000000018005d990     kernel32:KERNEL32.dll
 0002:00000998       \177KERNEL32_NULL_THUNK_DATA 000000018005d998     kernel32:KERNEL32.dll
 0002:000009a0       __guard_check_icall_fptr   000000018005d9a0     LIBCMT:guard_support.obj
 0002:000009a8       __guard_xfg_check_icall_fptr 000000018005d9a8     LIBCMT:guard_support.obj
 0002:000009b0       __guard_dispatch_icall_fptr 000000018005d9b0     LIBCMT:guard_support.obj
 0002:000009b8       __guard_xfg_dispatch_icall_fptr 000000018005d9b8     LIBCMT:guard_support.obj
 0002:000009c0       __guard_xfg_table_dispatch_icall_fptr 000000018005d9c0     LIBCMT:guard_support.obj
 0002:000009c8       __xc_a                     000000018005d9c8     LIBCMT:initializers.obj
 0002:000009f8       _register_canvas_          000000018005d9f8     init.obj
 0002:00000a70       __xc_z                     000000018005da70     LIBCMT:initializers.obj
 0002:00000a78       __xi_a                     000000018005da78     LIBCMT:initializers.obj
 0002:00000a80       __acrt_stdio_initializer   000000018005da80     libucrt:stdio_initializer.obj
 0002:00000a88       __acrt_tran_fma3_initializer 000000018005da88     libucrt:fma3_initializer.obj
 0002:00000a90       __acrt_timeset_initializer 000000018005da90     libucrt:timeset_initializer.obj
 0002:00000a98       __acrt_multibyte_initializer 000000018005da98     libucrt:multibyte_initializer.obj
 0002:00000aa0       __acrt_fmode_initializer   000000018005daa0     libucrt:fmode_initializer.obj
 0002:00000aa8       __xi_z                     000000018005daa8     LIBCMT:initializers.obj
 0002:00000ab0       __xp_a                     000000018005dab0     LIBCMT:initializers.obj
 0002:00000ab8       __acrt_locale_terminator   000000018005dab8     libucrt:locale_initializer.obj
 0002:00000ac0       __dcrt_console_output_terminator 000000018005dac0     libucrt:console_output_initializer.obj
 0002:00000ac8       __acrt_stdio_terminator    000000018005dac8     libucrt:stdio_initializer.obj
 0002:00000ad0       __xp_z                     000000018005dad0     LIBCMT:initializers.obj
 0002:00000ad8       __xt_a                     000000018005dad8     LIBCMT:initializers.obj
 0002:00000ae0       __xt_z                     000000018005dae0     LIBCMT:initializers.obj
 0002:00000af0       __sz_node_exe              000000018005daf0     node:node.exe
 0002:00000b08       ??_7exception@std@@6B@     000000018005db08     libcpmt:xthrow.obj
 0002:00000b18       ??_C@_0BC@EOODALEL@Unknown?5exception@ 000000018005db18     libcpmt:xthrow.obj
 0002:00000b38       ??_7bad_alloc@std@@6B@     000000018005db38     libcpmt:xthrow.obj
 0002:00000b48       ??_C@_0P@GHFPNOJB@bad?5allocation@ 000000018005db48     libcpmt:xthrow.obj
 0002:00000b60       ??_7bad_function_call@std@@6B@ 000000018005db60     libcpmt:xthrow.obj
 0002:00000b70       ??_C@_0BC@DPJNKNAF@bad?5function?5call@ 000000018005db70     libcpmt:xthrow.obj
 0002:00000b90       ??_7logic_error@std@@6B@   000000018005db90     libcpmt:xthrow.obj
 0002:00000ba8       ??_7length_error@std@@6B@  000000018005dba8     libcpmt:xthrow.obj
 0002:00000bc0       ??_7runtime_error@std@@6B@ 000000018005dbc0     libcpmt:xthrow.obj
 0002:00000bd0       ?nothrow@std@@3Unothrow_t@1@B 000000018005dbd0     libcpmt:nothrow.obj
 0002:00000be0       ??_7_Facet_base@std@@6B@   000000018005dbe0     libcpmt:locale0.obj
 0002:00000c00       ??_7_Locimp@locale@std@@6B@ 000000018005dc00     libcpmt:locale0.obj
 0002:00000c18       ??_C@_01NBENCBCI@?$CK@     000000018005dc18     libcpmt:locale0.obj
 0002:00000c1c       ??_C@_01GFHCPBMG@C@        000000018005dc1c     libcpmt:locale0.obj
 0002:00000c20       ?_BADOFF@std@@3_JB         000000018005dc20     libcpmt:ios.obj
 0002:00001390       ??_C@_0BN@LKKBCCDB@address?5family?5not?5supported@ 000000018005e390     libcpmt:syserror.obj
 0002:000013b0       ??_C@_0P@LDMLAFHI@address?5in?5use@ 000000018005e3b0     libcpmt:syserror.obj
 0002:000013c0       ??_C@_0BG@DHPCNBJB@address?5not?5available@ 000000018005e3c0     libcpmt:syserror.obj
 0002:000013d8       ??_C@_0BC@DFIBIBIL@already?5connected@ 000000018005e3d8     libcpmt:syserror.obj
 0002:000013f0       ??_C@_0BH@CAKOHOMI@argument?5list?5too?5long@ 000000018005e3f0     libcpmt:syserror.obj
 0002:00001408       ??_C@_0BH@CGIMPKIM@argument?5out?5of?5domain@ 000000018005e408     libcpmt:syserror.obj
 0002:00001420       ??_C@_0M@KGHGGJGL@bad?5address@ 000000018005e420     libcpmt:syserror.obj
 0002:00001430       ??_C@_0BE@MPJPGCEO@bad?5file?5descriptor@ 000000018005e430     libcpmt:syserror.obj
 0002:00001448       ??_C@_0M@PMMIEFCP@bad?5message@ 000000018005e448     libcpmt:syserror.obj
 0002:00001458       ??_C@_0M@KPHOFDBE@broken?5pipe@ 000000018005e458     libcpmt:syserror.obj
 0002:00001468       ??_C@_0BD@MGNDDEGM@connection?5aborted@ 000000018005e468     libcpmt:syserror.obj
 0002:00001480       ??_C@_0BP@KAIHPOGN@connection?5already?5in?5progress@ 000000018005e480     libcpmt:syserror.obj
 0002:000014a0       ??_C@_0BD@PJLIIJEL@connection?5refused@ 000000018005e4a0     libcpmt:syserror.obj
 0002:000014b8       ??_C@_0BB@IECNJNOI@connection?5reset@ 000000018005e4b8     libcpmt:syserror.obj
 0002:000014d0       ??_C@_0BC@PPHBOELF@cross?5device?5link@ 000000018005e4d0     libcpmt:syserror.obj
 0002:000014e8       ??_C@_0BN@KDMIFEIP@destination?5address?5required@ 000000018005e4e8     libcpmt:syserror.obj
 0002:00001508       ??_C@_0BI@NGCEHDD@device?5or?5resource?5busy@ 000000018005e508     libcpmt:syserror.obj
 0002:00001520       ??_C@_0BE@JIDOCPHM@directory?5not?5empty@ 000000018005e520     libcpmt:syserror.obj
 0002:00001538       ??_C@_0BI@BNCLIGPB@executable?5format?5error@ 000000018005e538     libcpmt:syserror.obj
 0002:00001550       ??_C@_0M@MIDIAGJP@file?5exists@ 000000018005e550     libcpmt:syserror.obj
 0002:00001560       ??_C@_0P@DNAJLBJK@file?5too?5large@ 000000018005e560     libcpmt:syserror.obj
 0002:00001570       ??_C@_0BC@EJHOMAAK@filename?5too?5long@ 000000018005e570     libcpmt:syserror.obj
 0002:00001588       ??_C@_0BH@KEFGLDAF@function?5not?5supported@ 000000018005e588     libcpmt:syserror.obj
 0002:000015a0       ??_C@_0BB@DHFDFGDM@host?5unreachable@ 000000018005e5a0     libcpmt:syserror.obj
 0002:000015b8       ??_C@_0BD@JPHBMONG@identifier?5removed@ 000000018005e5b8     libcpmt:syserror.obj
 0002:000015d0       ??_C@_0BG@CDNPAGJK@illegal?5byte?5sequence@ 000000018005e5d0     libcpmt:syserror.obj
 0002:000015e8       ??_C@_0CD@BNPLBMNA@inappropriate?5io?5control?5operat@ 000000018005e5e8     libcpmt:syserror.obj
 0002:00001610       ??_C@_0M@EGEKIIMP@interrupted@ 000000018005e610     libcpmt:syserror.obj
 0002:00001620       ??_C@_0BB@FCMFBGOM@invalid?5argument@ 000000018005e620     libcpmt:syserror.obj
 0002:00001638       ??_C@_0N@OHAFKDEK@invalid?5seek@ 000000018005e638     libcpmt:syserror.obj
 0002:00001648       ??_C@_08GLNPIFBN@io?5error@ 000000018005e648     libcpmt:syserror.obj
 0002:00001658       ??_C@_0P@FLLDBIDK@is?5a?5directory@ 000000018005e658     libcpmt:syserror.obj
 0002:00001668       ??_C@_0N@IFLPBIOP@message?5size@ 000000018005e668     libcpmt:syserror.obj
 0002:00001678       ??_C@_0N@KIIEAAIO@network?5down@ 000000018005e678     libcpmt:syserror.obj
 0002:00001688       ??_C@_0O@FNPDBHEE@network?5reset@ 000000018005e688     libcpmt:syserror.obj
 0002:00001698       ??_C@_0BE@IFNCKGE@network?5unreachable@ 000000018005e698     libcpmt:syserror.obj
 0002:000016b0       ??_C@_0BA@PFFCAOFK@no?5buffer?5space@ 000000018005e6b0     libcpmt:syserror.obj
 0002:000016c0       ??_C@_0BB@IEPBLJHK@no?5child?5process@ 000000018005e6c0     libcpmt:syserror.obj
 0002:000016d8       ??_C@_07PLECNNKG@no?5link@ 000000018005e6d8     libcpmt:syserror.obj
 0002:000016e0       ??_C@_0BC@NJECKMKE@no?5lock?5available@ 000000018005e6e0     libcpmt:syserror.obj
 0002:000016f8       ??_C@_0BF@PBGGPKKE@no?5message?5available@ 000000018005e6f8     libcpmt:syserror.obj
 0002:00001710       ??_C@_0L@EDOLMPAK@no?5message@ 000000018005e710     libcpmt:syserror.obj
 0002:00001720       ??_C@_0BD@EAMBFIDF@no?5protocol?5option@ 000000018005e720     libcpmt:syserror.obj
 0002:00001738       ??_C@_0BD@IJDJKDEA@no?5space?5on?5device@ 000000018005e738     libcpmt:syserror.obj
 0002:00001750       ??_C@_0BE@MKFDAFMP@no?5stream?5resources@ 000000018005e750     libcpmt:syserror.obj
 0002:00001768       ??_C@_0BK@IMCPHCBI@no?5such?5device?5or?5address@ 000000018005e768     libcpmt:syserror.obj
 0002:00001788       ??_C@_0P@FDINDDOK@no?5such?5device@ 000000018005e788     libcpmt:syserror.obj
 0002:00001798       ??_C@_0BK@NDOCBPGE@no?5such?5file?5or?5directory@ 000000018005e798     libcpmt:syserror.obj
 0002:000017b8       ??_C@_0BA@ENLPPKBN@no?5such?5process@ 000000018005e7b8     libcpmt:syserror.obj
 0002:000017c8       ??_C@_0BA@DOCPFFJG@not?5a?5directory@ 000000018005e7c8     libcpmt:syserror.obj
 0002:000017d8       ??_C@_0N@POEIPGGF@not?5a?5socket@ 000000018005e7d8     libcpmt:syserror.obj
 0002:000017e8       ??_C@_0N@LGAPMMPI@not?5a?5stream@ 000000018005e7e8     libcpmt:syserror.obj
 0002:000017f8       ??_C@_0O@GLMIBBEG@not?5connected@ 000000018005e7f8     libcpmt:syserror.obj
 0002:00001808       ??_C@_0BC@ENOOLCNF@not?5enough?5memory@ 000000018005e808     libcpmt:syserror.obj
 0002:00001820       ??_C@_0O@NHEDABJP@not?5supported@ 000000018005e820     libcpmt:syserror.obj
 0002:00001830       ??_C@_0BD@MOLBPMEA@operation?5canceled@ 000000018005e830     libcpmt:syserror.obj
 0002:00001848       ??_C@_0BG@KDKHOPCO@operation?5in?5progress@ 000000018005e848     libcpmt:syserror.obj
 0002:00001860       ??_C@_0BI@OHIEJAAB@operation?5not?5permitted@ 000000018005e860     libcpmt:syserror.obj
 0002:00001878       ??_C@_0BI@LNEGIFLN@operation?5not?5supported@ 000000018005e878     libcpmt:syserror.obj
 0002:00001890       ??_C@_0BG@OEMDKMEE@operation?5would?5block@ 000000018005e890     libcpmt:syserror.obj
 0002:000018a8       ??_C@_0L@BLPOFLNJ@owner?5dead@ 000000018005e8a8     libcpmt:syserror.obj
 0002:000018b8       ??_C@_0BC@CIJDGCDI@permission?5denied@ 000000018005e8b8     libcpmt:syserror.obj
 0002:000018d0       ??_C@_0P@FNPOCJBE@protocol?5error@ 000000018005e8d0     libcpmt:syserror.obj
 0002:000018e0       ??_C@_0BH@JPPPLHJB@protocol?5not?5supported@ 000000018005e8e0     libcpmt:syserror.obj
 0002:000018f8       ??_C@_0BG@EICBIHDP@read?5only?5file?5system@ 000000018005e8f8     libcpmt:syserror.obj
 0002:00001910       ??_C@_0BO@BJBOMOEJ@resource?5deadlock?5would?5occur@ 000000018005e910     libcpmt:syserror.obj
 0002:00001930       ??_C@_0BP@LKNGHENJ@resource?5unavailable?5try?5again@ 000000018005e930     libcpmt:syserror.obj
 0002:00001950       ??_C@_0BE@GOIPJJHG@result?5out?5of?5range@ 000000018005e950     libcpmt:syserror.obj
 0002:00001968       ??_C@_0BG@MPLKFPAE@state?5not?5recoverable@ 000000018005e968     libcpmt:syserror.obj
 0002:00001980       ??_C@_0P@DIIFGFCG@stream?5timeout@ 000000018005e980     libcpmt:syserror.obj
 0002:00001990       ??_C@_0P@IPFDMIFL@text?5file?5busy@ 000000018005e990     libcpmt:syserror.obj
 0002:000019a0       ??_C@_09KJPPMAOI@timed?5out@ 000000018005e9a0     libcpmt:syserror.obj
 0002:000019b0       ??_C@_0BO@HACHBEKI@too?5many?5files?5open?5in?5system@ 000000018005e9b0     libcpmt:syserror.obj
 0002:000019d0       ??_C@_0BE@GHAFMPAH@too?5many?5files?5open@ 000000018005e9d0     libcpmt:syserror.obj
 0002:000019e8       ??_C@_0P@HCOMKFCC@too?5many?5links@ 000000018005e9e8     libcpmt:syserror.obj
 0002:000019f8       ??_C@_0BO@EFGOJEF@too?5many?5symbolic?5link?5levels@ 000000018005e9f8     libcpmt:syserror.obj
 0002:00001a18       ??_C@_0BA@KGKGOOJA@value?5too?5large@ 000000018005ea18     libcpmt:syserror.obj
 0002:00001a28       ??_C@_0BE@MIEJDDNH@wrong?5protocol?5type@ 000000018005ea28     libcpmt:syserror.obj
 0002:00001a40       ??_C@_0O@BFJCFAAK@unknown?5error@ 000000018005ea40     libcpmt:syserror.obj
 0002:00001a58       ??_7bad_array_new_length@std@@6B@ 000000018005ea58     libcpmt:locale.obj
 0002:00001a70       ??_7?$ctype@D@std@@6B@     000000018005ea70     libcpmt:locale.obj
 0002:00001bd0       ??_C@_11LOCGONAA@@         000000018005ebd0     libcpmt:wlocale.obj
 0002:00001bd4       ??_C@_13IMODFHAA@?$AA?9@   000000018005ebd4     libcpmt:wlocale.obj
 0002:00001bd8       ??_C@_01JOAMLHOP@?9@       000000018005ebd8     libcpmt:wlocale.obj
 0002:00001c80       __xmm@ffffffffffffffffffffffffffffffff 000000018005ec80     LIBCMT:utility.obj
 0002:00001c98       ??_7type_info@@6B@         000000018005ec98     LIBCMT:std_type_info_static.obj
 0002:00001ca0       _pRawDllMain               000000018005eca0     LIBCMT:dll_dllmain.obj
 0002:00001ca0       _pDefaultRawDllMain        000000018005eca0     LIBCMT:dll_dllmain.obj
 0002:00001cb8       ?s_negLengthTab@FH4@@3QBCB 000000018005ecb8     libvcruntime:risctrnsctrl.obj
 0002:00001cc8       ?s_shiftTab@FH4@@3QBEB     000000018005ecc8     libvcruntime:risctrnsctrl.obj
 0002:00001e18       _pDestructExceptionObject  000000018005ee18     libvcruntime:ehhelpers.obj
 0002:00001e28       ??_7bad_exception@std@@6B@ 000000018005ee28     libvcruntime:frame.obj
 0002:00001e38       ??_C@_0O@DPKOEFFH@bad?5exception@ 000000018005ee38     libvcruntime:frame.obj
 0002:00002550       ??_C@_08EHJDFFNH@__based?$CI@ 000000018005f550     libvcruntime:undname.obj
 0002:00002560       ??_C@_07KOLFKCDI@__cdecl@  000000018005f560     libvcruntime:undname.obj
 0002:00002568       ??_C@_08GHMPAG@__pascal@   000000018005f568     libvcruntime:undname.obj
 0002:00002578       ??_C@_09IFJBGAPI@__stdcall@ 000000018005f578     libvcruntime:undname.obj
 0002:00002588       ??_C@_0L@NPHFGOKO@__thiscall@ 000000018005f588     libvcruntime:undname.obj
 0002:00002598       ??_C@_0L@JMKHOMEK@__fastcall@ 000000018005f598     libvcruntime:undname.obj
 0002:000025a8       ??_C@_0N@BCKKPABJ@__vectorcall@ 000000018005f5a8     libvcruntime:undname.obj
 0002:000025b8       ??_C@_09HIJEGCPM@__clrcall@ 000000018005f5b8     libvcruntime:undname.obj
 0002:000025c4       ??_C@_06GHPCKEAG@__eabi@   000000018005f5c4     libvcruntime:undname.obj
 0002:000025d0       ??_C@_09IOPIDJLG@__swift_1@ 000000018005f5d0     libvcruntime:undname.obj
 0002:000025e0       ??_C@_09KFNFGKHF@__swift_2@ 000000018005f5e0     libvcruntime:undname.obj
 0002:000025f0       ??_C@_07JOMMBBKO@__ptr64@  000000018005f5f0     libvcruntime:undname.obj
 0002:000025f8       ??_C@_0L@PILCLIHE@__restrict@ 000000018005f5f8     libvcruntime:undname.obj
 0002:00002608       ??_C@_0M@GFIIJFMG@__unaligned@ 000000018005f608     libvcruntime:undname.obj
 0002:00002618       ??_C@_09DHDLOLLB@restrict?$CI@ 000000018005f618     libvcruntime:undname.obj
 0002:00002624       ??_C@_04NIHEBCM@?5new@     000000018005f624     libvcruntime:undname.obj
 0002:00002630       ??_C@_07FPCDHGMM@?5delete@ 000000018005f630     libvcruntime:undname.obj
 0002:00002638       ??_C@_01NEMOKFLO@?$DN@     000000018005f638     libvcruntime:undname.obj
 0002:0000263c       ??_C@_02GPIOPFAK@?$DO?$DO@ 000000018005f63c     libvcruntime:undname.obj
 0002:00002640       ??_C@_02FODMEDOG@?$DM?$DM@ 000000018005f640     libvcruntime:undname.obj
 0002:00002644       ??_C@_01DCLJPIOD@?$CB@     000000018005f644     libvcruntime:undname.obj
 0002:00002648       ??_C@_02EGOFBIJA@?$DN?$DN@ 000000018005f648     libvcruntime:undname.obj
 0002:0000264c       ??_C@_02FDNJECIE@?$CB?$DN@ 000000018005f64c     libvcruntime:undname.obj
 0002:00002650       ??_C@_02GPECMEKF@?$FL?$FN@ 000000018005f650     libvcruntime:undname.obj
 0002:00002658       ??_C@_08LHJFAFGD@operator@ 000000018005f658     libvcruntime:undname.obj
 0002:00002664       ??_C@_02HBOOOICD@?9?$DO@   000000018005f664     libvcruntime:undname.obj
 0002:00002668       ??_C@_02ECNGHCIF@?$CL?$CL@ 000000018005f668     libvcruntime:undname.obj
 0002:0000266c       ??_C@_02BAABKJLB@?9?9@     000000018005f66c     libvcruntime:undname.obj
 0002:00002670       ??_C@_01MIFGBAGJ@?$CL@     000000018005f670     libvcruntime:undname.obj
 0002:00002674       ??_C@_01HNPIGOCE@?$CG@     000000018005f674     libvcruntime:undname.obj
 0002:00002678       ??_C@_03MNHNFDLC@?9?$DO?$CK@ 000000018005f678     libvcruntime:undname.obj
 0002:0000267c       ??_C@_01KMDKNFGN@?1@       000000018005f67c     libvcruntime:undname.obj
 0002:00002680       ??_C@_01FGNFDNOH@?$CF@     000000018005f680     libvcruntime:undname.obj
 0002:00002684       ??_C@_01MNNFJEPP@?$DM@     000000018005f684     libvcruntime:undname.obj
 0002:00002688       ??_C@_02EHCHHCKH@?$DM?$DN@ 000000018005f688     libvcruntime:undname.obj
 0002:0000268c       ??_C@_01PPODPGHN@?$DO@     000000018005f68c     libvcruntime:undname.obj
 0002:00002690       ??_C@_02EEKDKGMJ@?$DO?$DN@ 000000018005f690     libvcruntime:undname.obj
 0002:00002694       ??_C@_02HCKGKOFO@?$CI?$CJ@ 000000018005f694     libvcruntime:undname.obj
 0002:00002698       ??_C@_01PJKLJHI@?$HO@      000000018005f698     libvcruntime:undname.obj
 0002:0000269c       ??_C@_01JKBOJNNK@?$FO@     000000018005f69c     libvcruntime:undname.obj
 0002:000026a0       ??_C@_01DNKMNLPK@?$HM@     000000018005f6a0     libvcruntime:undname.obj
 0002:000026a4       ??_C@_02PPKAJPJL@?$CG?$CG@ 000000018005f6a4     libvcruntime:undname.obj
 0002:000026a8       ??_C@_02NONPIBCD@?$HM?$HM@ 000000018005f6a8     libvcruntime:undname.obj
 0002:000026ac       ??_C@_02FPIMKNGF@?$CK?$DN@ 000000018005f6ac     libvcruntime:undname.obj
 0002:000026b0       ??_C@_02FOEOMHFC@?$CL?$DN@ 000000018005f6b0     libvcruntime:undname.obj
 0002:000026b4       ??_C@_02FKMDLLOA@?9?$DN@   000000018005f6b4     libvcruntime:undname.obj
 0002:000026b8       ??_C@_02FJEHGPIO@?1?$DN@   000000018005f6b8     libvcruntime:undname.obj
 0002:000026bc       ??_C@_02FENAOKFI@?$CF?$DN@ 000000018005f6bc     libvcruntime:undname.obj
 0002:000026c0       ??_C@_03IKFCCPFF@?$DO?$DO?$DN@ 000000018005f6c0     libvcruntime:undname.obj
 0002:000026c4       ??_C@_03CDNPDDLA@?$DM?$DM?$DN@ 000000018005f6c4     libvcruntime:undname.obj
 0002:000026c8       ??_C@_02FGJGFEAB@?$CG?$DN@ 000000018005f6c8     libvcruntime:undname.obj
 0002:000026cc       ??_C@_02DHLNPPGH@?$HM?$DN@ 000000018005f6cc     libvcruntime:undname.obj
 0002:000026d0       ??_C@_02MHEGNOJ@?$FO?$DN@  000000018005f6d0     libvcruntime:undname.obj
 0002:000026d8       ??_C@_09IFPLHPGF@?$GAvftable?8@ 000000018005f6d8     libvcruntime:undname.obj
 0002:000026e8       ??_C@_09BLBHBJP@?$GAvbtable?8@ 000000018005f6e8     libvcruntime:undname.obj
 0002:000026f8       ??_C@_07FEEIOKP@?$GAvcall?8@ 000000018005f6f8     libvcruntime:undname.obj
 0002:00002700       ??_C@_08LLFFHHDJ@?$GAtypeof?8@ 000000018005f700     libvcruntime:undname.obj
 0002:00002710       ??_C@_0BF@KDPPACIK@?$GAlocal?5static?5guard?8@ 000000018005f710     libvcruntime:undname.obj
 0002:00002728       ??_C@_08OBABFOLI@?$GAstring?8@ 000000018005f728     libvcruntime:undname.obj
 0002:00002738       ??_C@_0BD@JDLKDPAB@?$GAvbase?5destructor?8@ 000000018005f738     libvcruntime:undname.obj
 0002:00002750       ??_C@_0BN@DEGPLNFK@?$GAvector?5deleting?5destructor?8@ 000000018005f750     libvcruntime:undname.obj
 0002:00002770       ??_C@_0BO@OBMKPJIG@?$GAdefault?5constructor?5closure?8@ 000000018005f770     libvcruntime:undname.obj
 0002:00002790       ??_C@_0BN@IMDCHIKM@?$GAscalar?5deleting?5destructor?8@ 000000018005f790     libvcruntime:undname.obj
 0002:000027b0       ??_C@_0BO@PFGOCPJJ@?$GAvector?5constructor?5iterator?8@ 000000018005f7b0     libvcruntime:undname.obj
 0002:000027d0       ??_C@_0BN@LFPFMEDL@?$GAvector?5destructor?5iterator?8@ 000000018005f7d0     libvcruntime:undname.obj
 0002:000027f0       ??_C@_0CE@IKBNEHA@?$GAvector?5vbase?5constructor?5itera@ 000000018005f7f0     libvcruntime:undname.obj
 0002:00002818       ??_C@_0BL@NILFHHPC@?$GAvirtual?5displacement?5map?8@ 000000018005f818     libvcruntime:undname.obj
 0002:00002838       ??_C@_0CB@JONCMFFK@?$GAeh?5vector?5constructor?5iterator@ 000000018005f838     libvcruntime:undname.obj
 0002:00002860       ??_C@_0CA@GCEOPDGL@?$GAeh?5vector?5destructor?5iterator?8@ 000000018005f860     libvcruntime:undname.obj
 0002:00002880       ??_C@_0CH@OOJPLCPH@?$GAeh?5vector?5vbase?5constructor?5it@ 000000018005f880     libvcruntime:undname.obj
 0002:000028a8       ??_C@_0BL@LLKPOHJI@?$GAcopy?5constructor?5closure?8@ 000000018005f8a8     libvcruntime:undname.obj
 0002:000028c8       ??_C@_0BA@KBCDOMBN@?$GAudt?5returning?8@ 000000018005f8c8     libvcruntime:undname.obj
 0002:000028d8       ??_C@_03KLGMFNMG@?$GAEH@   000000018005f8d8     libvcruntime:undname.obj
 0002:000028dc       ??_C@_05KHLCHHI@?$GARTTI@  000000018005f8dc     libvcruntime:undname.obj
 0002:000028e8       ??_C@_0BA@KKLDJDLB@?$GAlocal?5vftable?8@ 000000018005f8e8     libvcruntime:undname.obj
 0002:000028f8       ??_C@_0CE@IIHCMGGL@?$GAlocal?5vftable?5constructor?5clos@ 000000018005f8f8     libvcruntime:undname.obj
 0002:0000291c       ??_C@_06FHBGPFGH@?5new?$FL?$FN@ 000000018005f91c     libvcruntime:undname.obj
 0002:00002928       ??_C@_09LBNFPBCA@?5delete?$FL?$FN@ 000000018005f928     libvcruntime:undname.obj
 0002:00002938       ??_C@_0P@HJKNJFNN@?$GAomni?5callsig?8@ 000000018005f938     libvcruntime:undname.obj
 0002:00002948       ??_C@_0BL@CNOONJFP@?$GAplacement?5delete?5closure?8@ 000000018005f948     libvcruntime:undname.obj
 0002:00002968       ??_C@_0BN@CKNJLHMB@?$GAplacement?5delete?$FL?$FN?5closure?8@ 000000018005f968     libvcruntime:undname.obj
 0002:00002988       ??_C@_0CG@CFDHKGGD@?$GAmanaged?5vector?5constructor?5ite@ 000000018005f988     libvcruntime:undname.obj
 0002:000029b0       ??_C@_0CF@IMGKMJNO@?$GAmanaged?5vector?5destructor?5iter@ 000000018005f9b0     libvcruntime:undname.obj
 0002:000029d8       ??_C@_0CG@HLDDJMAG@?$GAeh?5vector?5copy?5constructor?5ite@ 000000018005f9d8     libvcruntime:undname.obj
 0002:00002a00       ??_C@_0CM@FCBBDIGB@?$GAeh?5vector?5vbase?5copy?5construct@ 000000018005fa00     libvcruntime:undname.obj
 0002:00002a30       ??_C@_0BL@CLIPGLGB@?$GAdynamic?5initializer?5for?5?8@ 000000018005fa30     libvcruntime:undname.obj
 0002:00002a50       ??_C@_0CB@PDBIFEP@?$GAdynamic?5atexit?5destructor?5for?5@ 000000018005fa50     libvcruntime:undname.obj
 0002:00002a78       ??_C@_0CD@CGAJBKEJ@?$GAvector?5copy?5constructor?5iterat@ 000000018005fa78     libvcruntime:undname.obj
 0002:00002aa0       ??_C@_0CJ@GJELGAMM@?$GAvector?5vbase?5copy?5constructor?5@ 000000018005faa0     libvcruntime:undname.obj
 0002:00002ad0       ??_C@_0CL@FGIJHLCE@?$GAmanaged?5vector?5copy?5constructo@ 000000018005fad0     libvcruntime:undname.obj
 0002:00002b00       ??_C@_0BM@PMGGMLDN@?$GAlocal?5static?5thread?5guard?8@ 000000018005fb00     libvcruntime:undname.obj
 0002:00002b20       ??_C@_0N@BDNMDMOL@operator?5?$CC?$CC?5@ 000000018005fb20     libvcruntime:undname.obj
 0002:00002b30       ??_C@_0BC@GGEBGALA@operator?5co_await@ 000000018005fb30     libvcruntime:undname.obj
 0002:00002b48       ??_C@_0M@GAAIMMOH@operator?$DM?$DN?$DO@ 000000018005fb48     libvcruntime:undname.obj
 0002:00002b58       ??_C@_0BC@DAFEJGAK@?5Type?5Descriptor?8@ 000000018005fb58     libvcruntime:undname.obj
 0002:00002b70       ??_C@_0BM@LDKODKLH@?5Base?5Class?5Descriptor?5at?5?$CI@ 000000018005fb70     libvcruntime:undname.obj
 0002:00002b90       ??_C@_0BD@LGICGFMM@?5Base?5Class?5Array?8@ 000000018005fb90     libvcruntime:undname.obj
 0002:00002ba8       ??_C@_0BN@MECKDCOJ@?5Class?5Hierarchy?5Descriptor?8@ 000000018005fba8     libvcruntime:undname.obj
 0002:00002bc8       ??_C@_0BK@CFCOFLF@?5Complete?5Object?5Locator?8@ 000000018005fbc8     libvcruntime:undname.obj
 0002:00002be8       ??_C@_0BG@JNJLAMPM@?$GAanonymous?5namespace?8@ 000000018005fbe8     libvcruntime:undname.obj
 0002:00002c18       ??_C@_1DM@KHCHBNEB@?$AAa?$AAp?$AAi?$AA?9?$AAm?$AAs?$AA?9?$AAw?$AAi?$AAn?$AA?9?$AAc?$AAo?$AAr?$AAe@ 000000018005fc18     libvcruntime:winapi_downlevel.obj
 0002:00002c58       ??_C@_1DK@LPPGFMPP@?$AAa?$AAp?$AAi?$AA?9?$AAm?$AAs?$AA?9?$AAw?$AAi?$AAn?$AA?9?$AAc?$AAo?$AAr?$AAe@ 000000018005fc58     libvcruntime:winapi_downlevel.obj
 0002:00002c98       ??_C@_1BC@GDMECMAK@?$AAk?$AAe?$AAr?$AAn?$AAe?$AAl?$AA3?$AA2@ 000000018005fc98     libvcruntime:winapi_downlevel.obj
 0002:00002cb0       ??_C@_1BA@PFFKHIOG@?$AAa?$AAp?$AAi?$AA?9?$AAm?$AAs?$AA?9@ 000000018005fcb0     libvcruntime:winapi_downlevel.obj
 0002:00002cc8       ??_C@_08KNHFBNJ@FlsAlloc@  000000018005fcc8     libvcruntime:winapi_downlevel.obj
 0002:00002ce0       ??_C@_07PEJMOBNF@FlsFree@  000000018005fce0     libvcruntime:winapi_downlevel.obj
 0002:00002cf0       ??_C@_0M@GDNOONDI@FlsGetValue@ 000000018005fcf0     libvcruntime:winapi_downlevel.obj
 0002:00002d08       ??_C@_0M@JCPCPOEF@FlsSetValue@ 000000018005fd08     libvcruntime:winapi_downlevel.obj
 0002:00002d20       ??_C@_0BM@HCFOFFN@InitializeCriticalSectionEx@ 000000018005fd20     libvcruntime:winapi_downlevel.obj
 0002:00002d40       ??_C@_1FE@LHBLIKM@?$AAA?$AAs?$AAs?$AAe?$AAr?$AAt?$AAi?$AAo?$AAn?$AA?5?$AAf?$AAa?$AAi?$AAl?$AAe@ 000000018005fd40     libucrt:assert.obj
 0002:00002da0       ??_C@_1EK@MBDPDCGA@?$AAM?$AAi?$AAc?$AAr?$AAo?$AAs?$AAo?$AAf?$AAt?$AA?5?$AAV?$AAi?$AAs?$AAu?$AAa@ 000000018005fda0     libucrt:assert.obj
 0002:00002df0       ??_C@_1CE@OJBNHDMO@?$AAA?$AAs?$AAs?$AAe?$AAr?$AAt?$AAi?$AAo?$AAn?$AA?5?$AAf?$AAa?$AAi?$AAl?$AAe@ 000000018005fdf0     libucrt:assert.obj
 0002:00002e18       ??_C@_1BE@PHKBBGE@?$AAP?$AAr?$AAo?$AAg?$AAr?$AAa?$AAm?$AA?3?$AA?5@ 000000018005fe18     libucrt:assert.obj
 0002:00002e30       ??_C@_1O@HEMHKNDC@?$AAF?$AAi?$AAl?$AAe?$AA?3?$AA?5@ 000000018005fe30     libucrt:assert.obj
 0002:00002e40       ??_C@_1O@KCAFKHJE@?$AAL?$AAi?$AAn?$AAe?$AA?3?$AA?5@ 000000018005fe40     libucrt:assert.obj
 0002:00002e50       ??_C@_1BK@PEDCIPMA@?$AAE?$AAx?$AAp?$AAr?$AAe?$AAs?$AAs?$AAi?$AAo?$AAn?$AA?3?$AA?5@ 000000018005fe50     libucrt:assert.obj
 0002:00002e70       ??_C@_1OA@EGMLFBHJ@?$AAF?$AAo?$AAr?$AA?5?$AAi?$AAn?$AAf?$AAo?$AAr?$AAm?$AAa?$AAt?$AAi?$AAo?$AAn@ 000000018005fe70     libucrt:assert.obj
 0002:00002f50       ??_C@_1HK@POCJMFGK@?$AA?$CI?$AAP?$AAr?$AAe?$AAs?$AAs?$AA?5?$AAR?$AAe?$AAt?$AAr?$AAy?$AA?5?$AAt?$AAo@ 000000018005ff50     libucrt:assert.obj
 0002:00002fd0       ??_C@_17LGKOMLJ@?$AA?4?$AA?4?$AA?4@ 000000018005ffd0     libucrt:assert.obj
 0002:00002fd8       ??_C@_13LBAGMAIH@?$AA?6@   000000018005ffd8     libucrt:assert.obj
 0002:00002fdc       ??_C@_15IABLJNFO@?$AA?6?$AA?6@ 000000018005ffdc     libucrt:assert.obj
 0002:00002fe8       ??_C@_1CO@EAEJAADC@?$AA?$DM?$AAp?$AAr?$AAo?$AAg?$AAr?$AAa?$AAm?$AA?5?$AAn?$AAa?$AAm?$AAe?$AA?5?$AAu@ 000000018005ffe8     libucrt:assert.obj
 0002:00003020       ?standard_lookup_table_spectre@__crt_stdio_output@@3V?$spectre_mitigated_lookup_table@Ustate_transition_pair@__crt_stdio_output@@$0IA@@1@B 0000000180060020     libucrt:output.obj
 0002:00003120       ??_C@_1O@CEDCILHN@?$AA?$CI?$AAn?$AAu?$AAl?$AAl?$AA?$CJ@ 0000000180060120     libucrt:output.obj
 0002:00003130       ??_C@_06OJHGLDPL@?$CInull?$CJ@ 0000000180060130     libucrt:output.obj
 0002:000032a8       ??_C@_19DOGDICKI@?$AA?4?$AAe?$AAx?$AAe@ 00000001800602a8     libucrt:stat.obj
 0002:000032b8       ??_C@_19BDKLHPGC@?$AA?4?$AAc?$AAm?$AAd@ 00000001800602b8     libucrt:stat.obj
 0002:000032c8       ??_C@_19PINKOIBI@?$AA?4?$AAb?$AAa?$AAt@ 00000001800602c8     libucrt:stat.obj
 0002:000032d8       ??_C@_19CDGLJBOD@?$AA?4?$AAc?$AAo?$AAm@ 00000001800602d8     libucrt:stat.obj
 0002:000032f0       __newctype                 00000001800602f0     libucrt:ctype.obj
 0002:000035f0       __newclmap                 00000001800605f0     libucrt:ctype.obj
 0002:00003770       __newcumap                 0000000180060770     libucrt:ctype.obj
 0002:000038f0       _wctype                    00000001800608f0     libucrt:ctype.obj
 0002:00003b00       ?large_power_data@?1??multiply_by_power_of_ten@__crt_strtox@@YA_NAEAUbig_integer@2@I@Z@4QBIB 0000000180060b00     libucrt:strtod.obj
 0002:00004410       ?large_power_indices@?1??multiply_by_power_of_ten@__crt_strtox@@YA_NAEAUbig_integer@2@I@Z@4QBUunpack_index@?1??12@YA_N0I@Z@B 0000000180061410     libucrt:strtod.obj
 0002:000044a8       ?small_powers_of_ten@?1??multiply_by_power_of_ten@__crt_strtox@@YA_NAEAUbig_integer@2@I@Z@4QBIB 00000001800614a8     libucrt:strtod.obj
 0002:00006178       ??_C@_1M@PBPMMENC@?$AAa?$AAm?$AA?1?$AAp?$AAm@ 0000000180063178     libucrt:wcsftime.obj
 0002:00006188       ??_C@_17BLFJJHMM@?$AAa?$AA?1?$AAp@ 0000000180063188     libucrt:wcsftime.obj
 0002:00006190       ??_C@_13HOIJIPNN@?$AA?5@   0000000180063190     libucrt:wcsftime.obj
 0002:00006194       ??_C@_13CGOKJPIL@?$AA?1@   0000000180063194     libucrt:wcsftime.obj
 0002:00006198       ??_C@_13EBCNDICG@?$AA?3@   0000000180063198     libucrt:wcsftime.obj
 0002:0000619c       ??_C@_13KDLDGPGJ@?$AA?7@   000000018006319c     libucrt:wcsftime.obj
 0002:000061a0       ??_C@_13KJIIAINM@?$AA?$CL@ 00000001800631a0     libucrt:wcsftime.obj
 0002:000061a4       ??_C@_13EJFHHPOP@?$AA?$CF@ 00000001800631a4     libucrt:wcsftime.obj
 0002:000061b0       __acrt_exception_action_table 00000001800631b0     libucrt:exception_filter.obj
 0002:00006270       __acrt_signal_action_table_count 0000000180063270     libucrt:exception_filter.obj
 0002:00006278       __acrt_signal_action_first_fpe_index 0000000180063278     libucrt:exception_filter.obj
 0002:00006280       __acrt_signal_action_fpe_count 0000000180063280     libucrt:exception_filter.obj
 0002:000062d8       ??_C@_1BI@BGOHAHKC@?$AAm?$AAs?$AAc?$AAo?$AAr?$AAe?$AAe?$AA?4?$AAd?$AAl?$AAl@ 00000001800632d8     libucrt:exit.obj
 0002:000062f0       ??_C@_0P@MIGLKIOC@CorExitProcess@ 00000001800632f0     libucrt:exit.obj
 0002:000064d0       __lc_category              00000001800634d0     libucrt:wsetlocale.obj
 0002:00006560       ??_C@_1O@GIFLHMA@?$AAL?$AAC?$AA_?$AAA?$AAL?$AAL@ 0000000180063560     libucrt:wsetlocale.obj
 0002:00006570       ??_C@_1BG@PPOMIBNJ@?$AAL?$AAC?$AA_?$AAC?$AAO?$AAL?$AAL?$AAA?$AAT?$AAE@ 0000000180063570     libucrt:wsetlocale.obj
 0002:00006588       ??_C@_1BC@FFJGAPJM@?$AAL?$AAC?$AA_?$AAC?$AAT?$AAY?$AAP?$AAE@ 0000000180063588     libucrt:wsetlocale.obj
 0002:000065a0       ??_C@_1BI@PCKFNJFB@?$AAL?$AAC?$AA_?$AAM?$AAO?$AAN?$AAE?$AAT?$AAA?$AAR?$AAY@ 00000001800635a0     libucrt:wsetlocale.obj
 0002:000065b8       ??_C@_1BG@ENIEDKID@?$AAL?$AAC?$AA_?$AAN?$AAU?$AAM?$AAE?$AAR?$AAI?$AAC@ 00000001800635b8     libucrt:wsetlocale.obj
 0002:000065d0       ??_C@_1BA@HAAOMIIG@?$AAL?$AAC?$AA_?$AAT?$AAI?$AAM?$AAE@ 00000001800635d0     libucrt:wsetlocale.obj
 0002:000065e0       ??_C@_15NBPDDFIP@?$AA?$DN?$AA?$DL@ 00000001800635e0     libucrt:wsetlocale.obj
 0002:000065e8       ??_C@_13PJJBFPED@?$AA?$DL@ 00000001800635e8     libucrt:wsetlocale.obj
 0002:000065ec       ??_C@_13NMPKAAJP@?$AA?$DN@ 00000001800635ec     libucrt:wsetlocale.obj
 0002:000065f0       ??_C@_17EFJLDFDO@?$AA?9?$AA_?$AA?4@ 00000001800635f0     libucrt:wsetlocale.obj
 0002:000065f8       ??_C@_13FHBKNHDA@?$AAC@    00000001800635f8     libucrt:wsetlocale.obj
 0002:00006600       ??_C@_17MBJJLFDM@?$AA_?$AA?4?$AA?0@ 0000000180063600     libucrt:wsetlocale.obj
 0002:00006608       ??_C@_13ENNFDPBH@?$AA_@    0000000180063608     libucrt:wsetlocale.obj
 0002:0000660c       ??_C@_13JOFGPIOO@?$AA?4@   000000018006360c     libucrt:wsetlocale.obj
 0002:00006610       __lc_time_c                0000000180063610     libucrt:nlsdata.obj
 0002:000068d0       ??_C@_03KOEHGMDN@Sun@      00000001800638d0     libucrt:nlsdata.obj
 0002:000068d4       ??_C@_03PDAGKDH@Mon@       00000001800638d4     libucrt:nlsdata.obj
 0002:000068d8       ??_C@_03NAGEINEP@Tue@      00000001800638d8     libucrt:nlsdata.obj
 0002:000068dc       ??_C@_03MHOMLAJA@Wed@      00000001800638dc     libucrt:nlsdata.obj
 0002:000068e0       ??_C@_03IOFIKPDN@Thu@      00000001800638e0     libucrt:nlsdata.obj
 0002:000068e4       ??_C@_03IDIOELNC@Fri@      00000001800638e4     libucrt:nlsdata.obj
 0002:000068e8       ??_C@_03FEFJNEK@Sat@       00000001800638e8     libucrt:nlsdata.obj
 0002:000068ec       ??_C@_06OOPIFAJ@Sunday@    00000001800638ec     libucrt:nlsdata.obj
 0002:000068f4       ??_C@_06JLEDEDGH@Monday@   00000001800638f4     libucrt:nlsdata.obj
 0002:00006900       ??_C@_07BAAGCFCM@Tuesday@  0000000180063900     libucrt:nlsdata.obj
 0002:00006908       ??_C@_09DLIGFAKA@Wednesday@ 0000000180063908     libucrt:nlsdata.obj
 0002:00006918       ??_C@_08HACCIKIA@Thursday@ 0000000180063918     libucrt:nlsdata.obj
 0002:00006924       ??_C@_06JECMNKMI@Friday@   0000000180063924     libucrt:nlsdata.obj
 0002:00006930       ??_C@_08INBOOONO@Saturday@ 0000000180063930     libucrt:nlsdata.obj
 0002:0000693c       ??_C@_03JIHJHPIE@Jan@      000000018006393c     libucrt:nlsdata.obj
 0002:00006940       ??_C@_03HJBDCHOM@Feb@      0000000180063940     libucrt:nlsdata.obj
 0002:00006944       ??_C@_03ODNJBKGA@Mar@      0000000180063944     libucrt:nlsdata.obj
 0002:00006948       ??_C@_03LEOLGMJP@Apr@      0000000180063948     libucrt:nlsdata.obj
 0002:0000694c       ??_C@_03CNMDKL@May@        000000018006394c     libucrt:nlsdata.obj
 0002:00006950       ??_C@_03IDFGHECI@Jun@      0000000180063950     libucrt:nlsdata.obj
 0002:00006954       ??_C@_03LBGABGKK@Jul@      0000000180063954     libucrt:nlsdata.obj
 0002:00006958       ??_C@_03IFJFEIGA@Aug@      0000000180063958     libucrt:nlsdata.obj
 0002:0000695c       ??_C@_03GGCAPAJC@Sep@      000000018006395c     libucrt:nlsdata.obj
 0002:00006960       ??_C@_03BMAOKBAD@Oct@      0000000180063960     libucrt:nlsdata.obj
 0002:00006964       ??_C@_03JPJOFNIA@Nov@      0000000180063964     libucrt:nlsdata.obj
 0002:00006968       ??_C@_03MKABNOCG@Dec@      0000000180063968     libucrt:nlsdata.obj
 0002:00006970       ??_C@_07CGJPFGJA@January@  0000000180063970     libucrt:nlsdata.obj
 0002:00006978       ??_C@_08GNJGEPFN@February@ 0000000180063978     libucrt:nlsdata.obj
 0002:00006984       ??_C@_05HPCKOFNC@March@    0000000180063984     libucrt:nlsdata.obj
 0002:0000698c       ??_C@_05DMJDNLEJ@April@    000000018006398c     libucrt:nlsdata.obj
 0002:00006994       ??_C@_04CNLMGBGM@June@     0000000180063994     libucrt:nlsdata.obj
 0002:0000699c       ??_C@_04MIEPOIFP@July@     000000018006399c     libucrt:nlsdata.obj
 0002:000069a4       ??_C@_06LBBHFDDG@August@   00000001800639a4     libucrt:nlsdata.obj
 0002:000069b0       ??_C@_09BHHEALKD@September@ 00000001800639b0     libucrt:nlsdata.obj
 0002:000069c0       ??_C@_07JJNFCEND@October@  00000001800639c0     libucrt:nlsdata.obj
 0002:000069c8       ??_C@_08HCHEGEOA@November@ 00000001800639c8     libucrt:nlsdata.obj
 0002:000069d8       ??_C@_08EDHMEBNP@December@ 00000001800639d8     libucrt:nlsdata.obj
 0002:000069e4       ??_C@_02DEDBPAFC@AM@       00000001800639e4     libucrt:nlsdata.obj
 0002:000069e8       ??_C@_02CJNFDJBF@PM@       00000001800639e8     libucrt:nlsdata.obj
 0002:000069f0       ??_C@_08BPBNCDIB@MM?1dd?1yy@ 00000001800639f0     libucrt:nlsdata.obj
 0002:00006a00       ??_C@_0BE@CKGJFCPC@dddd?0?5MMMM?5dd?0?5yyyy@ 0000000180063a00     libucrt:nlsdata.obj
 0002:00006a18       ??_C@_08JCCMCCIL@HH?3mm?3ss@ 0000000180063a18     libucrt:nlsdata.obj
 0002:00006a28       ??_C@_17MBGCMIPB@?$AAS?$AAu?$AAn@ 0000000180063a28     libucrt:nlsdata.obj
 0002:00006a30       ??_C@_17KBOMKBF@?$AAM?$AAo?$AAn@ 0000000180063a30     libucrt:nlsdata.obj
 0002:00006a38       ??_C@_17BMKGEGOJ@?$AAT?$AAu?$AAe@ 0000000180063a38     libucrt:nlsdata.obj
 0002:00006a40       ??_C@_17CJEDCEPE@?$AAW?$AAe?$AAd@ 0000000180063a40     libucrt:nlsdata.obj
 0002:00006a48       ??_C@_17PDPHAADD@?$AAT?$AAh?$AAu@ 0000000180063a48     libucrt:nlsdata.obj
 0002:00006a50       ??_C@_17HFOLPPLP@?$AAF?$AAr?$AAi@ 0000000180063a50     libucrt:nlsdata.obj
 0002:00006a58       ??_C@_17GGIBDPIH@?$AAS?$AAa?$AAt@ 0000000180063a58     libucrt:nlsdata.obj
 0002:00006a60       ??_C@_1O@IHNHDHPB@?$AAS?$AAu?$AAn?$AAd?$AAa?$AAy@ 0000000180063a60     libucrt:nlsdata.obj
 0002:00006a70       ??_C@_1O@MMNBFLIA@?$AAM?$AAo?$AAn?$AAd?$AAa?$AAy@ 0000000180063a70     libucrt:nlsdata.obj
 0002:00006a80       ??_C@_1BA@ENFBFFEK@?$AAT?$AAu?$AAe?$AAs?$AAd?$AAa?$AAy@ 0000000180063a80     libucrt:nlsdata.obj
 0002:00006a90       ??_C@_1BE@EBOGMDOH@?$AAW?$AAe?$AAd?$AAn?$AAe?$AAs?$AAd?$AAa?$AAy@ 0000000180063a90     libucrt:nlsdata.obj
 0002:00006aa8       ??_C@_1BC@HHMNLIHE@?$AAT?$AAh?$AAu?$AAr?$AAs?$AAd?$AAa?$AAy@ 0000000180063aa8     libucrt:nlsdata.obj
 0002:00006ac0       ??_C@_1O@PDICJHAG@?$AAF?$AAr?$AAi?$AAd?$AAa?$AAy@ 0000000180063ac0     libucrt:nlsdata.obj
 0002:00006ad0       ??_C@_1BC@ENMNNPAJ@?$AAS?$AAa?$AAt?$AAu?$AAr?$AAd?$AAa?$AAy@ 0000000180063ad0     libucrt:nlsdata.obj
 0002:00006ae8       ??_C@_17DKNBKCHM@?$AAJ?$AAa?$AAn@ 0000000180063ae8     libucrt:nlsdata.obj
 0002:00006af0       ??_C@_17LMDJEKJN@?$AAF?$AAe?$AAb@ 0000000180063af0     libucrt:nlsdata.obj
 0002:00006af8       ??_C@_17CKNLEDEC@?$AAM?$AAa?$AAr@ 0000000180063af8     libucrt:nlsdata.obj
 0002:00006b00       ??_C@_17LFPOIHDD@?$AAA?$AAp?$AAr@ 0000000180063b00     libucrt:nlsdata.obj
 0002:00006b08       ??_C@_17PNNKMEED@?$AAM?$AAa?$AAy@ 0000000180063b08     libucrt:nlsdata.obj
 0002:00006b10       ??_C@_17KCJGOCPB@?$AAJ?$AAu?$AAn@ 0000000180063b10     libucrt:nlsdata.obj
 0002:00006b18       ??_C@_17IJPCKHK@?$AAJ?$AAu?$AAl@ 0000000180063b18     libucrt:nlsdata.obj
 0002:00006b20       ??_C@_17ICPELBCN@?$AAA?$AAu?$AAg@ 0000000180063b20     libucrt:nlsdata.obj
 0002:00006b28       ??_C@_17HCHCOKMG@?$AAS?$AAe?$AAp@ 0000000180063b28     libucrt:nlsdata.obj
 0002:00006b30       ??_C@_17FNLKOI@?$AAO?$AAc?$AAt@ 0000000180063b30     libucrt:nlsdata.obj
 0002:00006b38       ??_C@_17BBDMLCIG@?$AAN?$AAo?$AAv@ 0000000180063b38     libucrt:nlsdata.obj
 0002:00006b40       ??_C@_17EGKACKIF@?$AAD?$AAe?$AAc@ 0000000180063b40     libucrt:nlsdata.obj
 0002:00006b48       ??_C@_1BA@EFMEIEBA@?$AAJ?$AAa?$AAn?$AAu?$AAa?$AAr?$AAy@ 0000000180063b48     libucrt:nlsdata.obj
 0002:00006b58       ??_C@_1BC@JGDDFFAM@?$AAF?$AAe?$AAb?$AAr?$AAu?$AAa?$AAr?$AAy@ 0000000180063b58     libucrt:nlsdata.obj
 0002:00006b70       ??_C@_1M@IKEENEDF@?$AAM?$AAa?$AAr?$AAc?$AAh@ 0000000180063b70     libucrt:nlsdata.obj
 0002:00006b80       ??_C@_1M@GJNLMHFD@?$AAA?$AAp?$AAr?$AAi?$AAl@ 0000000180063b80     libucrt:nlsdata.obj
 0002:00006b90       ??_C@_19EPFLPGAP@?$AAJ?$AAu?$AAn?$AAe@ 0000000180063b90     libucrt:nlsdata.obj
 0002:00006ba0       ??_C@_19BIFMLPCD@?$AAJ?$AAu?$AAl?$AAy@ 0000000180063ba0     libucrt:nlsdata.obj
 0002:00006bb0       ??_C@_1O@PAHLKOAC@?$AAA?$AAu?$AAg?$AAu?$AAs?$AAt@ 0000000180063bb0     libucrt:nlsdata.obj
 0002:00006bc0       ??_C@_1BE@DKAAMBJL@?$AAS?$AAe?$AAp?$AAt?$AAe?$AAm?$AAb?$AAe?$AAr@ 0000000180063bc0     libucrt:nlsdata.obj
 0002:00006bd8       ??_C@_1BA@EPANDLNG@?$AAO?$AAc?$AAt?$AAo?$AAb?$AAe?$AAr@ 0000000180063bd8     libucrt:nlsdata.obj
 0002:00006be8       ??_C@_1BC@BGLIFPF@?$AAN?$AAo?$AAv?$AAe?$AAm?$AAb?$AAe?$AAr@ 0000000180063be8     libucrt:nlsdata.obj
 0002:00006c00       ??_C@_1BC@FEMKIFH@?$AAD?$AAe?$AAc?$AAe?$AAm?$AAb?$AAe?$AAr@ 0000000180063c00     libucrt:nlsdata.obj
 0002:00006c14       ??_C@_15ODEHAHHF@?$AAA?$AAM@ 0000000180063c14     libucrt:nlsdata.obj
 0002:00006c1c       ??_C@_15CLMNNGEL@?$AAP?$AAM@ 0000000180063c1c     libucrt:nlsdata.obj
 0002:00006c28       ??_C@_1BC@IEBCMHCM@?$AAM?$AAM?$AA?1?$AAd?$AAd?$AA?1?$AAy?$AAy@ 0000000180063c28     libucrt:nlsdata.obj
 0002:00006c40       ??_C@_1CI@KNAKOEBC@?$AAd?$AAd?$AAd?$AAd?$AA?0?$AA?5?$AAM?$AAM?$AAM?$AAM?$AA?5?$AAd?$AAd?$AA?0?$AA?5@ 0000000180063c40     libucrt:nlsdata.obj
 0002:00006c68       ??_C@_1BC@GDGBMEMK@?$AAH?$AAH?$AA?3?$AAm?$AAm?$AA?3?$AAs?$AAs@ 0000000180063c68     libucrt:nlsdata.obj
 0002:00006c80       ??_C@_1M@BMHNFIME@?$AAe?$AAn?$AA?9?$AAU?$AAS@ 0000000180063c80     libucrt:nlsdata.obj
 0002:00006c90       _days                      0000000180063c90     libucrt:days.obj
 0002:00006cc8       _lpdays                    0000000180063cc8     libucrt:days.obj
 0002:00006de0       ??_C@_1EA@JGEFHKEI@?$AAa?$AAp?$AAi?$AA?9?$AAm?$AAs?$AA?9?$AAw?$AAi?$AAn?$AA?9?$AAc?$AAo?$AAr?$AAe@ 0000000180063de0     libucrt:winapi_thunks.obj
 0002:00006e20       ??_C@_1DI@IJCEHOCB@?$AAa?$AAp?$AAi?$AA?9?$AAm?$AAs?$AA?9?$AAw?$AAi?$AAn?$AA?9?$AAc?$AAo?$AAr?$AAe@ 0000000180063e20     libucrt:winapi_thunks.obj
 0002:00006e60       ??_C@_1EI@MPIAOHOC@?$AAa?$AAp?$AAi?$AA?9?$AAm?$AAs?$AA?9?$AAw?$AAi?$AAn?$AA?9?$AAc?$AAo?$AAr?$AAe@ 0000000180063e60     libucrt:winapi_thunks.obj
 0002:00006eb0       ??_C@_1FK@FPHCKFIE@?$AAa?$AAp?$AAi?$AA?9?$AAm?$AAs?$AA?9?$AAw?$AAi?$AAn?$AA?9?$AAc?$AAo?$AAr?$AAe@ 0000000180063eb0     libucrt:winapi_thunks.obj
 0002:00006f10       ??_C@_1EM@DILCGIIO@?$AAa?$AAp?$AAi?$AA?9?$AAm?$AAs?$AA?9?$AAw?$AAi?$AAn?$AA?9?$AAc?$AAo?$AAr?$AAe@ 0000000180063f10     libucrt:winapi_thunks.obj
 0002:00006f60       ??_C@_1DM@LNCGDDPN@?$AAa?$AAp?$AAi?$AA?9?$AAm?$AAs?$AA?9?$AAw?$AAi?$AAn?$AA?9?$AAc?$AAo?$AAr?$AAe@ 0000000180063f60     libucrt:winapi_thunks.obj
 0002:00006fa0       ??_C@_1DO@FPAPJEMD@?$AAa?$AAp?$AAi?$AA?9?$AAm?$AAs?$AA?9?$AAw?$AAi?$AAn?$AA?9?$AAc?$AAo?$AAr?$AAe@ 0000000180063fa0     libucrt:winapi_thunks.obj
 0002:00006fe0       ??_C@_1DK@NDHNAHIO@?$AAa?$AAp?$AAi?$AA?9?$AAm?$AAs?$AA?9?$AAw?$AAi?$AAn?$AA?9?$AAc?$AAo?$AAr?$AAe@ 0000000180063fe0     libucrt:winapi_thunks.obj
 0002:00007020       ??_C@_1DM@KGHDGBCM@?$AAa?$AAp?$AAi?$AA?9?$AAm?$AAs?$AA?9?$AAw?$AAi?$AAn?$AA?9?$AAc?$AAo?$AAr?$AAe@ 0000000180064020     libucrt:winapi_thunks.obj
 0002:00007060       ??_C@_1EO@IJIOEFOH@?$AAa?$AAp?$AAi?$AA?9?$AAm?$AAs?$AA?9?$AAw?$AAi?$AAn?$AA?9?$AAr?$AAt?$AAc?$AAo@ 0000000180064060     libucrt:winapi_thunks.obj
 0002:000070b0       ??_C@_1FG@HHGEKANL@?$AAa?$AAp?$AAi?$AA?9?$AAm?$AAs?$AA?9?$AAw?$AAi?$AAn?$AA?9?$AAs?$AAe?$AAc?$AAu@ 00000001800640b0     libucrt:winapi_thunks.obj
 0002:00007110       ??_C@_1EG@DBIOJECG@?$AAe?$AAx?$AAt?$AA?9?$AAm?$AAs?$AA?9?$AAw?$AAi?$AAn?$AA?9?$AAn?$AAt?$AAu?$AAs@ 0000000180064110     libucrt:winapi_thunks.obj
 0002:00007160       ??_C@_1EO@FIHMJCLF@?$AAe?$AAx?$AAt?$AA?9?$AAm?$AAs?$AA?9?$AAw?$AAi?$AAn?$AA?9?$AAn?$AAt?$AAu?$AAs@ 0000000180064160     libucrt:winapi_thunks.obj
 0002:000071b0       ??_C@_1BC@DNHGCMLG@?$AAa?$AAd?$AAv?$AAa?$AAp?$AAi?$AA3?$AA2@ 00000001800641b0     libucrt:winapi_thunks.obj
 0002:000071c8       ??_C@_1M@OAIMIKLP@?$AAn?$AAt?$AAd?$AAl?$AAl@ 00000001800641c8     libucrt:winapi_thunks.obj
 0002:000071e0       ??_C@_1EG@DPGNFKGC@?$AAa?$AAp?$AAi?$AA?9?$AAm?$AAs?$AA?9?$AAw?$AAi?$AAn?$AA?9?$AAa?$AAp?$AAp?$AAm@ 00000001800641e0     libucrt:winapi_thunks.obj
 0002:00007228       ??_C@_1O@BCCLBEOE@?$AAu?$AAs?$AAe?$AAr?$AA3?$AA2@ 0000000180064228     libucrt:winapi_thunks.obj
 0002:00007238       ??_C@_1BA@IAIFMGEF@?$AAe?$AAx?$AAt?$AA?9?$AAm?$AAs?$AA?9@ 0000000180064238     libucrt:winapi_thunks.obj
 0002:00007250       ??_C@_0BA@FHFNEAED@AreFileApisANSI@ 0000000180064250     libucrt:winapi_thunks.obj
 0002:00007268       ??_C@_0BA@IHGNDAEB@CompareStringEx@ 0000000180064268     libucrt:winapi_thunks.obj
 0002:00007280       ??_C@_0BE@LJANKFHF@EnumSystemLocalesEx@ 0000000180064280     libucrt:winapi_thunks.obj
 0002:000072a0       ??_C@_0BA@HNOPNCHB@GetActiveWindow@ 00000001800642a0     libucrt:winapi_thunks.obj
 0002:000072b8       ??_C@_0BA@EPCJIIPD@GetDateFormatEx@ 00000001800642b8     libucrt:winapi_thunks.obj
 0002:000072d0       ??_C@_0BD@HHGDFDBJ@GetLastActivePopup@ 00000001800642d0     libucrt:winapi_thunks.obj
 0002:000072f0       ??_C@_0BA@ONOKGCMP@GetLocaleInfoEx@ 00000001800642f0     libucrt:winapi_thunks.obj
 0002:00007308       ??_C@_0BI@DFKBFLJE@GetProcessWindowStation@ 0000000180064308     libucrt:winapi_thunks.obj
 0002:00007328       ??_C@_0BA@CIJJKCJJ@GetTimeFormatEx@ 0000000180064328     libucrt:winapi_thunks.obj
 0002:00007340       ??_C@_0BJ@PBCCBIPI@GetUserDefaultLocaleName@ 0000000180064340     libucrt:winapi_thunks.obj
 0002:00007368       ??_C@_0BK@DEKFELLI@GetUserObjectInformationW@ 0000000180064368     libucrt:winapi_thunks.obj
 0002:00007398       ??_C@_0BC@CELBKLLA@IsValidLocaleName@ 0000000180064398     libucrt:winapi_thunks.obj
 0002:000073b8       ??_C@_0O@KKBNKAPF@LCMapStringEx@ 00000001800643b8     libucrt:winapi_thunks.obj
 0002:000073d0       ??_C@_0BB@CDHDDLLP@LCIDToLocaleName@ 00000001800643d0     libucrt:winapi_thunks.obj
 0002:000073f0       ??_C@_0BB@HBDEELFH@LocaleNameToLCID@ 00000001800643f0     libucrt:winapi_thunks.obj
 0002:00007410       ??_C@_0M@CHKKJDAI@MessageBoxA@ 0000000180064410     libucrt:winapi_thunks.obj
 0002:00007428       ??_C@_0M@DLDCCGNP@MessageBoxW@ 0000000180064428     libucrt:winapi_thunks.obj
 0002:00007438       ??_C@_0CF@OJOFEIGO@AppPolicyGetProcessTerminationM@ 0000000180064438     libucrt:winapi_thunks.obj
 0002:00007468       ??_C@_0CE@OICFMIKE@AppPolicyGetShowDeveloperDiagno@ 0000000180064468     libucrt:winapi_thunks.obj
 0002:00007490       ??_C@_0BL@ODDJNEDA@AppPolicyGetWindowingModel@ 0000000180064490     libucrt:winapi_thunks.obj
 0002:00007530       ??_C@_03OEIAHPBN@INF@      0000000180064530     libucrt:cvt.obj
 0002:00007534       ??_C@_03OJHLLCGB@inf@      0000000180064534     libucrt:cvt.obj
 0002:00007538       ??_C@_03LKNCIKJB@NAN@      0000000180064538     libucrt:cvt.obj
 0002:0000753c       ??_C@_03LHCJEHON@nan@      000000018006453c     libucrt:cvt.obj
 0002:00007540       ??_C@_09OFJJIMPC@NAN?$CISNAN?$CJ@ 0000000180064540     libucrt:cvt.obj
 0002:00007550       ??_C@_09IPFBKMDL@nan?$CIsnan?$CJ@ 0000000180064550     libucrt:cvt.obj
 0002:00007560       ??_C@_08IKHNHAJ@NAN?$CIIND?$CJ@ 0000000180064560     libucrt:cvt.obj
 0002:00007570       ??_C@_08OFCDMILK@nan?$CIind?$CJ@ 0000000180064570     libucrt:cvt.obj
 0002:0000757c       ??_C@_05KLBDPFGC@e?$CL000@ 000000018006457c     libucrt:cvt.obj
 0002:00007584       ?ccs@?1???$__acrt_stdio_parse_mode@D@@YA?AU__acrt_stdio_stream_mode@@QEBD@Z@4QBDB 0000000180064584     libucrt:openfile.obj
 0002:00007588       ?utf8_encoding@?1???$__acrt_stdio_parse_mode@D@@YA?AU__acrt_stdio_stream_mode@@QEBD@Z@4QBDB 0000000180064588     libucrt:openfile.obj
 0002:00007590       ?utf16_encoding@?1???$__acrt_stdio_parse_mode@D@@YA?AU__acrt_stdio_stream_mode@@QEBD@Z@4QBDB 0000000180064590     libucrt:openfile.obj
 0002:00007598       ?unicode_encoding@?1???$__acrt_stdio_parse_mode@D@@YA?AU__acrt_stdio_stream_mode@@QEBD@Z@4QBDB 0000000180064598     libucrt:openfile.obj
 0002:000075c8       ??_C@_03JGHBODFD@pow@      00000001800645c8     libucrt:fpexcept.obj
 0002:000075cc       ??_C@_05HGHHAHAP@log10@    00000001800645cc     libucrt:fpexcept.obj
 0002:000075d4       ??_C@_04PDIFKINK@acos@     00000001800645d4     libucrt:fpexcept.obj
 0002:000075dc       ??_C@_04EIAKFFMI@sqrt@     00000001800645dc     libucrt:fpexcept.obj
 0002:000075f0       __log_256_lead             00000001800645f0     libucrt:log_256_lead_tail_table.obj
 0002:00007e00       __log_256_tail             0000000180064e00     libucrt:log_256_lead_tail_table.obj
 0002:00008610       __two_to_jby64_head_table  0000000180065610     libucrt:two_to_jby64_head_tail_table.obj
 0002:00008810       __two_to_jby64_tail_table  0000000180065810     libucrt:two_to_jby64_head_tail_table.obj
 0002:00008a10       ??_C@_04MBFDLNIM@powf@     0000000180065a10     libucrt:pow_special.obj
 0002:00008a20       __two_to_jby64_table       0000000180065a20     libucrt:two_to_jby64_table.obj
 0002:00008c20       __log_F_inv_qword          0000000180065c20     libucrt:log_f_inv_qword_table.obj
 0002:00009430       ??_C@_15HNJCPLHL@?$AAT?$AAZ@ 0000000180066430     libucrt:tzset.obj
 0002:00009458       ??_C@_1M@HPNHIDJI@?$AAj?$AAa?$AA?9?$AAJ?$AAP@ 0000000180066458     libucrt:mbctype.obj
 0002:00009468       ??_C@_1M@BIBDDEMK@?$AAz?$AAh?$AA?9?$AAC?$AAN@ 0000000180066468     libucrt:mbctype.obj
 0002:00009478       ??_C@_1M@JLOOOEGK@?$AAk?$AAo?$AA?9?$AAK?$AAR@ 0000000180066478     libucrt:mbctype.obj
 0002:00009488       ??_C@_1M@CLNBBOPM@?$AAz?$AAh?$AA?9?$AAT?$AAW@ 0000000180066488     libucrt:mbctype.obj
 0002:000094a0       __acrt_rg_language         00000001800664a0     libucrt:get_qualified_locale.obj
 0002:000098b0       __acrt_rg_language_count   00000001800668b0     libucrt:get_qualified_locale.obj
 0002:000098c0       __acrt_rg_country          00000001800668c0     libucrt:get_qualified_locale.obj
 0002:00009a30       __acrt_rg_country_count    0000000180066a30     libucrt:get_qualified_locale.obj
 0002:00009a38       ??_C@_1BC@LLOKLNP@?$AAa?$AAm?$AAe?$AAr?$AAi?$AAc?$AAa?$AAn@ 0000000180066a38     libucrt:get_qualified_locale.obj
 0002:00009a50       ??_C@_1CC@HEIGCDGG@?$AAa?$AAm?$AAe?$AAr?$AAi?$AAc?$AAa?$AAn?$AA?5?$AAe?$AAn?$AAg?$AAl?$AAi?$AAs@ 0000000180066a50     libucrt:get_qualified_locale.obj
 0002:00009a78       ??_C@_1CC@IHCNOMIN@?$AAa?$AAm?$AAe?$AAr?$AAi?$AAc?$AAa?$AAn?$AA?9?$AAe?$AAn?$AAg?$AAl?$AAi?$AAs@ 0000000180066a78     libucrt:get_qualified_locale.obj
 0002:00009aa0       ??_C@_1BG@GKAGPCGG@?$AAa?$AAu?$AAs?$AAt?$AAr?$AAa?$AAl?$AAi?$AAa?$AAn@ 0000000180066aa0     libucrt:get_qualified_locale.obj
 0002:00009ab8       ??_C@_1BA@GMENCENF@?$AAb?$AAe?$AAl?$AAg?$AAi?$AAa?$AAn@ 0000000180066ab8     libucrt:get_qualified_locale.obj
 0002:00009ac8       ??_C@_1BC@PJMIIAAN@?$AAc?$AAa?$AAn?$AAa?$AAd?$AAi?$AAa?$AAn@ 0000000180066ac8     libucrt:get_qualified_locale.obj
 0002:00009ae0       ??_C@_17NOIMNFBF@?$AAc?$AAh?$AAh@ 0000000180066ae0     libucrt:get_qualified_locale.obj
 0002:00009ae8       ??_C@_17GGDALCHA@?$AAc?$AAh?$AAi@ 0000000180066ae8     libucrt:get_qualified_locale.obj
 0002:00009af0       ??_C@_1BA@NPNJKIBL@?$AAc?$AAh?$AAi?$AAn?$AAe?$AAs?$AAe@ 0000000180066af0     libucrt:get_qualified_locale.obj
 0002:00009b00       ??_C@_1CC@DINBAMMJ@?$AAc?$AAh?$AAi?$AAn?$AAe?$AAs?$AAe?$AA?9?$AAh?$AAo?$AAn?$AAg?$AAk?$AAo?$AAn@ 0000000180066b00     libucrt:get_qualified_locale.obj
 0002:00009b28       ??_C@_1CG@IOBJPACO@?$AAc?$AAh?$AAi?$AAn?$AAe?$AAs?$AAe?$AA?9?$AAs?$AAi?$AAm?$AAp?$AAl?$AAi?$AAf@ 0000000180066b28     libucrt:get_qualified_locale.obj
 0002:00009b50       ??_C@_1CE@GAJNDCKG@?$AAc?$AAh?$AAi?$AAn?$AAe?$AAs?$AAe?$AA?9?$AAs?$AAi?$AAn?$AAg?$AAa?$AAp?$AAo@ 0000000180066b50     libucrt:get_qualified_locale.obj
 0002:00009b78       ??_C@_1CI@PAJPIOOD@?$AAc?$AAh?$AAi?$AAn?$AAe?$AAs?$AAe?$AA?9?$AAt?$AAr?$AAa?$AAd?$AAi?$AAt?$AAi@ 0000000180066b78     libucrt:get_qualified_locale.obj
 0002:00009ba0       ??_C@_1BM@NILJBMMD@?$AAd?$AAu?$AAt?$AAc?$AAh?$AA?9?$AAb?$AAe?$AAl?$AAg?$AAi?$AAa?$AAn@ 0000000180066ba0     libucrt:get_qualified_locale.obj
 0002:00009bc0       ??_C@_1CC@OOJPJNEJ@?$AAe?$AAn?$AAg?$AAl?$AAi?$AAs?$AAh?$AA?9?$AAa?$AAm?$AAe?$AAr?$AAi?$AAc?$AAa@ 0000000180066bc0     libucrt:get_qualified_locale.obj
 0002:00009be8       ??_C@_1BI@IOLFEEM@?$AAe?$AAn?$AAg?$AAl?$AAi?$AAs?$AAh?$AA?9?$AAa?$AAu?$AAs@ 0000000180066be8     libucrt:get_qualified_locale.obj
 0002:00009c00       ??_C@_1BO@HFFNLENJ@?$AAe?$AAn?$AAg?$AAl?$AAi?$AAs?$AAh?$AA?9?$AAb?$AAe?$AAl?$AAi?$AAz?$AAe@ 0000000180066c00     libucrt:get_qualified_locale.obj
 0002:00009c20       ??_C@_1BI@HAPKJMPO@?$AAe?$AAn?$AAg?$AAl?$AAi?$AAs?$AAh?$AA?9?$AAc?$AAa?$AAn@ 0000000180066c20     libucrt:get_qualified_locale.obj
 0002:00009c38       ??_C@_1CE@HLNDMIOJ@?$AAe?$AAn?$AAg?$AAl?$AAi?$AAs?$AAh?$AA?9?$AAc?$AAa?$AAr?$AAi?$AAb?$AAb?$AAe@ 0000000180066c38     libucrt:get_qualified_locale.obj
 0002:00009c60       ??_C@_1BI@LDHJHHAC@?$AAe?$AAn?$AAg?$AAl?$AAi?$AAs?$AAh?$AA?9?$AAi?$AAr?$AAe@ 0000000180066c60     libucrt:get_qualified_locale.obj
 0002:00009c78       ??_C@_1CA@NJMMCFOC@?$AAe?$AAn?$AAg?$AAl?$AAi?$AAs?$AAh?$AA?9?$AAj?$AAa?$AAm?$AAa?$AAi?$AAc?$AAa@ 0000000180066c78     libucrt:get_qualified_locale.obj
 0002:00009c98       ??_C@_1BG@BHJEBBGG@?$AAe?$AAn?$AAg?$AAl?$AAi?$AAs?$AAh?$AA?9?$AAn?$AAz@ 0000000180066c98     libucrt:get_qualified_locale.obj
 0002:00009cb0       ??_C@_1CK@FGOEJJCO@?$AAe?$AAn?$AAg?$AAl?$AAi?$AAs?$AAh?$AA?9?$AAs?$AAo?$AAu?$AAt?$AAh?$AA?5?$AAa@ 0000000180066cb0     libucrt:get_qualified_locale.obj
 0002:00009ce0       ??_C@_1DE@PDBJPCJ@?$AAe?$AAn?$AAg?$AAl?$AAi?$AAs?$AAh?$AA?9?$AAt?$AAr?$AAi?$AAn?$AAi?$AAd?$AAa@ 0000000180066ce0     libucrt:get_qualified_locale.obj
 0002:00009d18       ??_C@_1BG@JGCANDME@?$AAe?$AAn?$AAg?$AAl?$AAi?$AAs?$AAh?$AA?9?$AAu?$AAk@ 0000000180066d18     libucrt:get_qualified_locale.obj
 0002:00009d30       ??_C@_1BG@DINKMLE@?$AAe?$AAn?$AAg?$AAl?$AAi?$AAs?$AAh?$AA?9?$AAu?$AAs@ 0000000180066d30     libucrt:get_qualified_locale.obj
 0002:00009d48       ??_C@_1BI@NMFDBHJE@?$AAe?$AAn?$AAg?$AAl?$AAi?$AAs?$AAh?$AA?9?$AAu?$AAs?$AAa@ 0000000180066d48     libucrt:get_qualified_locale.obj
 0002:00009d60       ??_C@_1BO@OIHKJKII@?$AAf?$AAr?$AAe?$AAn?$AAc?$AAh?$AA?9?$AAb?$AAe?$AAl?$AAg?$AAi?$AAa?$AAn@ 0000000180066d60     libucrt:get_qualified_locale.obj
 0002:00009d80       ??_C@_1CA@NKAELJKI@?$AAf?$AAr?$AAe?$AAn?$AAc?$AAh?$AA?9?$AAc?$AAa?$AAn?$AAa?$AAd?$AAi?$AAa?$AAn@ 0000000180066d80     libucrt:get_qualified_locale.obj
 0002:00009da0       ??_C@_1CE@MGKCNLGN@?$AAf?$AAr?$AAe?$AAn?$AAc?$AAh?$AA?9?$AAl?$AAu?$AAx?$AAe?$AAm?$AAb?$AAo?$AAu@ 0000000180066da0     libucrt:get_qualified_locale.obj
 0002:00009dc8       ??_C@_1BK@CEGEAILM@?$AAf?$AAr?$AAe?$AAn?$AAc?$AAh?$AA?9?$AAs?$AAw?$AAi?$AAs?$AAs@ 0000000180066dc8     libucrt:get_qualified_locale.obj
 0002:00009de8       ??_C@_1CA@PAFKEOCC@?$AAg?$AAe?$AAr?$AAm?$AAa?$AAn?$AA?9?$AAa?$AAu?$AAs?$AAt?$AAr?$AAi?$AAa?$AAn@ 0000000180066de8     libucrt:get_qualified_locale.obj
 0002:00009e08       ??_C@_1CI@HCFHGOFD@?$AAg?$AAe?$AAr?$AAm?$AAa?$AAn?$AA?9?$AAl?$AAi?$AAc?$AAh?$AAt?$AAe?$AAn?$AAs@ 0000000180066e08     libucrt:get_qualified_locale.obj
 0002:00009e30       ??_C@_1CE@FEDDNPDG@?$AAg?$AAe?$AAr?$AAm?$AAa?$AAn?$AA?9?$AAl?$AAu?$AAx?$AAe?$AAm?$AAb?$AAo?$AAu@ 0000000180066e30     libucrt:get_qualified_locale.obj
 0002:00009e58       ??_C@_1BK@LIMINNMN@?$AAg?$AAe?$AAr?$AAm?$AAa?$AAn?$AA?9?$AAs?$AAw?$AAi?$AAs?$AAs@ 0000000180066e58     libucrt:get_qualified_locale.obj
 0002:00009e78       ??_C@_1BM@LGMDBEPD@?$AAi?$AAr?$AAi?$AAs?$AAh?$AA?9?$AAe?$AAn?$AAg?$AAl?$AAi?$AAs?$AAh@ 0000000180066e78     libucrt:get_qualified_locale.obj
 0002:00009e98       ??_C@_1BM@NNCFBAEE@?$AAi?$AAt?$AAa?$AAl?$AAi?$AAa?$AAn?$AA?9?$AAs?$AAw?$AAi?$AAs?$AAs@ 0000000180066e98     libucrt:get_qualified_locale.obj
 0002:00009eb8       ??_C@_1BE@FEDJNPIB@?$AAn?$AAo?$AAr?$AAw?$AAe?$AAg?$AAi?$AAa?$AAn@ 0000000180066eb8     libucrt:get_qualified_locale.obj
 0002:00009ed0       ??_C@_1CC@CILKDEIE@?$AAn?$AAo?$AAr?$AAw?$AAe?$AAg?$AAi?$AAa?$AAn?$AA?9?$AAb?$AAo?$AAk?$AAm?$AAa@ 0000000180066ed0     libucrt:get_qualified_locale.obj
 0002:00009ef8       ??_C@_1CE@DHMMHEPL@?$AAn?$AAo?$AAr?$AAw?$AAe?$AAg?$AAi?$AAa?$AAn?$AA?9?$AAn?$AAy?$AAn?$AAo?$AAr@ 0000000180066ef8     libucrt:get_qualified_locale.obj
 0002:00009f20       ??_C@_1CK@OPNMHECD@?$AAp?$AAo?$AAr?$AAt?$AAu?$AAg?$AAu?$AAe?$AAs?$AAe?$AA?9?$AAb?$AAr?$AAa?$AAz@ 0000000180066f20     libucrt:get_qualified_locale.obj
 0002:00009f50       ??_C@_1CE@KEEHCDB@?$AAs?$AAp?$AAa?$AAn?$AAi?$AAs?$AAh?$AA?9?$AAa?$AAr?$AAg?$AAe?$AAn?$AAt?$AAi@ 0000000180066f50     libucrt:get_qualified_locale.obj
 0002:00009f78       ??_C@_1CA@GIAOLHJD@?$AAs?$AAp?$AAa?$AAn?$AAi?$AAs?$AAh?$AA?9?$AAb?$AAo?$AAl?$AAi?$AAv?$AAi?$AAa@ 0000000180066f78     libucrt:get_qualified_locale.obj
 0002:00009f98       ??_C@_1BM@OJNDFNPD@?$AAs?$AAp?$AAa?$AAn?$AAi?$AAs?$AAh?$AA?9?$AAc?$AAh?$AAi?$AAl?$AAe@ 0000000180066f98     libucrt:get_qualified_locale.obj
 0002:00009fb8       ??_C@_1CC@OCOLPALL@?$AAs?$AAp?$AAa?$AAn?$AAi?$AAs?$AAh?$AA?9?$AAc?$AAo?$AAl?$AAo?$AAm?$AAb?$AAi@ 0000000180066fb8     libucrt:get_qualified_locale.obj
 0002:00009fe0       ??_C@_1CG@BPOFMKBB@?$AAs?$AAp?$AAa?$AAn?$AAi?$AAs?$AAh?$AA?9?$AAc?$AAo?$AAs?$AAt?$AAa?$AA?5?$AAr@ 0000000180066fe0     libucrt:get_qualified_locale.obj
 0002:0000a008       ??_C@_1DG@IGOBAPBB@?$AAs?$AAp?$AAa?$AAn?$AAi?$AAs?$AAh?$AA?9?$AAd?$AAo?$AAm?$AAi?$AAn?$AAi?$AAc@ 0000000180067008     libucrt:get_qualified_locale.obj
 0002:0000a040       ??_C@_1CA@JHAPGEGI@?$AAs?$AAp?$AAa?$AAn?$AAi?$AAs?$AAh?$AA?9?$AAe?$AAc?$AAu?$AAa?$AAd?$AAo?$AAr@ 0000000180067040     libucrt:get_qualified_locale.obj
 0002:0000a060       ??_C@_1CI@LAPALJPP@?$AAs?$AAp?$AAa?$AAn?$AAi?$AAs?$AAh?$AA?9?$AAe?$AAl?$AA?5?$AAs?$AAa?$AAl?$AAv@ 0000000180067060     libucrt:get_qualified_locale.obj
 0002:0000a088       ??_C@_1CE@PDGBOFOM@?$AAs?$AAp?$AAa?$AAn?$AAi?$AAs?$AAh?$AA?9?$AAg?$AAu?$AAa?$AAt?$AAe?$AAm?$AAa@ 0000000180067088     libucrt:get_qualified_locale.obj
 0002:0000a0b0       ??_C@_1CC@NBEBAODI@?$AAs?$AAp?$AAa?$AAn?$AAi?$AAs?$AAh?$AA?9?$AAh?$AAo?$AAn?$AAd?$AAu?$AAr?$AAa@ 00000001800670b0     libucrt:get_qualified_locale.obj
 0002:0000a0d8       ??_C@_1CA@LLKGHBMF@?$AAs?$AAp?$AAa?$AAn?$AAi?$AAs?$AAh?$AA?9?$AAm?$AAe?$AAx?$AAi?$AAc?$AAa?$AAn@ 00000001800670d8     libucrt:get_qualified_locale.obj
 0002:0000a0f8       ??_C@_1BO@LKNDOIGD@?$AAs?$AAp?$AAa?$AAn?$AAi?$AAs?$AAh?$AA?9?$AAm?$AAo?$AAd?$AAe?$AAr?$AAn@ 00000001800670f8     libucrt:get_qualified_locale.obj
 0002:0000a118       ??_C@_1CE@NMDMOEEB@?$AAs?$AAp?$AAa?$AAn?$AAi?$AAs?$AAh?$AA?9?$AAn?$AAi?$AAc?$AAa?$AAr?$AAa?$AAg@ 0000000180067118     libucrt:get_qualified_locale.obj
 0002:0000a140       ??_C@_1BO@LLCBEJGB@?$AAs?$AAp?$AAa?$AAn?$AAi?$AAs?$AAh?$AA?9?$AAp?$AAa?$AAn?$AAa?$AAm?$AAa@ 0000000180067140     libucrt:get_qualified_locale.obj
 0002:0000a160       ??_C@_1CC@FKPGGIHO@?$AAs?$AAp?$AAa?$AAn?$AAi?$AAs?$AAh?$AA?9?$AAp?$AAa?$AAr?$AAa?$AAg?$AAu?$AAa@ 0000000180067160     libucrt:get_qualified_locale.obj
 0002:0000a188       ??_C@_1BK@CDEIHOOP@?$AAs?$AAp?$AAa?$AAn?$AAi?$AAs?$AAh?$AA?9?$AAp?$AAe?$AAr?$AAu@ 0000000180067188     libucrt:get_qualified_locale.obj
 0002:0000a1a8       ??_C@_1CI@GAHAKKGP@?$AAs?$AAp?$AAa?$AAn?$AAi?$AAs?$AAh?$AA?9?$AAp?$AAu?$AAe?$AAr?$AAt?$AAo?$AA?5@ 00000001800671a8     libucrt:get_qualified_locale.obj
 0002:0000a1d0       ??_C@_1CA@NKJBCAGP@?$AAs?$AAp?$AAa?$AAn?$AAi?$AAs?$AAh?$AA?9?$AAu?$AAr?$AAu?$AAg?$AAu?$AAa?$AAy@ 00000001800671d0     libucrt:get_qualified_locale.obj
 0002:0000a1f0       ??_C@_1CE@ODILCONM@?$AAs?$AAp?$AAa?$AAn?$AAi?$AAs?$AAh?$AA?9?$AAv?$AAe?$AAn?$AAe?$AAz?$AAu?$AAe@ 00000001800671f0     libucrt:get_qualified_locale.obj
 0002:0000a218       ??_C@_1CA@OBNMCGFO@?$AAs?$AAw?$AAe?$AAd?$AAi?$AAs?$AAh?$AA?9?$AAf?$AAi?$AAn?$AAl?$AAa?$AAn?$AAd@ 0000000180067218     libucrt:get_qualified_locale.obj
 0002:0000a238       ??_C@_1M@PIPDDPPI@?$AAs?$AAw?$AAi?$AAs?$AAs@ 0000000180067238     libucrt:get_qualified_locale.obj
 0002:0000a244       ??_C@_15PJPFLCCM@?$AAu?$AAk@ 0000000180067244     libucrt:get_qualified_locale.obj
 0002:0000a24c       ??_C@_15GMFIMNFM@?$AAu?$AAs@ 000000018006724c     libucrt:get_qualified_locale.obj
 0002:0000a258       ??_C@_17HAEBFAGL@?$AAu?$AAs?$AAa@ 0000000180067258     libucrt:get_qualified_locale.obj
 0002:0000a260       ??_C@_1BA@DPFJEPHB@?$AAa?$AAm?$AAe?$AAr?$AAi?$AAc?$AAa@ 0000000180067260     libucrt:get_qualified_locale.obj
 0002:0000a270       ??_C@_1BA@ELOGGFK@?$AAb?$AAr?$AAi?$AAt?$AAa?$AAi?$AAn@ 0000000180067270     libucrt:get_qualified_locale.obj
 0002:0000a280       ??_C@_1M@GHBGIGDA@?$AAc?$AAh?$AAi?$AAn?$AAa@ 0000000180067280     libucrt:get_qualified_locale.obj
 0002:0000a290       ??_C@_1M@NCHEJOPO@?$AAc?$AAz?$AAe?$AAc?$AAh@ 0000000180067290     libucrt:get_qualified_locale.obj
 0002:0000a2a0       ??_C@_1BA@BKPAPBLA@?$AAe?$AAn?$AAg?$AAl?$AAa?$AAn?$AAd@ 00000001800672a0     libucrt:get_qualified_locale.obj
 0002:0000a2b0       ??_C@_1BM@HKBCKIPC@?$AAg?$AAr?$AAe?$AAa?$AAt?$AA?5?$AAb?$AAr?$AAi?$AAt?$AAa?$AAi?$AAn@ 00000001800672b0     libucrt:get_qualified_locale.obj
 0002:0000a2d0       ??_C@_1BA@PPCHPGJB@?$AAh?$AAo?$AAl?$AAl?$AAa?$AAn?$AAd@ 00000001800672d0     libucrt:get_qualified_locale.obj
 0002:0000a2e0       ??_C@_1BE@JBMPEGDG@?$AAh?$AAo?$AAn?$AAg?$AA?9?$AAk?$AAo?$AAn?$AAg@ 00000001800672e0     libucrt:get_qualified_locale.obj
 0002:0000a2f8       ??_C@_1BI@KOELBBPJ@?$AAn?$AAe?$AAw?$AA?9?$AAz?$AAe?$AAa?$AAl?$AAa?$AAn?$AAd@ 00000001800672f8     libucrt:get_qualified_locale.obj
 0002:0000a310       ??_C@_15HIEBHAIO@?$AAn?$AAz@ 0000000180067310     libucrt:get_qualified_locale.obj
 0002:0000a318       ??_C@_1BC@CHBCPFPI@?$AAp?$AAr?$AA?5?$AAc?$AAh?$AAi?$AAn?$AAa@ 0000000180067318     libucrt:get_qualified_locale.obj
 0002:0000a330       ??_C@_1BC@JAOIIFKD@?$AAp?$AAr?$AA?9?$AAc?$AAh?$AAi?$AAn?$AAa@ 0000000180067330     libucrt:get_qualified_locale.obj
 0002:0000a348       ??_C@_1BI@BEHPPHKC@?$AAp?$AAu?$AAe?$AAr?$AAt?$AAo?$AA?9?$AAr?$AAi?$AAc?$AAo@ 0000000180067348     libucrt:get_qualified_locale.obj
 0002:0000a360       ??_C@_1O@PAEOFKDI@?$AAs?$AAl?$AAo?$AAv?$AAa?$AAk@ 0000000180067360     libucrt:get_qualified_locale.obj
 0002:0000a370       ??_C@_1BK@FIHMCKAM@?$AAs?$AAo?$AAu?$AAt?$AAh?$AA?5?$AAa?$AAf?$AAr?$AAi?$AAc?$AAa@ 0000000180067370     libucrt:get_qualified_locale.obj
 0002:0000a390       ??_C@_1BI@NAEOODKB@?$AAs?$AAo?$AAu?$AAt?$AAh?$AA?5?$AAk?$AAo?$AAr?$AAe?$AAa@ 0000000180067390     libucrt:get_qualified_locale.obj
 0002:0000a3a8       ??_C@_1BK@FBDGGIFF@?$AAs?$AAo?$AAu?$AAt?$AAh?$AA?9?$AAa?$AAf?$AAr?$AAi?$AAc?$AAa@ 00000001800673a8     libucrt:get_qualified_locale.obj
 0002:0000a3c8       ??_C@_1BI@GHLEJDPK@?$AAs?$AAo?$AAu?$AAt?$AAh?$AA?9?$AAk?$AAo?$AAr?$AAe?$AAa@ 00000001800673c8     libucrt:get_qualified_locale.obj
 0002:0000a3e0       ??_C@_1CE@PLHLOMJF@?$AAt?$AAr?$AAi?$AAn?$AAi?$AAd?$AAa?$AAd?$AA?5?$AA?$CG?$AA?5?$AAt?$AAo?$AAb?$AAa@ 00000001800673e0     libucrt:get_qualified_locale.obj
 0002:0000a408       ??_C@_1BO@MODIMHHI@?$AAu?$AAn?$AAi?$AAt?$AAe?$AAd?$AA?9?$AAk?$AAi?$AAn?$AAg?$AAd?$AAo?$AAm@ 0000000180067408     libucrt:get_qualified_locale.obj
 0002:0000a428       ??_C@_1BM@FFHJONBJ@?$AAu?$AAn?$AAi?$AAt?$AAe?$AAd?$AA?9?$AAs?$AAt?$AAa?$AAt?$AAe?$AAs@ 0000000180067428     libucrt:get_qualified_locale.obj
 0002:0000a448       ??_C@_19MPDNHKDG@?$AAu?$AAt?$AAf?$AA8@ 0000000180067448     libucrt:get_qualified_locale.obj
 0002:0000a458       ??_C@_17DNCLJFIF@?$AAA?$AAC?$AAP@ 0000000180067458     libucrt:get_qualified_locale.obj
 0002:0000a460       ??_C@_1M@FPEIIFAM@?$AAu?$AAt?$AAf?$AA?9?$AA8@ 0000000180067460     libucrt:get_qualified_locale.obj
 0002:0000a470       ??_C@_17CIKBIHLH@?$AAO?$AAC?$AAP@ 0000000180067470     libucrt:get_qualified_locale.obj
 0002:0000a478       __rglangidNotDefault       0000000180067478     libucrt:getqloc_downlevel.obj
 0002:0000b300       ??_C@_15EMKDOKLE@?$AAa?$AAr@ 0000000180068300     libucrt:lcidtoname_downlevel.obj
 0002:0000b308       ??_C@_15KNPADPLH@?$AAb?$AAg@ 0000000180068308     libucrt:lcidtoname_downlevel.obj
 0002:0000b310       ??_C@_15EDMHLDMO@?$AAc?$AAa@ 0000000180068310     libucrt:lcidtoname_downlevel.obj
 0002:0000b318       ??_C@_1O@BPEAJADD@?$AAz?$AAh?$AA?9?$AAC?$AAH?$AAS@ 0000000180068318     libucrt:lcidtoname_downlevel.obj
 0002:0000b328       ??_C@_15LJNHCMNK@?$AAc?$AAs@ 0000000180068328     libucrt:lcidtoname_downlevel.obj
 0002:0000b330       ??_C@_15FOMCIDHG@?$AAd?$AAa@ 0000000180068330     libucrt:lcidtoname_downlevel.obj
 0002:0000b338       ??_C@_15NBKABECB@?$AAd?$AAe@ 0000000180068338     libucrt:lcidtoname_downlevel.obj
 0002:0000b340       ??_C@_15GHPEIIAO@?$AAe?$AAl@ 0000000180068340     libucrt:lcidtoname_downlevel.obj
 0002:0000b348       ??_C@_15MNPNEAIF@?$AAe?$AAn@ 0000000180068348     libucrt:lcidtoname_downlevel.obj
 0002:0000b350       ??_C@_15GPIOMPMH@?$AAe?$AAs@ 0000000180068350     libucrt:lcidtoname_downlevel.obj
 0002:0000b358       ??_C@_15NGLOAKJC@?$AAf?$AAi@ 0000000180068358     libucrt:lcidtoname_downlevel.obj
 0002:0000b360       ??_C@_15FBKGNKAM@?$AAf?$AAr@ 0000000180068360     libucrt:lcidtoname_downlevel.obj
 0002:0000b368       ??_C@_15KGGCNEFK@?$AAh?$AAe@ 0000000180068368     libucrt:lcidtoname_downlevel.obj
 0002:0000b370       ??_C@_15PGHLIDMF@?$AAh?$AAu@ 0000000180068370     libucrt:lcidtoname_downlevel.obj
 0002:0000b378       ??_C@_15BIEMAPLM@?$AAi?$AAs@ 0000000180068378     libucrt:lcidtoname_downlevel.obj
 0002:0000b380       ??_C@_15IFJLDHAF@?$AAi?$AAt@ 0000000180068380     libucrt:lcidtoname_downlevel.obj
 0002:0000b388       ??_C@_15GEMIOCAG@?$AAj?$AAa@ 0000000180068388     libucrt:lcidtoname_downlevel.obj
 0002:0000b390       ??_C@_15EPELEGJA@?$AAk?$AAo@ 0000000180068390     libucrt:lcidtoname_downlevel.obj
 0002:0000b398       ??_C@_15NDDHIMN@?$AAn?$AAl@ 0000000180068398     libucrt:lcidtoname_downlevel.obj
 0002:0000b3a0       ??_C@_15BPIGNHCD@?$AAn?$AAo@ 00000001800683a0     libucrt:lcidtoname_downlevel.obj
 0002:0000b3a8       ??_C@_15DEOPBLCG@?$AAp?$AAl@ 00000001800683a8     libucrt:lcidtoname_downlevel.obj
 0002:0000b3b0       ??_C@_15KBECGEFG@?$AAp?$AAt@ 00000001800683b0     libucrt:lcidtoname_downlevel.obj
 0002:0000b3b8       ??_C@_15GLJCBFMD@?$AAr?$AAo@ 00000001800683b8     libucrt:lcidtoname_downlevel.obj
 0002:0000b3c0       ??_C@_15FEDGKCDI@?$AAr?$AAu@ 00000001800683c0     libucrt:lcidtoname_downlevel.obj
 0002:0000b3c8       ??_C@_15GLKMLLHM@?$AAh?$AAr@ 00000001800683c8     libucrt:lcidtoname_downlevel.obj
 0002:0000b3d0       ??_C@_15CPKMFBDB@?$AAs?$AAk@ 00000001800683d0     libucrt:lcidtoname_downlevel.obj
 0002:0000b3d8       ??_C@_15BAAIOGMK@?$AAs?$AAq@ 00000001800683d8     libucrt:lcidtoname_downlevel.obj
 0002:0000b3e0       ??_C@_15INNPNOHD@?$AAs?$AAv@ 00000001800683e0     libucrt:lcidtoname_downlevel.obj
 0002:0000b3e8       ??_C@_15CABMMOGH@?$AAt?$AAh@ 00000001800683e8     libucrt:lcidtoname_downlevel.obj
 0002:0000b3f0       ??_C@_15BPLIHJJM@?$AAt?$AAr@ 00000001800683f0     libucrt:lcidtoname_downlevel.obj
 0002:0000b3f8       ??_C@_15NEOEKKDJ@?$AAu?$AAr@ 00000001800683f8     libucrt:lcidtoname_downlevel.obj
 0002:0000b400       ??_C@_15NFICGAJK@?$AAi?$AAd@ 0000000180068400     libucrt:lcidtoname_downlevel.obj
 0002:0000b408       ??_C@_15HPJPHDM@?$AAb?$AAe@ 0000000180068408     libucrt:lcidtoname_downlevel.obj
 0002:0000b410       ??_C@_15LCHLGJII@?$AAs?$AAl@ 0000000180068410     libucrt:lcidtoname_downlevel.obj
 0002:0000b418       ??_C@_15PCFJPHHO@?$AAe?$AAt@ 0000000180068418     libucrt:lcidtoname_downlevel.obj
 0002:0000b420       ??_C@_15HPFPGODN@?$AAl?$AAv@ 0000000180068420     libucrt:lcidtoname_downlevel.obj
 0002:0000b428       ??_C@_15NFFGKGLG@?$AAl?$AAt@ 0000000180068428     libucrt:lcidtoname_downlevel.obj
 0002:0000b430       ??_C@_15BDAKCCHN@?$AAf?$AAa@ 0000000180068430     libucrt:lcidtoname_downlevel.obj
 0002:0000b438       ??_C@_15NFGIAIAJ@?$AAv?$AAi@ 0000000180068438     libucrt:lcidtoname_downlevel.obj
 0002:0000b440       ??_C@_15LMKNDMHN@?$AAh?$AAy@ 0000000180068440     libucrt:lcidtoname_downlevel.obj
 0002:0000b448       ??_C@_15IJBHMCFL@?$AAa?$AAz@ 0000000180068448     libucrt:lcidtoname_downlevel.obj
 0002:0000b450       ??_C@_15EKOFJABL@?$AAe?$AAu@ 0000000180068450     libucrt:lcidtoname_downlevel.obj
 0002:0000b458       ??_C@_15BGHADCNK@?$AAm?$AAk@ 0000000180068458     libucrt:lcidtoname_downlevel.obj
 0002:0000b460       ??_C@_15JDNICKHM@?$AAa?$AAf@ 0000000180068460     libucrt:lcidtoname_downlevel.obj
 0002:0000b468       ??_C@_15KPJEDBKD@?$AAk?$AAa@ 0000000180068468     libucrt:lcidtoname_downlevel.obj
 0002:0000b470       ??_C@_15PDNFFFEO@?$AAf?$AAo@ 0000000180068470     libucrt:lcidtoname_downlevel.obj
 0002:0000b478       ??_C@_15OMLEGLOC@?$AAh?$AAi@ 0000000180068478     libucrt:lcidtoname_downlevel.obj
 0002:0000b480       ??_C@_15IDNNENKK@?$AAm?$AAs@ 0000000180068480     libucrt:lcidtoname_downlevel.obj
 0002:0000b488       ??_C@_15MACJNBMH@?$AAk?$AAk@ 0000000180068488     libucrt:lcidtoname_downlevel.obj
 0002:0000b490       ??_C@_15DKDJEOND@?$AAk?$AAy@ 0000000180068490     libucrt:lcidtoname_downlevel.obj
 0002:0000b498       ??_C@_15DFGDLJBG@?$AAs?$AAw@ 0000000180068498     libucrt:lcidtoname_downlevel.obj
 0002:0000b4a0       ??_C@_15BBFAICNG@?$AAu?$AAz@ 00000001800684a0     libucrt:lcidtoname_downlevel.obj
 0002:0000b4a8       ??_C@_15DKNDCGEA@?$AAt?$AAt@ 00000001800684a8     libucrt:lcidtoname_downlevel.obj
 0002:0000b4b0       ??_C@_15MGIFMDPL@?$AAp?$AAa@ 00000001800684b0     libucrt:lcidtoname_downlevel.obj
 0002:0000b4b8       ??_C@_15HCNDBBA@?$AAg?$AAu@ 00000001800684b8     libucrt:lcidtoname_downlevel.obj
 0002:0000b4c0       ??_C@_15FNBEIBON@?$AAt?$AAa@ 00000001800684c0     libucrt:lcidtoname_downlevel.obj
 0002:0000b4c8       ??_C@_15NCHGBGLK@?$AAt?$AAe@ 00000001800684c8     libucrt:lcidtoname_downlevel.obj
 0002:0000b4d0       ??_C@_15PHPHCBPF@?$AAk?$AAn@ 00000001800684d0     libucrt:lcidtoname_downlevel.obj
 0002:0000b4d8       ??_C@_15DLGBCKMP@?$AAm?$AAr@ 00000001800684d8     libucrt:lcidtoname_downlevel.obj
 0002:0000b4e0       ??_C@_15EABBLBFF@?$AAs?$AAa@ 00000001800684e0     libucrt:lcidtoname_downlevel.obj
 0002:0000b4e8       ??_C@_15CBKOMCOI@?$AAm?$AAn@ 00000001800684e8     libucrt:lcidtoname_downlevel.obj
 0002:0000b4f0       ??_C@_15CKDMCJAF@?$AAg?$AAl@ 00000001800684f0     libucrt:lcidtoname_downlevel.obj
 0002:0000b4f8       ??_C@_17CNJFBPG@?$AAk?$AAo?$AAk@ 00000001800684f8     libucrt:lcidtoname_downlevel.obj
 0002:0000b500       ??_C@_17FFBJICPL@?$AAs?$AAy?$AAr@ 0000000180068500     libucrt:lcidtoname_downlevel.obj
 0002:0000b508       ??_C@_17KPNDCPAF@?$AAd?$AAi?$AAv@ 0000000180068508     libucrt:lcidtoname_downlevel.obj
 0002:0000b510       ??_C@_1M@OKAHONE@?$AAa?$AAr?$AA?9?$AAS?$AAA@ 0000000180068510     libucrt:lcidtoname_downlevel.obj
 0002:0000b520       ??_C@_1M@FFFIGIGK@?$AAb?$AAg?$AA?9?$AAB?$AAG@ 0000000180068520     libucrt:lcidtoname_downlevel.obj
 0002:0000b530       ??_C@_1M@BJNKEDC@?$AAc?$AAa?$AA?9?$AAE?$AAS@ 0000000180068530     libucrt:lcidtoname_downlevel.obj
 0002:0000b540       ??_C@_1M@IJJHFJHA@?$AAc?$AAs?$AA?9?$AAC?$AAZ@ 0000000180068540     libucrt:lcidtoname_downlevel.obj
 0002:0000b550       ??_C@_1M@CLPEOBGI@?$AAd?$AAa?$AA?9?$AAD?$AAK@ 0000000180068550     libucrt:lcidtoname_downlevel.obj
 0002:0000b560       ??_C@_1M@MCMADGCB@?$AAd?$AAe?$AA?9?$AAD?$AAE@ 0000000180068560     libucrt:lcidtoname_downlevel.obj
 0002:0000b570       ??_C@_1M@OOCKEMAM@?$AAe?$AAl?$AA?9?$AAG?$AAR@ 0000000180068570     libucrt:lcidtoname_downlevel.obj
 0002:0000b580       ??_C@_1M@DDNJFGID@?$AAf?$AAi?$AA?9?$AAF?$AAI@ 0000000180068580     libucrt:lcidtoname_downlevel.obj
 0002:0000b590       ??_C@_1M@GLIPPMAC@?$AAf?$AAr?$AA?9?$AAF?$AAR@ 0000000180068590     libucrt:lcidtoname_downlevel.obj
 0002:0000b5a0       ??_C@_1M@GFMCHPE@?$AAh?$AAe?$AA?9?$AAI?$AAL@ 00000001800685a0     libucrt:lcidtoname_downlevel.obj
 0002:0000b5b0       ??_C@_1M@MHLPGNKM@?$AAh?$AAu?$AA?9?$AAH?$AAU@ 00000001800685b0     libucrt:lcidtoname_downlevel.obj
 0002:0000b5c0       ??_C@_1M@LPDDNNPN@?$AAi?$AAs?$AA?9?$AAI?$AAS@ 00000001800685c0     libucrt:lcidtoname_downlevel.obj
 0002:0000b5d0       ??_C@_1M@MADIPODN@?$AAi?$AAt?$AA?9?$AAI?$AAT@ 00000001800685d0     libucrt:lcidtoname_downlevel.obj
 0002:0000b5e0       ??_C@_1M@IHBJJGG@?$AAn?$AAl?$AA?9?$AAN?$AAL@ 00000001800685e0     libucrt:lcidtoname_downlevel.obj
 0002:0000b5f0       ??_C@_1M@EANAGDL@?$AAn?$AAb?$AA?9?$AAN?$AAO@ 00000001800685f0     libucrt:lcidtoname_downlevel.obj
 0002:0000b600       ??_C@_1M@NEIEMEGP@?$AAp?$AAl?$AA?9?$AAP?$AAL@ 0000000180068600     libucrt:lcidtoname_downlevel.obj
 0002:0000b610       ??_C@_1M@BOCFIGEP@?$AAp?$AAt?$AA?9?$AAB?$AAR@ 0000000180068610     libucrt:lcidtoname_downlevel.obj
 0002:0000b620       ??_C@_1M@IMPFOPBG@?$AAr?$AAo?$AA?9?$AAR?$AAO@ 0000000180068620     libucrt:lcidtoname_downlevel.obj
 0002:0000b630       ??_C@_1M@IDNNEJMM@?$AAr?$AAu?$AA?9?$AAR?$AAU@ 0000000180068630     libucrt:lcidtoname_downlevel.obj
 0002:0000b640       ??_C@_1M@LILEEOGM@?$AAh?$AAr?$AA?9?$AAH?$AAR@ 0000000180068640     libucrt:lcidtoname_downlevel.obj
 0002:0000b650       ??_C@_1M@FKIFEHPB@?$AAs?$AAk?$AA?9?$AAS?$AAK@ 0000000180068650     libucrt:lcidtoname_downlevel.obj
 0002:0000b660       ??_C@_1M@LJMAMNPJ@?$AAs?$AAq?$AA?9?$AAA?$AAL@ 0000000180068660     libucrt:lcidtoname_downlevel.obj
 0002:0000b670       ??_C@_1M@GIAKDKJK@?$AAs?$AAv?$AA?9?$AAS?$AAE@ 0000000180068670     libucrt:lcidtoname_downlevel.obj
 0002:0000b680       ??_C@_1M@MKJKIKCL@?$AAt?$AAh?$AA?9?$AAT?$AAH@ 0000000180068680     libucrt:lcidtoname_downlevel.obj
 0002:0000b690       ??_C@_1M@MFLCCMPB@?$AAt?$AAr?$AA?9?$AAT?$AAR@ 0000000180068690     libucrt:lcidtoname_downlevel.obj
 0002:0000b6a0       ??_C@_1M@OIJHDKJN@?$AAu?$AAr?$AA?9?$AAP?$AAK@ 00000001800686a0     libucrt:lcidtoname_downlevel.obj
 0002:0000b6b0       ??_C@_1M@LHIPCIEK@?$AAi?$AAd?$AA?9?$AAI?$AAD@ 00000001800686b0     libucrt:lcidtoname_downlevel.obj
 0002:0000b6c0       ??_C@_1M@MFMOBGI@?$AAu?$AAk?$AA?9?$AAU?$AAA@ 00000001800686c0     libucrt:lcidtoname_downlevel.obj
 0002:0000b6d0       ??_C@_1M@OBGLJIPL@?$AAb?$AAe?$AA?9?$AAB?$AAY@ 00000001800686d0     libucrt:lcidtoname_downlevel.obj
 0002:0000b6e0       ??_C@_1M@BCFAJEAD@?$AAs?$AAl?$AA?9?$AAS?$AAI@ 00000001800686e0     libucrt:lcidtoname_downlevel.obj
 0002:0000b6f0       ??_C@_1M@FKFFEDDN@?$AAe?$AAt?$AA?9?$AAE?$AAE@ 00000001800686f0     libucrt:lcidtoname_downlevel.obj
 0002:0000b700       ??_C@_1M@KGKKAACI@?$AAl?$AAv?$AA?9?$AAL?$AAV@ 0000000180068700     libucrt:lcidtoname_downlevel.obj
 0002:0000b710       ??_C@_1M@IFGBIJO@?$AAl?$AAt?$AA?9?$AAL?$AAT@ 0000000180068710     libucrt:lcidtoname_downlevel.obj
 0002:0000b720       ??_C@_1M@FGEAHEDM@?$AAf?$AAa?$AA?9?$AAI?$AAR@ 0000000180068720     libucrt:lcidtoname_downlevel.obj
 0002:0000b730       ??_C@_1M@KBMAIBFN@?$AAv?$AAi?$AA?9?$AAV?$AAN@ 0000000180068730     libucrt:lcidtoname_downlevel.obj
 0002:0000b740       ??_C@_1M@GPCBKDJK@?$AAh?$AAy?$AA?9?$AAA?$AAM@ 0000000180068740     libucrt:lcidtoname_downlevel.obj
 0002:0000b750       ??_C@_1BG@BECMDDJB@?$AAa?$AAz?$AA?9?$AAA?$AAZ?$AA?9?$AAL?$AAa?$AAt?$AAn@ 0000000180068750     libucrt:lcidtoname_downlevel.obj
 0002:0000b768       ??_C@_1M@MAOFCAEA@?$AAe?$AAu?$AA?9?$AAE?$AAS@ 0000000180068768     libucrt:lcidtoname_downlevel.obj
 0002:0000b778       ??_C@_1M@IGHABKPI@?$AAm?$AAk?$AA?9?$AAM?$AAK@ 0000000180068778     libucrt:lcidtoname_downlevel.obj
 0002:0000b788       ??_C@_1M@IAIGNEJG@?$AAt?$AAn?$AA?9?$AAZ?$AAA@ 0000000180068788     libucrt:lcidtoname_downlevel.obj
 0002:0000b798       ??_C@_1M@IIJCOJFA@?$AAx?$AAh?$AA?9?$AAZ?$AAA@ 0000000180068798     libucrt:lcidtoname_downlevel.obj
 0002:0000b7a8       ??_C@_1M@LGPJHNJH@?$AAz?$AAu?$AA?9?$AAZ?$AAA@ 00000001800687a8     libucrt:lcidtoname_downlevel.obj
 0002:0000b7b8       ??_C@_1M@HOKAOIO@?$AAa?$AAf?$AA?9?$AAZ?$AAA@ 00000001800687b8     libucrt:lcidtoname_downlevel.obj
 0002:0000b7c8       ??_C@_1M@DPCLHLIE@?$AAk?$AAa?$AA?9?$AAG?$AAE@ 00000001800687c8     libucrt:lcidtoname_downlevel.obj
 0002:0000b7d8       ??_C@_1M@BLKMHJBI@?$AAf?$AAo?$AA?9?$AAF?$AAO@ 00000001800687d8     libucrt:lcidtoname_downlevel.obj
 0002:0000b7e8       ??_C@_1M@LGGJAPPB@?$AAh?$AAi?$AA?9?$AAI?$AAN@ 00000001800687e8     libucrt:lcidtoname_downlevel.obj
 0002:0000b7f8       ??_C@_1M@FIKPIHFE@?$AAm?$AAt?$AA?9?$AAM?$AAT@ 00000001800687f8     libucrt:lcidtoname_downlevel.obj
 0002:0000b808       ??_C@_1M@HEGGPBFA@?$AAs?$AAe?$AA?9?$AAN?$AAO@ 0000000180068808     libucrt:lcidtoname_downlevel.obj
 0002:0000b818       ??_C@_1M@EIBJEEPA@?$AAm?$AAs?$AA?9?$AAM?$AAY@ 0000000180068818     libucrt:lcidtoname_downlevel.obj
 0002:0000b828       ??_C@_1M@FHLBGMPP@?$AAk?$AAk?$AA?9?$AAK?$AAZ@ 0000000180068828     libucrt:lcidtoname_downlevel.obj
 0002:0000b838       ??_C@_1M@NGJJLCGI@?$AAk?$AAy?$AA?9?$AAK?$AAG@ 0000000180068838     libucrt:lcidtoname_downlevel.obj
 0002:0000b848       ??_C@_1M@GIENNBFC@?$AAs?$AAw?$AA?9?$AAK?$AAE@ 0000000180068848     libucrt:lcidtoname_downlevel.obj
 0002:0000b858       ??_C@_1BG@NDGMJIMJ@?$AAu?$AAz?$AA?9?$AAU?$AAZ?$AA?9?$AAL?$AAa?$AAt?$AAn@ 0000000180068858     libucrt:lcidtoname_downlevel.obj
 0002:0000b870       ??_C@_1M@IDCCIHBC@?$AAt?$AAt?$AA?9?$AAR?$AAU@ 0000000180068870     libucrt:lcidtoname_downlevel.obj
 0002:0000b880       ??_C@_1M@LOICPMOJ@?$AAb?$AAn?$AA?9?$AAI?$AAN@ 0000000180068880     libucrt:lcidtoname_downlevel.obj
 0002:0000b890       ??_C@_1M@KPKKNEAH@?$AAp?$AAa?$AA?9?$AAI?$AAN@ 0000000180068890     libucrt:lcidtoname_downlevel.obj
 0002:0000b8a0       ??_C@_1M@PJGPPBOG@?$AAg?$AAu?$AA?9?$AAI?$AAN@ 00000001800688a0     libucrt:lcidtoname_downlevel.obj
 0002:0000b8b0       ??_C@_1M@KMKMOPHI@?$AAt?$AAa?$AA?9?$AAI?$AAN@ 00000001800688b0     libucrt:lcidtoname_downlevel.obj
 0002:0000b8c0       ??_C@_1M@KFEHEPAC@?$AAt?$AAe?$AA?9?$AAI?$AAN@ 00000001800688c0     libucrt:lcidtoname_downlevel.obj
 0002:0000b8d0       ??_C@_1M@CDCLMGHI@?$AAk?$AAn?$AA?9?$AAI?$AAN@ 00000001800688d0     libucrt:lcidtoname_downlevel.obj
 0002:0000b8e0       ??_C@_1M@MIODLDKF@?$AAm?$AAl?$AA?9?$AAI?$AAN@ 00000001800688e0     libucrt:lcidtoname_downlevel.obj
 0002:0000b8f0       ??_C@_1M@PBIEACPO@?$AAm?$AAr?$AA?9?$AAI?$AAN@ 00000001800688f0     libucrt:lcidtoname_downlevel.obj
 0002:0000b900       ??_C@_1M@NIDEAGPH@?$AAs?$AAa?$AA?9?$AAI?$AAN@ 0000000180068900     libucrt:lcidtoname_downlevel.obj
 0002:0000b910       ??_C@_1M@FHIHCBIO@?$AAm?$AAn?$AA?9?$AAM?$AAN@ 0000000180068910     libucrt:lcidtoname_downlevel.obj
 0002:0000b920       ??_C@_1M@JAIJPENP@?$AAc?$AAy?$AA?9?$AAG?$AAB@ 0000000180068920     libucrt:lcidtoname_downlevel.obj
 0002:0000b930       ??_C@_1M@PHGFBEPN@?$AAg?$AAl?$AA?9?$AAE?$AAS@ 0000000180068930     libucrt:lcidtoname_downlevel.obj
 0002:0000b940       ??_C@_1O@KPIPDNCP@?$AAk?$AAo?$AAk?$AA?9?$AAI?$AAN@ 0000000180068940     libucrt:lcidtoname_downlevel.obj
 0002:0000b950       ??_C@_1O@KNHJLDJA@?$AAs?$AAy?$AAr?$AA?9?$AAS?$AAY@ 0000000180068950     libucrt:lcidtoname_downlevel.obj
 0002:0000b960       ??_C@_1O@MKEKBLAH@?$AAd?$AAi?$AAv?$AA?9?$AAM?$AAV@ 0000000180068960     libucrt:lcidtoname_downlevel.obj
 0002:0000b970       ??_C@_1O@OHDCKDDF@?$AAq?$AAu?$AAz?$AA?9?$AAB?$AAO@ 0000000180068970     libucrt:lcidtoname_downlevel.obj
 0002:0000b980       ??_C@_1M@LEPJNLFD@?$AAn?$AAs?$AA?9?$AAZ?$AAA@ 0000000180068980     libucrt:lcidtoname_downlevel.obj
 0002:0000b990       ??_C@_1M@OMLEIIJB@?$AAm?$AAi?$AA?9?$AAN?$AAZ@ 0000000180068990     libucrt:lcidtoname_downlevel.obj
 0002:0000b9a0       ??_C@_1M@PMPEAILG@?$AAa?$AAr?$AA?9?$AAI?$AAQ@ 00000001800689a0     libucrt:lcidtoname_downlevel.obj
 0002:0000b9b0       ??_C@_1M@CNKPNOEE@?$AAd?$AAe?$AA?9?$AAC?$AAH@ 00000001800689b0     libucrt:lcidtoname_downlevel.obj
 0002:0000b9c0       ??_C@_1M@LKMGMLKO@?$AAe?$AAn?$AA?9?$AAG?$AAB@ 00000001800689c0     libucrt:lcidtoname_downlevel.obj
 0002:0000b9d0       ??_C@_1M@PGKJFFGL@?$AAe?$AAs?$AA?9?$AAM?$AAX@ 00000001800689d0     libucrt:lcidtoname_downlevel.obj
 0002:0000b9e0       ??_C@_1M@DNNANBDC@?$AAf?$AAr?$AA?9?$AAB?$AAE@ 00000001800689e0     libucrt:lcidtoname_downlevel.obj
 0002:0000b9f0       ??_C@_1M@HLGMDFHM@?$AAi?$AAt?$AA?9?$AAC?$AAH@ 00000001800689f0     libucrt:lcidtoname_downlevel.obj
 0002:0000ba00       ??_C@_1M@CLLBGJH@?$AAn?$AAl?$AA?9?$AAB?$AAE@ 0000000180068a00     libucrt:lcidtoname_downlevel.obj
 0002:0000ba10       ??_C@_1M@BODBOGLF@?$AAn?$AAn?$AA?9?$AAN?$AAO@ 0000000180068a10     libucrt:lcidtoname_downlevel.obj
 0002:0000ba20       ??_C@_1M@HFFAHKAD@?$AAp?$AAt?$AA?9?$AAP?$AAT@ 0000000180068a20     libucrt:lcidtoname_downlevel.obj
 0002:0000ba30       ??_C@_1BG@LNOAKHIE@?$AAs?$AAr?$AA?9?$AAS?$AAP?$AA?9?$AAL?$AAa?$AAt?$AAn@ 0000000180068a30     libucrt:lcidtoname_downlevel.obj
 0002:0000ba48       ??_C@_1M@HBMHBGAK@?$AAs?$AAv?$AA?9?$AAF?$AAI@ 0000000180068a48     libucrt:lcidtoname_downlevel.obj
 0002:0000ba58       ??_C@_1BG@DGCJGJBE@?$AAa?$AAz?$AA?9?$AAA?$AAZ?$AA?9?$AAC?$AAy?$AAr?$AAl@ 0000000180068a58     libucrt:lcidtoname_downlevel.obj
 0002:0000ba70       ??_C@_1M@KEJDAAHB@?$AAs?$AAe?$AA?9?$AAS?$AAE@ 0000000180068a70     libucrt:lcidtoname_downlevel.obj
 0002:0000ba80       ??_C@_1M@HEIBJJAD@?$AAm?$AAs?$AA?9?$AAB?$AAN@ 0000000180068a80     libucrt:lcidtoname_downlevel.obj
 0002:0000ba90       ??_C@_1BG@PBGJMCEM@?$AAu?$AAz?$AA?9?$AAU?$AAZ?$AA?9?$AAC?$AAy?$AAr?$AAl@ 0000000180068a90     libucrt:lcidtoname_downlevel.obj
 0002:0000baa8       ??_C@_1O@LAOBCMDF@?$AAq?$AAu?$AAz?$AA?9?$AAE?$AAC@ 0000000180068aa8     libucrt:lcidtoname_downlevel.obj
 0002:0000bab8       ??_C@_1M@POEEMAIO@?$AAa?$AAr?$AA?9?$AAE?$AAG@ 0000000180068ab8     libucrt:lcidtoname_downlevel.obj
 0002:0000bac8       ??_C@_1M@EFAKDEDL@?$AAz?$AAh?$AA?9?$AAH?$AAK@ 0000000180068ac8     libucrt:lcidtoname_downlevel.obj
 0002:0000bad8       ??_C@_1M@HKKIJHGI@?$AAd?$AAe?$AA?9?$AAA?$AAT@ 0000000180068ad8     libucrt:lcidtoname_downlevel.obj
 0002:0000bae8       ??_C@_1M@KBFBEHJF@?$AAe?$AAn?$AA?9?$AAA?$AAU@ 0000000180068ae8     libucrt:lcidtoname_downlevel.obj
 0002:0000baf8       ??_C@_1M@MNPLFAAH@?$AAe?$AAs?$AA?9?$AAE?$AAS@ 0000000180068af8     libucrt:lcidtoname_downlevel.obj
 0002:0000bb08       ??_C@_1M@HJOOJFMA@?$AAf?$AAr?$AA?9?$AAC?$AAA@ 0000000180068b08     libucrt:lcidtoname_downlevel.obj
 0002:0000bb18       ??_C@_1BG@JPOFPNAB@?$AAs?$AAr?$AA?9?$AAS?$AAP?$AA?9?$AAC?$AAy?$AAr?$AAl@ 0000000180068b18     libucrt:lcidtoname_downlevel.obj
 0002:0000bb30       ??_C@_1M@LNFOCMOB@?$AAs?$AAe?$AA?9?$AAF?$AAI@ 0000000180068b30     libucrt:lcidtoname_downlevel.obj
 0002:0000bb40       ??_C@_1O@MGJBOAMB@?$AAq?$AAu?$AAz?$AA?9?$AAP?$AAE@ 0000000180068b40     libucrt:lcidtoname_downlevel.obj
 0002:0000bb50       ??_C@_1M@GJINLBOK@?$AAa?$AAr?$AA?9?$AAL?$AAY@ 0000000180068b50     libucrt:lcidtoname_downlevel.obj
 0002:0000bb60       ??_C@_1M@GGMNHJNL@?$AAz?$AAh?$AA?9?$AAS?$AAG@ 0000000180068b60     libucrt:lcidtoname_downlevel.obj
 0002:0000bb70       ??_C@_1M@HOIKODND@?$AAd?$AAe?$AA?9?$AAL?$AAU@ 0000000180068b70     libucrt:lcidtoname_downlevel.obj
 0002:0000bb80       ??_C@_1M@DDOCCGFG@?$AAe?$AAn?$AA?9?$AAC?$AAA@ 0000000180068b80     libucrt:lcidtoname_downlevel.obj
 0002:0000bb90       ??_C@_1M@BNOEMJLF@?$AAe?$AAs?$AA?9?$AAG?$AAT@ 0000000180068b90     libucrt:lcidtoname_downlevel.obj
 0002:0000bba0       ??_C@_1M@EOGNKEK@?$AAf?$AAr?$AA?9?$AAC?$AAH@ 0000000180068ba0     libucrt:lcidtoname_downlevel.obj
 0002:0000bbb0       ??_C@_1M@FLIDJFHL@?$AAh?$AAr?$AA?9?$AAB?$AAA@ 0000000180068bb0     libucrt:lcidtoname_downlevel.obj
 0002:0000bbc0       ??_C@_1O@FMCELNAJ@?$AAs?$AAm?$AAj?$AA?9?$AAN?$AAO@ 0000000180068bc0     libucrt:lcidtoname_downlevel.obj
 0002:0000bbd0       ??_C@_1M@JHGLJMGJ@?$AAa?$AAr?$AA?9?$AAD?$AAZ@ 0000000180068bd0     libucrt:lcidtoname_downlevel.obj
 0002:0000bbe0       ??_C@_1M@JKKFDCNP@?$AAz?$AAh?$AA?9?$AAM?$AAO@ 0000000180068be0     libucrt:lcidtoname_downlevel.obj
 0002:0000bbf0       ??_C@_1M@GEEFALPE@?$AAd?$AAe?$AA?9?$AAL?$AAI@ 0000000180068bf0     libucrt:lcidtoname_downlevel.obj
 0002:0000bc00       ??_C@_1M@IGEOFBG@?$AAe?$AAn?$AA?9?$AAN?$AAZ@ 0000000180068c00     libucrt:lcidtoname_downlevel.obj
 0002:0000bc10       ??_C@_1M@KDBONEHP@?$AAe?$AAs?$AA?9?$AAC?$AAR@ 0000000180068c10     libucrt:lcidtoname_downlevel.obj
 0002:0000bc20       ??_C@_1M@FHMDOHNN@?$AAf?$AAr?$AA?9?$AAL?$AAU@ 0000000180068c20     libucrt:lcidtoname_downlevel.obj
 0002:0000bc30       ??_C@_1BG@NFKKMAFG@?$AAb?$AAs?$AA?9?$AAB?$AAA?$AA?9?$AAL?$AAa?$AAt?$AAn@ 0000000180068c30     libucrt:lcidtoname_downlevel.obj
 0002:0000bc48       ??_C@_1O@IMNBEMCI@?$AAs?$AAm?$AAj?$AA?9?$AAS?$AAE@ 0000000180068c48     libucrt:lcidtoname_downlevel.obj
 0002:0000bc58       ??_C@_1M@DHHMBNDP@?$AAa?$AAr?$AA?9?$AAM?$AAA@ 0000000180068c58     libucrt:lcidtoname_downlevel.obj
 0002:0000bc68       ??_C@_1M@BNBLJCGH@?$AAe?$AAn?$AA?9?$AAI?$AAE@ 0000000180068c68     libucrt:lcidtoname_downlevel.obj
 0002:0000bc78       ??_C@_1M@GEPAFMDL@?$AAe?$AAs?$AA?9?$AAP?$AAA@ 0000000180068c78     libucrt:lcidtoname_downlevel.obj
 0002:0000bc88       ??_C@_1M@OJONDMDL@?$AAf?$AAr?$AA?9?$AAM?$AAC@ 0000000180068c88     libucrt:lcidtoname_downlevel.obj
 0002:0000bc98       ??_C@_1BG@OBCNFJB@?$AAs?$AAr?$AA?9?$AAB?$AAA?$AA?9?$AAL?$AAa?$AAt?$AAn@ 0000000180068c98     libucrt:lcidtoname_downlevel.obj
 0002:0000bcb0       ??_C@_1O@KEMEEGPO@?$AAs?$AAm?$AAa?$AA?9?$AAN?$AAO@ 0000000180068cb0     libucrt:lcidtoname_downlevel.obj
 0002:0000bcc0       ??_C@_1M@ELMGFODK@?$AAa?$AAr?$AA?9?$AAT?$AAN@ 0000000180068cc0     libucrt:lcidtoname_downlevel.obj
 0002:0000bcd0       ??_C@_1M@BHDLHFAF@?$AAe?$AAn?$AA?9?$AAZ?$AAA@ 0000000180068cd0     libucrt:lcidtoname_downlevel.obj
 0002:0000bce0       ??_C@_1M@BMGIGLIF@?$AAe?$AAs?$AA?9?$AAD?$AAO@ 0000000180068ce0     libucrt:lcidtoname_downlevel.obj
 0002:0000bcf0       ??_C@_1BG@CMBHIPBE@?$AAs?$AAr?$AA?9?$AAB?$AAA?$AA?9?$AAC?$AAy?$AAr?$AAl@ 0000000180068cf0     libucrt:lcidtoname_downlevel.obj
 0002:0000bd08       ??_C@_1O@HEDBLHNP@?$AAs?$AAm?$AAa?$AA?9?$AAS?$AAE@ 0000000180068d08     libucrt:lcidtoname_downlevel.obj
 0002:0000bd18       ??_C@_1M@DAGCADIM@?$AAa?$AAr?$AA?9?$AAO?$AAM@ 0000000180068d18     libucrt:lcidtoname_downlevel.obj
 0002:0000bd28       ??_C@_1M@FODLMICG@?$AAe?$AAn?$AA?9?$AAJ?$AAM@ 0000000180068d28     libucrt:lcidtoname_downlevel.obj
 0002:0000bd38       ??_C@_1M@DNMLCIHB@?$AAe?$AAs?$AA?9?$AAV?$AAE@ 0000000180068d38     libucrt:lcidtoname_downlevel.obj
 0002:0000bd48       ??_C@_1O@EOKHMKJK@?$AAs?$AAm?$AAs?$AA?9?$AAF?$AAI@ 0000000180068d48     libucrt:lcidtoname_downlevel.obj
 0002:0000bd58       ??_C@_1M@CAFJMKOF@?$AAa?$AAr?$AA?9?$AAY?$AAE@ 0000000180068d58     libucrt:lcidtoname_downlevel.obj
 0002:0000bd68       ??_C@_1M@CBFHIJLI@?$AAe?$AAn?$AA?9?$AAC?$AAB@ 0000000180068d68     libucrt:lcidtoname_downlevel.obj
 0002:0000bd78       ??_C@_1M@BGNFLDN@?$AAe?$AAs?$AA?9?$AAC?$AAO@ 0000000180068d78     libucrt:lcidtoname_downlevel.obj
 0002:0000bd88       ??_C@_1O@JMPHMAMC@?$AAs?$AAm?$AAn?$AA?9?$AAF?$AAI@ 0000000180068d88     libucrt:lcidtoname_downlevel.obj
 0002:0000bd98       ??_C@_1M@JLANABKE@?$AAa?$AAr?$AA?9?$AAS?$AAY@ 0000000180068d98     libucrt:lcidtoname_downlevel.obj
 0002:0000bda8       ??_C@_1M@HPKGCFGN@?$AAe?$AAn?$AA?9?$AAB?$AAZ@ 0000000180068da8     libucrt:lcidtoname_downlevel.obj
 0002:0000bdb8       ??_C@_1M@OLJCMLGM@?$AAe?$AAs?$AA?9?$AAP?$AAE@ 0000000180068db8     libucrt:lcidtoname_downlevel.obj
 0002:0000bdc8       ??_C@_1M@MKKGFKLE@?$AAa?$AAr?$AA?9?$AAJ?$AAO@ 0000000180068dc8     libucrt:lcidtoname_downlevel.obj
 0002:0000bdd8       ??_C@_1M@EKPGLDNI@?$AAe?$AAn?$AA?9?$AAT?$AAT@ 0000000180068dd8     libucrt:lcidtoname_downlevel.obj
 0002:0000bde8       ??_C@_1M@OONGHFHE@?$AAe?$AAs?$AA?9?$AAA?$AAR@ 0000000180068de8     libucrt:lcidtoname_downlevel.obj
 0002:0000bdf8       ??_C@_1M@OOJFGBHE@?$AAa?$AAr?$AA?9?$AAL?$AAB@ 0000000180068df8     libucrt:lcidtoname_downlevel.obj
 0002:0000be08       ??_C@_1M@GCEJHNEG@?$AAe?$AAn?$AA?9?$AAZ?$AAW@ 0000000180068e08     libucrt:lcidtoname_downlevel.obj
 0002:0000be18       ??_C@_1M@JNOCAHJI@?$AAe?$AAs?$AA?9?$AAE?$AAC@ 0000000180068e18     libucrt:lcidtoname_downlevel.obj
 0002:0000be28       ??_C@_1M@JEFHPGGB@?$AAa?$AAr?$AA?9?$AAK?$AAW@ 0000000180068e28     libucrt:lcidtoname_downlevel.obj
 0002:0000be38       ??_C@_1M@MLKIBJOJ@?$AAe?$AAn?$AA?9?$AAP?$AAH@ 0000000180068e38     libucrt:lcidtoname_downlevel.obj
 0002:0000be48       ??_C@_1M@BDNIPEND@?$AAe?$AAs?$AA?9?$AAC?$AAL@ 0000000180068e48     libucrt:lcidtoname_downlevel.obj
 0002:0000be58       ??_C@_1M@MPNMEKBD@?$AAa?$AAr?$AA?9?$AAA?$AAE@ 0000000180068e58     libucrt:lcidtoname_downlevel.obj
 0002:0000be68       ??_C@_1M@KBJALCPI@?$AAe?$AAs?$AA?9?$AAU?$AAY@ 0000000180068e68     libucrt:lcidtoname_downlevel.obj
 0002:0000be78       ??_C@_1M@LLCCOAGA@?$AAa?$AAr?$AA?9?$AAB?$AAH@ 0000000180068e78     libucrt:lcidtoname_downlevel.obj
 0002:0000be88       ??_C@_1M@PBFNCDEL@?$AAe?$AAs?$AA?9?$AAP?$AAY@ 0000000180068e88     libucrt:lcidtoname_downlevel.obj
 0002:0000be98       ??_C@_1M@EDGINPNP@?$AAa?$AAr?$AA?9?$AAQ?$AAA@ 0000000180068e98     libucrt:lcidtoname_downlevel.obj
 0002:0000bea8       ??_C@_1M@MKDBIIJI@?$AAe?$AAs?$AA?9?$AAB?$AAO@ 0000000180068ea8     libucrt:lcidtoname_downlevel.obj
 0002:0000beb8       ??_C@_1M@CPKKEBLD@?$AAe?$AAs?$AA?9?$AAS?$AAV@ 0000000180068eb8     libucrt:lcidtoname_downlevel.obj
 0002:0000bec8       ??_C@_1M@NDBGMMJL@?$AAe?$AAs?$AA?9?$AAH?$AAN@ 0000000180068ec8     libucrt:lcidtoname_downlevel.obj
 0002:0000bed8       ??_C@_1M@JIJIBHDP@?$AAe?$AAs?$AA?9?$AAN?$AAI@ 0000000180068ed8     libucrt:lcidtoname_downlevel.obj
 0002:0000bee8       ??_C@_1M@CGFMKEEK@?$AAe?$AAs?$AA?9?$AAP?$AAR@ 0000000180068ee8     libucrt:lcidtoname_downlevel.obj
 0002:0000bef8       ??_C@_1O@ICJHKIIK@?$AAz?$AAh?$AA?9?$AAC?$AAH?$AAT@ 0000000180068ef8     libucrt:lcidtoname_downlevel.obj
 0002:0000bf08       ??_C@_15CLNEJCE@?$AAs?$AAr@ 0000000180068f08     libucrt:lcidtoname_downlevel.obj
 0002:0000cd50       ??_C@_1M@KAHEKEIG@?$AAa?$AAf?$AA?9?$AAz?$AAa@ 0000000180069d50     libucrt:lcidtoname_downlevel.obj
 0002:0000cd60       ??_C@_1M@GIECOABL@?$AAa?$AAr?$AA?9?$AAa?$AAe@ 0000000180069d60     libucrt:lcidtoname_downlevel.obj
 0002:0000cd70       ??_C@_1M@BMLMEKGI@?$AAa?$AAr?$AA?9?$AAb?$AAh@ 0000000180069d70     libucrt:lcidtoname_downlevel.obj
 0002:0000cd80       ??_C@_1M@DAPFDGGB@?$AAa?$AAr?$AA?9?$AAd?$AAz@ 0000000180069d80     libucrt:lcidtoname_downlevel.obj
 0002:0000cd90       ??_C@_1M@FJNKGKIG@?$AAa?$AAr?$AA?9?$AAe?$AAg@ 0000000180069d90     libucrt:lcidtoname_downlevel.obj
 0002:0000cda0       ??_C@_1M@FLGKKCLO@?$AAa?$AAr?$AA?9?$AAi?$AAq@ 0000000180069da0     libucrt:lcidtoname_downlevel.obj
 0002:0000cdb0       ??_C@_1M@GNDIPALM@?$AAa?$AAr?$AA?9?$AAj?$AAo@ 0000000180069db0     libucrt:lcidtoname_downlevel.obj
 0002:0000cdc0       ??_C@_1M@DDMJFMGJ@?$AAa?$AAr?$AA?9?$AAk?$AAw@ 0000000180069dc0     libucrt:lcidtoname_downlevel.obj
 0002:0000cdd0       ??_C@_1M@EJALMLHM@?$AAa?$AAr?$AA?9?$AAl?$AAb@ 0000000180069dd0     libucrt:lcidtoname_downlevel.obj
 0002:0000cde0       ??_C@_1M@MOBDBLOC@?$AAa?$AAr?$AA?9?$AAl?$AAy@ 0000000180069de0     libucrt:lcidtoname_downlevel.obj
 0002:0000cdf0       ??_C@_1M@JAOCLHDH@?$AAa?$AAr?$AA?9?$AAm?$AAa@ 0000000180069df0     libucrt:lcidtoname_downlevel.obj
 0002:0000ce00       ??_C@_1M@JHPMKJIE@?$AAa?$AAr?$AA?9?$AAo?$AAm@ 0000000180069e00     libucrt:lcidtoname_downlevel.obj
 0002:0000ce10       ??_C@_1M@OEPGHFNH@?$AAa?$AAr?$AA?9?$AAq?$AAa@ 0000000180069e10     libucrt:lcidtoname_downlevel.obj
 0002:0000ce20       ??_C@_1M@KJDONENM@?$AAa?$AAr?$AA?9?$AAs?$AAa@ 0000000180069e20     libucrt:lcidtoname_downlevel.obj
 0002:0000ce30       ??_C@_1M@DMJDKLKM@?$AAa?$AAr?$AA?9?$AAs?$AAy@ 0000000180069e30     libucrt:lcidtoname_downlevel.obj
 0002:0000ce40       ??_C@_1M@OMFIPEDC@?$AAa?$AAr?$AA?9?$AAt?$AAn@ 0000000180069e40     libucrt:lcidtoname_downlevel.obj
 0002:0000ce50       ??_C@_1M@IHMHGAON@?$AAa?$AAr?$AA?9?$AAy?$AAe@ 0000000180069e50     libucrt:lcidtoname_downlevel.obj
 0002:0000ce60       ??_C@_1BG@KDCPGJGB@?$AAa?$AAz?$AA?9?$AAa?$AAz?$AA?9?$AAc?$AAy?$AAr?$AAl@ 0000000180069e60     libucrt:lcidtoname_downlevel.obj
 0002:0000ce78       ??_C@_1BG@IBCKDDOE@?$AAa?$AAz?$AA?9?$AAa?$AAz?$AA?9?$AAl?$AAa?$AAt?$AAn@ 0000000180069e78     libucrt:lcidtoname_downlevel.obj
 0002:0000ce90       ??_C@_1M@EGPFDCPD@?$AAb?$AAe?$AA?9?$AAb?$AAy@ 0000000180069e90     libucrt:lcidtoname_downlevel.obj
 0002:0000cea0       ??_C@_1M@PCMGMCGC@?$AAb?$AAg?$AA?9?$AAb?$AAg@ 0000000180069ea0     libucrt:lcidtoname_downlevel.obj
 0002:0000ceb0       ??_C@_1M@BJBMFGOB@?$AAb?$AAn?$AA?9?$AAi?$AAn@ 0000000180069eb0     libucrt:lcidtoname_downlevel.obj
 0002:0000cec0       ??_C@_1BG@EAKMMACD@?$AAb?$AAs?$AA?9?$AAb?$AAa?$AA?9?$AAl?$AAa?$AAt?$AAn@ 0000000180069ec0     libucrt:lcidtoname_downlevel.obj
 0002:0000ced8       ??_C@_1M@KGADAODK@?$AAc?$AAa?$AA?9?$AAe?$AAs@ 0000000180069ed8     libucrt:lcidtoname_downlevel.obj
 0002:0000cee8       ??_C@_1M@COAJPDHI@?$AAc?$AAs?$AA?9?$AAc?$AAz@ 0000000180069ee8     libucrt:lcidtoname_downlevel.obj
 0002:0000cef8       ??_C@_1M@DHBHFONH@?$AAc?$AAy?$AA?9?$AAg?$AAb@ 0000000180069ef8     libucrt:lcidtoname_downlevel.obj
 0002:0000cf08       ??_C@_1M@IMGKELGA@?$AAd?$AAa?$AA?9?$AAd?$AAk@ 0000000180069f08     libucrt:lcidtoname_downlevel.obj
 0002:0000cf18       ??_C@_1M@NNDGDNGA@?$AAd?$AAe?$AA?9?$AAa?$AAt@ 0000000180069f18     libucrt:lcidtoname_downlevel.obj
 0002:0000cf28       ??_C@_1M@IKDBHEEM@?$AAd?$AAe?$AA?9?$AAc?$AAh@ 0000000180069f28     libucrt:lcidtoname_downlevel.obj
 0002:0000cf38       ??_C@_1M@GFFOJMCJ@?$AAd?$AAe?$AA?9?$AAd?$AAe@ 0000000180069f38     libucrt:lcidtoname_downlevel.obj
 0002:0000cf48       ??_C@_1M@MDNLKBPM@?$AAd?$AAe?$AA?9?$AAl?$AAi@ 0000000180069f48     libucrt:lcidtoname_downlevel.obj
 0002:0000cf58       ??_C@_1M@NJBEEJNL@?$AAd?$AAe?$AA?9?$AAl?$AAu@ 0000000180069f58     libucrt:lcidtoname_downlevel.obj
 0002:0000cf68       ??_C@_1O@GNNELBAP@?$AAd?$AAi?$AAv?$AA?9?$AAm?$AAv@ 0000000180069f68     libucrt:lcidtoname_downlevel.obj
 0002:0000cf78       ??_C@_1M@EJLEOGAE@?$AAe?$AAl?$AA?9?$AAg?$AAr@ 0000000180069f78     libucrt:lcidtoname_downlevel.obj
 0002:0000cf88       ??_C@_1M@GMPONJN@?$AAe?$AAn?$AA?9?$AAa?$AAu@ 0000000180069f88     libucrt:lcidtoname_downlevel.obj
 0002:0000cf98       ??_C@_1M@NIDIIPGF@?$AAe?$AAn?$AA?9?$AAb?$AAz@ 0000000180069f98     libucrt:lcidtoname_downlevel.obj
 0002:0000cfa8       ??_C@_1M@JEHMIMFO@?$AAe?$AAn?$AA?9?$AAc?$AAa@ 0000000180069fa8     libucrt:lcidtoname_downlevel.obj
 0002:0000cfb8       ??_C@_1M@IGMJCDLA@?$AAe?$AAn?$AA?9?$AAc?$AAb@ 0000000180069fb8     libucrt:lcidtoname_downlevel.obj
 0002:0000cfc8       ??_C@_1M@BNFIGBKG@?$AAe?$AAn?$AA?9?$AAg?$AAb@ 0000000180069fc8     libucrt:lcidtoname_downlevel.obj
 0002:0000cfd8       ??_C@_1M@LKIFDIGP@?$AAe?$AAn?$AA?9?$AAi?$AAe@ 0000000180069fd8     libucrt:lcidtoname_downlevel.obj
 0002:0000cfe8       ??_C@_1M@PJKFGCCO@?$AAe?$AAn?$AA?9?$AAj?$AAm@ 0000000180069fe8     libucrt:lcidtoname_downlevel.obj
 0002:0000cff8       ??_C@_1M@KPPKEPBO@?$AAe?$AAn?$AA?9?$AAn?$AAz@ 0000000180069ff8     libucrt:lcidtoname_downlevel.obj
 0002:0000d008       ??_C@_1M@GMDGLDOB@?$AAe?$AAn?$AA?9?$AAp?$AAh@ 000000018006a008     libucrt:lcidtoname_downlevel.obj
 0002:0000d018       ??_C@_1M@ONGIBJNA@?$AAe?$AAn?$AA?9?$AAt?$AAt@ 000000018006a018     libucrt:lcidtoname_downlevel.obj
 0002:0000d028       ??_C@_1M@LLODPCMM@?$AAe?$AAn?$AA?9?$AAu?$AAs@ 000000018006a028     libucrt:lcidtoname_downlevel.obj
 0002:0000d038       ??_C@_1M@LAKFNPAN@?$AAe?$AAn?$AA?9?$AAz?$AAa@ 000000018006a038     libucrt:lcidtoname_downlevel.obj
 0002:0000d048       ??_C@_1M@MFNHNHEO@?$AAe?$AAn?$AA?9?$AAz?$AAw@ 000000018006a048     libucrt:lcidtoname_downlevel.obj
 0002:0000d058       ??_C@_1M@EJEINPHM@?$AAe?$AAs?$AA?9?$AAa?$AAr@ 000000018006a058     libucrt:lcidtoname_downlevel.obj
 0002:0000d068       ??_C@_1M@GNKPCCJA@?$AAe?$AAs?$AA?9?$AAb?$AAo@ 000000018006a068     libucrt:lcidtoname_downlevel.obj
 0002:0000d078       ??_C@_1M@LEEGFONL@?$AAe?$AAs?$AA?9?$AAc?$AAl@ 000000018006a078     libucrt:lcidtoname_downlevel.obj
 0002:0000d088       ??_C@_1M@KGPDPBDF@?$AAe?$AAs?$AA?9?$AAc?$AAo@ 000000018006a088     libucrt:lcidtoname_downlevel.obj
 0002:0000d098       ??_C@_1M@EIAHOHH@?$AAe?$AAs?$AA?9?$AAc?$AAr@ 000000018006a098     libucrt:lcidtoname_downlevel.obj
 0002:0000d0a8       ??_C@_1M@LLPGMBIN@?$AAe?$AAs?$AA?9?$AAd?$AAo@ 000000018006a0a8     libucrt:lcidtoname_downlevel.obj
 0002:0000d0b8       ??_C@_1M@DKHMKNJA@?$AAe?$AAs?$AA?9?$AAe?$AAc@ 000000018006a0b8     libucrt:lcidtoname_downlevel.obj
 0002:0000d0c8       ??_C@_1M@GKGFPKAP@?$AAe?$AAs?$AA?9?$AAe?$AAs@ 000000018006a0c8     libucrt:lcidtoname_downlevel.obj
 0002:0000d0d8       ??_C@_1M@LKHKGDLN@?$AAe?$AAs?$AA?9?$AAg?$AAt@ 000000018006a0d8     libucrt:lcidtoname_downlevel.obj
 0002:0000d0e8       ??_C@_1M@HEIIGGJD@?$AAe?$AAs?$AA?9?$AAh?$AAn@ 000000018006a0e8     libucrt:lcidtoname_downlevel.obj
 0002:0000d0f8       ??_C@_1M@FBDHPPGD@?$AAe?$AAs?$AA?9?$AAm?$AAx@ 000000018006a0f8     libucrt:lcidtoname_downlevel.obj
 0002:0000d108       ??_C@_1M@DPAGLNDH@?$AAe?$AAs?$AA?9?$AAn?$AAi@ 000000018006a108     libucrt:lcidtoname_downlevel.obj
 0002:0000d118       ??_C@_1M@MDGOPGDD@?$AAe?$AAs?$AA?9?$AAp?$AAa@ 000000018006a118     libucrt:lcidtoname_downlevel.obj
 0002:0000d128       ??_C@_1M@EMAMGBGE@?$AAe?$AAs?$AA?9?$AAp?$AAe@ 000000018006a128     libucrt:lcidtoname_downlevel.obj
 0002:0000d138       ??_C@_1M@IBMCAOEC@?$AAe?$AAs?$AA?9?$AAp?$AAr@ 000000018006a138     libucrt:lcidtoname_downlevel.obj
 0002:0000d148       ??_C@_1M@FGMDIJED@?$AAe?$AAs?$AA?9?$AAp?$AAy@ 000000018006a148     libucrt:lcidtoname_downlevel.obj
 0002:0000d158       ??_C@_1M@IIDEOLLL@?$AAe?$AAs?$AA?9?$AAs?$AAv@ 000000018006a158     libucrt:lcidtoname_downlevel.obj
 0002:0000d168       ??_C@_1M@GAOBIPA@?$AAe?$AAs?$AA?9?$AAu?$AAy@ 000000018006a168     libucrt:lcidtoname_downlevel.obj
 0002:0000d178       ??_C@_1M@JKFFICHJ@?$AAe?$AAs?$AA?9?$AAv?$AAe@ 000000018006a178     libucrt:lcidtoname_downlevel.obj
 0002:0000d188       ??_C@_1M@PNMLOJDF@?$AAe?$AAt?$AA?9?$AAe?$AAe@ 000000018006a188     libucrt:lcidtoname_downlevel.obj
 0002:0000d198       ??_C@_1M@GHHLIKEI@?$AAe?$AAu?$AA?9?$AAe?$AAs@ 000000018006a198     libucrt:lcidtoname_downlevel.obj
 0002:0000d1a8       ??_C@_1M@PBNONODE@?$AAf?$AAa?$AA?9?$AAi?$AAr@ 000000018006a1a8     libucrt:lcidtoname_downlevel.obj
 0002:0000d1b8       ??_C@_1M@JEEHPMIL@?$AAf?$AAi?$AA?9?$AAf?$AAi@ 000000018006a1b8     libucrt:lcidtoname_downlevel.obj
 0002:0000d1c8       ??_C@_1M@LMDCNDBA@?$AAf?$AAo?$AA?9?$AAf?$AAo@ 000000018006a1c8     libucrt:lcidtoname_downlevel.obj
 0002:0000d1d8       ??_C@_1M@JKEOHLDK@?$AAf?$AAr?$AA?9?$AAb?$AAe@ 000000018006a1d8     libucrt:lcidtoname_downlevel.obj
 0002:0000d1e8       ??_C@_1M@NOHADPMI@?$AAf?$AAr?$AA?9?$AAc?$AAa@ 000000018006a1e8     libucrt:lcidtoname_downlevel.obj
 0002:0000d1f8       ??_C@_1M@KDHIHAEC@?$AAf?$AAr?$AA?9?$AAc?$AAh@ 000000018006a1f8     libucrt:lcidtoname_downlevel.obj
 0002:0000d208       ??_C@_1M@MMBBFGAK@?$AAf?$AAr?$AA?9?$AAf?$AAr@ 000000018006a208     libucrt:lcidtoname_downlevel.obj
 0002:0000d218       ??_C@_1M@PAFNENNF@?$AAf?$AAr?$AA?9?$AAl?$AAu@ 000000018006a218     libucrt:lcidtoname_downlevel.obj
 0002:0000d228       ??_C@_1M@EOHDJGDD@?$AAf?$AAr?$AA?9?$AAm?$AAc@ 000000018006a228     libucrt:lcidtoname_downlevel.obj
 0002:0000d238       ??_C@_1M@FAPLLOPF@?$AAg?$AAl?$AA?9?$AAe?$AAs@ 000000018006a238     libucrt:lcidtoname_downlevel.obj
 0002:0000d248       ??_C@_1M@FOPBFLOO@?$AAg?$AAu?$AA?9?$AAi?$AAn@ 000000018006a248     libucrt:lcidtoname_downlevel.obj
 0002:0000d258       ??_C@_1M@KBMCINPM@?$AAh?$AAe?$AA?9?$AAi?$AAl@ 000000018006a258     libucrt:lcidtoname_downlevel.obj
 0002:0000d268       ??_C@_1M@BBPHKFPJ@?$AAh?$AAi?$AA?9?$AAi?$AAn@ 000000018006a268     libucrt:lcidtoname_downlevel.obj
 0002:0000d278       ??_C@_1M@PMBNDPHD@?$AAh?$AAr?$AA?9?$AAb?$AAa@ 000000018006a278     libucrt:lcidtoname_downlevel.obj
 0002:0000d288       ??_C@_1M@BPCKOEGE@?$AAh?$AAr?$AA?9?$AAh?$AAr@ 000000018006a288     libucrt:lcidtoname_downlevel.obj
 0002:0000d298       ??_C@_1M@GACBMHKE@?$AAh?$AAu?$AA?9?$AAh?$AAu@ 000000018006a298     libucrt:lcidtoname_downlevel.obj
 0002:0000d2a8       ??_C@_1M@MILPAJJC@?$AAh?$AAy?$AA?9?$AAa?$AAm@ 000000018006a2a8     libucrt:lcidtoname_downlevel.obj
 0002:0000d2b8       ??_C@_1M@BABBICEC@?$AAi?$AAd?$AA?9?$AAi?$AAd@ 000000018006a2b8     libucrt:lcidtoname_downlevel.obj
 0002:0000d2c8       ??_C@_1M@BIKNHHPF@?$AAi?$AAs?$AA?9?$AAi?$AAs@ 000000018006a2c8     libucrt:lcidtoname_downlevel.obj
 0002:0000d2d8       ??_C@_1M@NMPCJPHE@?$AAi?$AAt?$AA?9?$AAc?$AAh@ 000000018006a2d8     libucrt:lcidtoname_downlevel.obj
 0002:0000d2e8       ??_C@_1M@GHKGFEDF@?$AAi?$AAt?$AA?9?$AAi?$AAt@ 000000018006a2e8     libucrt:lcidtoname_downlevel.obj
 0002:0000d2f8       ??_C@_1M@NIEJCJJA@?$AAj?$AAa?$AA?9?$AAj?$AAp@ 000000018006a2f8     libucrt:lcidtoname_downlevel.obj
 0002:0000d308       ??_C@_1M@JILFNBIM@?$AAk?$AAa?$AA?9?$AAg?$AAe@ 000000018006a308     libucrt:lcidtoname_downlevel.obj
 0002:0000d318       ??_C@_1M@PACPMGPH@?$AAk?$AAk?$AA?9?$AAk?$AAz@ 000000018006a318     libucrt:lcidtoname_downlevel.obj
 0002:0000d328       ??_C@_1M@IELFGMHA@?$AAk?$AAn?$AA?9?$AAi?$AAn@ 000000018006a328     libucrt:lcidtoname_downlevel.obj
 0002:0000d338       ??_C@_1O@IBBJHCH@?$AAk?$AAo?$AAk?$AA?9?$AAi?$AAn@ 000000018006a338     libucrt:lcidtoname_downlevel.obj
 0002:0000d348       ??_C@_1M@DMHAEOGC@?$AAk?$AAo?$AA?9?$AAk?$AAr@ 000000018006a348     libucrt:lcidtoname_downlevel.obj
 0002:0000d358       ??_C@_1M@HBAHBIGA@?$AAk?$AAy?$AA?9?$AAk?$AAg@ 000000018006a358     libucrt:lcidtoname_downlevel.obj
 0002:0000d368       ??_C@_1M@KPMILCJG@?$AAl?$AAt?$AA?9?$AAl?$AAt@ 000000018006a368     libucrt:lcidtoname_downlevel.obj
 0002:0000d378       ??_C@_1M@BDEKKCA@?$AAl?$AAv?$AA?9?$AAl?$AAv@ 000000018006a378     libucrt:lcidtoname_downlevel.obj
 0002:0000d388       ??_C@_1M@ELCKCCJJ@?$AAm?$AAi?$AA?9?$AAn?$AAz@ 000000018006a388     libucrt:lcidtoname_downlevel.obj
 0002:0000d398       ??_C@_1M@CBOOLAPA@?$AAm?$AAk?$AA?9?$AAm?$AAk@ 000000018006a398     libucrt:lcidtoname_downlevel.obj
 0002:0000d3a8       ??_C@_1M@GPHNBJKN@?$AAm?$AAl?$AA?9?$AAi?$AAn@ 000000018006a3a8     libucrt:lcidtoname_downlevel.obj
 0002:0000d3b8       ??_C@_1M@PABJILIG@?$AAm?$AAn?$AA?9?$AAm?$AAn@ 000000018006a3b8     libucrt:lcidtoname_downlevel.obj
 0002:0000d3c8       ??_C@_1M@FGBKKIPG@?$AAm?$AAr?$AA?9?$AAi?$AAn@ 000000018006a3c8     libucrt:lcidtoname_downlevel.obj
 0002:0000d3d8       ??_C@_1M@NDBPDDAL@?$AAm?$AAs?$AA?9?$AAb?$AAn@ 000000018006a3d8     libucrt:lcidtoname_downlevel.obj
 0002:0000d3e8       ??_C@_1M@OPIHOOPI@?$AAm?$AAs?$AA?9?$AAm?$AAy@ 000000018006a3e8     libucrt:lcidtoname_downlevel.obj
 0002:0000d3f8       ??_C@_1M@PPDBCNFM@?$AAm?$AAt?$AA?9?$AAm?$AAt@ 000000018006a3f8     libucrt:lcidtoname_downlevel.obj
 0002:0000d408       ??_C@_1M@KDJDKMDD@?$AAn?$AAb?$AA?9?$AAn?$AAo@ 000000018006a408     libucrt:lcidtoname_downlevel.obj
 0002:0000d418       ??_C@_1M@KFCFLMJP@?$AAn?$AAl?$AA?9?$AAb?$AAe@ 000000018006a418     libucrt:lcidtoname_downlevel.obj
 0002:0000d428       ??_C@_1M@KPOPDDGO@?$AAn?$AAl?$AA?9?$AAn?$AAl@ 000000018006a428     libucrt:lcidtoname_downlevel.obj
 0002:0000d438       ??_C@_1M@LJKPEMLN@?$AAn?$AAn?$AA?9?$AAn?$AAo@ 000000018006a438     libucrt:lcidtoname_downlevel.obj
 0002:0000d448       ??_C@_1M@BDGHHBFL@?$AAn?$AAs?$AA?9?$AAz?$AAa@ 000000018006a448     libucrt:lcidtoname_downlevel.obj
 0002:0000d458       ??_C@_1M@IDEHOAP@?$AAp?$AAa?$AA?9?$AAi?$AAn@ 000000018006a458     libucrt:lcidtoname_downlevel.obj
 0002:0000d468       ??_C@_1M@HDBKGOGH@?$AAp?$AAl?$AA?9?$AAp?$AAl@ 000000018006a468     libucrt:lcidtoname_downlevel.obj
 0002:0000d478       ??_C@_1M@LJLLCMEH@?$AAp?$AAt?$AA?9?$AAb?$AAr@ 000000018006a478     libucrt:lcidtoname_downlevel.obj
 0002:0000d488       ??_C@_1M@NCMONAAL@?$AAp?$AAt?$AA?9?$AAp?$AAt@ 000000018006a488     libucrt:lcidtoname_downlevel.obj
 0002:0000d498       ??_C@_1O@EAKMAJDN@?$AAq?$AAu?$AAz?$AA?9?$AAb?$AAo@ 000000018006a498     libucrt:lcidtoname_downlevel.obj
 0002:0000d4a8       ??_C@_1O@BHHPIGDN@?$AAq?$AAu?$AAz?$AA?9?$AAe?$AAc@ 000000018006a4a8     libucrt:lcidtoname_downlevel.obj
 0002:0000d4b8       ??_C@_1O@GBAPEKMJ@?$AAq?$AAu?$AAz?$AA?9?$AAp?$AAe@ 000000018006a4b8     libucrt:lcidtoname_downlevel.obj
 0002:0000d4c8       ??_C@_1M@CLGLEFBO@?$AAr?$AAo?$AA?9?$AAr?$AAo@ 000000018006a4c8     libucrt:lcidtoname_downlevel.obj
 0002:0000d4d8       ??_C@_1M@CEEDODME@?$AAr?$AAu?$AA?9?$AAr?$AAu@ 000000018006a4d8     libucrt:lcidtoname_downlevel.obj
 0002:0000d4e8       ??_C@_1M@HPKKKMPP@?$AAs?$AAa?$AA?9?$AAi?$AAn@ 000000018006a4e8     libucrt:lcidtoname_downlevel.obj
 0002:0000d4f8       ??_C@_1M@BKMAIGOJ@?$AAs?$AAe?$AA?9?$AAf?$AAi@ 000000018006a4f8     libucrt:lcidtoname_downlevel.obj
 0002:0000d508       ??_C@_1M@NDPIFLFI@?$AAs?$AAe?$AA?9?$AAn?$AAo@ 000000018006a508     libucrt:lcidtoname_downlevel.obj
 0002:0000d518       ??_C@_1M@DANKKHJ@?$AAs?$AAe?$AA?9?$AAs?$AAe@ 000000018006a518     libucrt:lcidtoname_downlevel.obj
 0002:0000d528       ??_C@_1M@PNBLONPJ@?$AAs?$AAk?$AA?9?$AAs?$AAk@ 000000018006a528     libucrt:lcidtoname_downlevel.obj
 0002:0000d538       ??_C@_1M@LFMODOAL@?$AAs?$AAl?$AA?9?$AAs?$AAi@ 000000018006a538     libucrt:lcidtoname_downlevel.obj
 0002:0000d548       ??_C@_1O@DFKOMPG@?$AAs?$AAm?$AAa?$AA?9?$AAn?$AAo@ 000000018006a548     libucrt:lcidtoname_downlevel.obj
 0002:0000d558       ??_C@_1O@NDKPBNNH@?$AAs?$AAm?$AAa?$AA?9?$AAs?$AAe@ 000000018006a558     libucrt:lcidtoname_downlevel.obj
 0002:0000d568       ??_C@_1O@PLLKBHAB@?$AAs?$AAm?$AAj?$AA?9?$AAn?$AAo@ 000000018006a568     libucrt:lcidtoname_downlevel.obj
 0002:0000d578       ??_C@_1O@CLEPOGCA@?$AAs?$AAm?$AAj?$AA?9?$AAs?$AAe@ 000000018006a578     libucrt:lcidtoname_downlevel.obj
 0002:0000d588       ??_C@_1O@DLGJGKMK@?$AAs?$AAm?$AAn?$AA?9?$AAf?$AAi@ 000000018006a588     libucrt:lcidtoname_downlevel.obj
 0002:0000d598       ??_C@_1O@OJDJGAJC@?$AAs?$AAm?$AAs?$AA?9?$AAf?$AAi@ 000000018006a598     libucrt:lcidtoname_downlevel.obj
 0002:0000d5a8       ??_C@_1M@BOFOGHPB@?$AAs?$AAq?$AA?9?$AAa?$AAl@ 000000018006a5a8     libucrt:lcidtoname_downlevel.obj
 0002:0000d5b8       ??_C@_1BG@LJBBIPGB@?$AAs?$AAr?$AA?9?$AAb?$AAa?$AA?9?$AAc?$AAy?$AAr?$AAl@ 000000018006a5b8     libucrt:lcidtoname_downlevel.obj
 0002:0000d5d0       ??_C@_1BG@JLBENFOE@?$AAs?$AAr?$AA?9?$AAb?$AAa?$AA?9?$AAl?$AAa?$AAt?$AAn@ 000000018006a5d0     libucrt:lcidtoname_downlevel.obj
 0002:0000d5e8       ??_C@_1BG@KODPNHE@?$AAs?$AAr?$AA?9?$AAs?$AAp?$AA?9?$AAc?$AAy?$AAr?$AAl@ 000000018006a5e8     libucrt:lcidtoname_downlevel.obj
 0002:0000d600       ??_C@_1BG@CIOGKHPB@?$AAs?$AAr?$AA?9?$AAs?$AAp?$AA?9?$AAl?$AAa?$AAt?$AAn@ 000000018006a600     libucrt:lcidtoname_downlevel.obj
 0002:0000d618       ??_C@_1M@NGFJLMAC@?$AAs?$AAv?$AA?9?$AAf?$AAi@ 000000018006a618     libucrt:lcidtoname_downlevel.obj
 0002:0000d628       ??_C@_1M@MPJEJAJC@?$AAs?$AAv?$AA?9?$AAs?$AAe@ 000000018006a628     libucrt:lcidtoname_downlevel.obj
 0002:0000d638       ??_C@_1M@MPNDHLFK@?$AAs?$AAw?$AA?9?$AAk?$AAe@ 000000018006a638     libucrt:lcidtoname_downlevel.obj
 0002:0000d648       ??_C@_1O@KOHBJJI@?$AAs?$AAy?$AAr?$AA?9?$AAs?$AAy@ 000000018006a648     libucrt:lcidtoname_downlevel.obj
 0002:0000d658       ??_C@_1M@LDCEFHA@?$AAt?$AAa?$AA?9?$AAi?$AAn@ 000000018006a658     libucrt:lcidtoname_downlevel.obj
 0002:0000d668       ??_C@_1M@CNJOFAK@?$AAt?$AAe?$AA?9?$AAi?$AAn@ 000000018006a668     libucrt:lcidtoname_downlevel.obj
 0002:0000d678       ??_C@_1M@GNAECACD@?$AAt?$AAh?$AA?9?$AAt?$AAh@ 000000018006a678     libucrt:lcidtoname_downlevel.obj
 0002:0000d688       ??_C@_1M@CHBIHOJO@?$AAt?$AAn?$AA?9?$AAz?$AAa@ 000000018006a688     libucrt:lcidtoname_downlevel.obj
 0002:0000d698       ??_C@_1M@GCCMIGPJ@?$AAt?$AAr?$AA?9?$AAt?$AAr@ 000000018006a698     libucrt:lcidtoname_downlevel.obj
 0002:0000d6a8       ??_C@_1M@CELMCNBK@?$AAt?$AAt?$AA?9?$AAr?$AAu@ 000000018006a6a8     libucrt:lcidtoname_downlevel.obj
 0002:0000d6b8       ??_C@_1M@KLMCELGA@?$AAu?$AAk?$AA?9?$AAu?$AAa@ 000000018006a6b8     libucrt:lcidtoname_downlevel.obj
 0002:0000d6c8       ??_C@_1M@EPAJJAJF@?$AAu?$AAr?$AA?9?$AAp?$AAk@ 000000018006a6c8     libucrt:lcidtoname_downlevel.obj
 0002:0000d6d8       ??_C@_1BG@GEGPMCDJ@?$AAu?$AAz?$AA?9?$AAu?$AAz?$AA?9?$AAc?$AAy?$AAr?$AAl@ 000000018006a6d8     libucrt:lcidtoname_downlevel.obj
 0002:0000d6f0       ??_C@_1BG@EGGKJILM@?$AAu?$AAz?$AA?9?$AAu?$AAz?$AA?9?$AAl?$AAa?$AAt?$AAn@ 000000018006a6f0     libucrt:lcidtoname_downlevel.obj
 0002:0000d708       ??_C@_1M@GFOCLFF@?$AAv?$AAi?$AA?9?$AAv?$AAn@ 000000018006a708     libucrt:lcidtoname_downlevel.obj
 0002:0000d718       ??_C@_1M@CPAMEDFI@?$AAx?$AAh?$AA?9?$AAz?$AAa@ 000000018006a718     libucrt:lcidtoname_downlevel.obj
 0002:0000d728       ??_C@_1O@EBKIFIGN@?$AAz?$AAh?$AA?9?$AAc?$AAh?$AAs@ 000000018006a728     libucrt:lcidtoname_downlevel.obj
 0002:0000d738       ??_C@_1O@NMHPGANE@?$AAz?$AAh?$AA?9?$AAc?$AAh?$AAt@ 000000018006a738     libucrt:lcidtoname_downlevel.obj
 0002:0000d748       ??_C@_1M@LPINJOMC@?$AAz?$AAh?$AA?9?$AAc?$AAn@ 000000018006a748     libucrt:lcidtoname_downlevel.obj
 0002:0000d758       ??_C@_1M@OCJEJODD@?$AAz?$AAh?$AA?9?$AAh?$AAk@ 000000018006a758     libucrt:lcidtoname_downlevel.obj
 0002:0000d768       ??_C@_1M@DNDLJINH@?$AAz?$AAh?$AA?9?$AAm?$AAo@ 000000018006a768     libucrt:lcidtoname_downlevel.obj
 0002:0000d778       ??_C@_1M@MBFDNDND@?$AAz?$AAh?$AA?9?$AAs?$AAg@ 000000018006a778     libucrt:lcidtoname_downlevel.obj
 0002:0000d788       ??_C@_1M@IMEPLEPE@?$AAz?$AAh?$AA?9?$AAt?$AAw@ 000000018006a788     libucrt:lcidtoname_downlevel.obj
 0002:0000d798       ??_C@_1M@BBGHNHJP@?$AAz?$AAu?$AA?9?$AAz?$AAa@ 000000018006a798     libucrt:lcidtoname_downlevel.obj
 0002:0000d7a4       ??_C@_01GBGANLPD@0@        000000018006a7a4     libucrt:cfout.obj
 0002:0000d7a8       ??_C@_05DNEBIAHO@1?$CDINF@ 000000018006a7a8     libucrt:cfout.obj
 0002:0000d7b0       ??_C@_06IMKFLFPG@1?$CDQNAN@ 000000018006a7b0     libucrt:cfout.obj
 0002:0000d7b8       ??_C@_06PGGFOGJG@1?$CDSNAN@ 000000018006a7b8     libucrt:cfout.obj
 0002:0000d7c0       ??_C@_05PHHOCPM@1?$CDIND@  000000018006a7c0     libucrt:cfout.obj
 0002:0000da30       ??_C@_1BA@BALFACEM@?$AAC?$AAO?$AAN?$AAO?$AAU?$AAT?$AA$@ 000000018006aa30     libucrt:initcon.obj
 0002:0000da40       __log10_256_lead           000000018006aa40     libucrt:log10_256_lead_tail_table.obj
 0002:0000e250       __log10_256_tail           000000018006b250     libucrt:log10_256_lead_tail_table.obj
 0002:0000ea58       ??_C@_1BK@DBDEIDLH@?$AAK?$AAE?$AAR?$AAN?$AAE?$AAL?$AA3?$AA2?$AA?4?$AAD?$AAL?$AAL@ 000000018006ba58     DelayImp:delayhlp.obj
 0002:0000ea78       ??_C@_0BI@OMNLIJDB@AcquireSRWLockExclusive@ 000000018006ba78     DelayImp:delayhlp.obj
 0002:0000ea90       ??_C@_0BI@HMIEPCNJ@ReleaseSRWLockExclusive@ 000000018006ba90     DelayImp:delayhlp.obj
 0002:0000eaa8       __pfnDliFailureHook2       000000018006baa8     DelayImp:delayhk1.obj
 0002:0000eab0       _load_config_used          000000018006bab0     LIBCMT:loadcfg.obj
 0002:0000ebe8       ??_C@_0BC@BDKFLDHL@unknown?5exception@ 000000018006bbe8     Backend.obj
 0002:0000ec00       ??_C@_0BF@KINCDENJ@bad?5array?5new?5length@ 000000018006bc00     Backend.obj
 0002:0000ec18       ??_C@_07CIFAGBMG@unknown@  000000018006bc18     Backend.obj
 0002:0000ec20       ??_C@_0BA@JFNIOLAK@string?5too?5long@ 000000018006bc20     Backend.obj
 0002:0000ec30       ??_C@_1CO@EGNPJLKI@?$AAp?$AAe?$AAr?$AAs?$AAi?$AAs?$AAt?$AAe?$AAn?$AAt?$AA?$CI?$AA?$CJ?$AA?4?$AAI?$AAs@ 000000018006bc30     Backend.obj
 0002:0000ec60       ??_C@_1DA@FBGAEOIO@?$AA?$CB?$AAp?$AAe?$AAr?$AAs?$AAi?$AAs?$AAt?$AAe?$AAn?$AAt?$AA?$CI?$AA?$CJ?$AA?4?$AAI@ 000000018006bc60     Backend.obj
 0002:0000ec90       ??_C@_1CO@JCKLEFMA@?$AA?$CB?$AAp?$AAe?$AAr?$AAs?$AAi?$AAs?$AAt?$AAe?$AAn?$AAt?$AA?$CI?$AA?$CJ?$AA?4?$AAI@ 000000018006bc90     Backend.obj
 0002:0000ecc0       ??_C@_1BE@GMLLOIPJ@?$AAr?$AAe?$AAf?$AAs?$AA_?$AA?5?$AA?$DO?$AA?5?$AA0@ 000000018006bcc0     Backend.obj
 0002:0000ecd8       ??_C@_1CC@GBFLAAPF@?$AAw?$AAr?$AAa?$AAp?$AA?9?$AA?$DO?$AAr?$AAe?$AAf?$AAs?$AA_?$AA?5?$AA?$DN?$AA?$DN?$AA?5@ 000000018006bcd8     Backend.obj
 0002:0000ed00       ??_C@_1IA@CCIFDHFH@?$AAD?$AA?3?$AA?2?$AAa?$AA?2?$AAn?$AAo?$AAd?$AAe?$AA?9?$AAc?$AAa?$AAn?$AAv?$AAa@ 000000018006bd00     Backend.obj
 0002:0000ed80       ??_C@_1EC@MGGLMBLC@?$AAo?$AAb?$AAj?$AAe?$AAc?$AAt?$AA?9?$AA?$DO?$AAI?$AAn?$AAt?$AAe?$AAr?$AAn?$AAa@ 000000018006bd80     Backend.obj
 0002:0000edc8       ??_7Backend@@6B@           000000018006bdc8     Backend.obj
 0002:0000ee10       ??_7exception@stdext@@6B@  000000018006be10     Backend.obj
 0002:0000ee28       ??_7ObjectWrap@Nan@@6B@    000000018006be28     Backend.obj
 0002:0000ee50       __pfnDliNotifyHook2        000000018006be50     win_delay_load_hook.obj
 0002:0000ee58       ??_7bad_array_new_length@stdext@@6B@ 000000018006be58     Backend.obj
 0002:0000ee70       ??_C@_05NGOMGBBD@image@    000000018006be70     ImageBackend.obj
 0002:0000ee80       ??_C@_1HC@GFEOMEAF@?$AAD?$AA?3?$AA?2?$AAa?$AA?2?$AAn?$AAo?$AAd?$AAe?$AA?9?$AAc?$AAa?$AAn?$AAv?$AAa@ 000000018006be80     ImageBackend.obj
 0002:0000eef8       ??_C@_1BC@DIMDFFBM@?$AA?$CB?$AAs?$AAu?$AAr?$AAf?$AAa?$AAc?$AAe@ 000000018006bef8     ImageBackend.obj
 0002:0000ef10       ??_C@_1BA@BHHNPNF@?$AAs?$AAu?$AAr?$AAf?$AAa?$AAc?$AAe@ 000000018006bf10     ImageBackend.obj
 0002:0000ef20       ??_C@_0N@KBCACLBD@ImageBackend@ 000000018006bf20     ImageBackend.obj
 0002:0000ef30       ??_7ImageBackend@@6B@      000000018006bf30     ImageBackend.obj
 0002:0000ef78       ??_C@_03MJPNCPKC@pdf@      000000018006bf78     PdfBackend.obj
 0002:0000ef80       ??_C@_0L@HCGIDJMC@PdfBackend@ 000000018006bf80     PdfBackend.obj
 0002:0000ef90       ??_C@_0BA@FOIKENOD@vector?5too?5long@ 000000018006bf90     PdfBackend.obj
 0002:0000efa0       ??_7PdfBackend@@6B@        000000018006bfa0     PdfBackend.obj
 0002:0000efe8       ??_C@_03NNPBMGBD@svg@      000000018006bfe8     SvgBackend.obj
 0002:0000eff0       ??_C@_1GO@EKGNLMIA@?$AAD?$AA?3?$AA?2?$AAa?$AA?2?$AAn?$AAo?$AAd?$AAe?$AA?9?$AAc?$AAa?$AAn?$AAv?$AAa@ 000000018006bff0     SvgBackend.obj
 0002:0000f060       ??_C@_1BE@LCFLFJLD@?$AA?$CB?$AA_?$AAc?$AAl?$AAo?$AAs?$AAu?$AAr?$AAe@ 000000018006c060     SvgBackend.obj
 0002:0000f078       ??_C@_0L@NPKKBKFF@SvgBackend@ 000000018006c078     SvgBackend.obj
 0002:0000f088       ??_7SvgBackend@@6B@        000000018006c088     SvgBackend.obj
 0002:0000f0d0       ??_C@_1GE@FJOIPOPI@?$AAD?$AA?3?$AA?2?$AAa?$AA?2?$AAn?$AAo?$AAd?$AAe?$AA?9?$AAc?$AAa?$AAn?$AAv?$AAa@ 000000018006c0d0     BMPParser.obj
 0002:0000f138       ??_C@_1DA@GJKBCAIL@?$AAs?$AAt?$AAa?$AAt?$AAu?$AAs?$AA?5?$AA?$DN?$AA?$DN?$AA?5?$AAS?$AAt?$AAa?$AAt?$AAu@ 000000018006c138     BMPParser.obj
 0002:0000f168       ??_C@_0M@OPOGKKPL@file?5header@ 000000018006c168     BMPParser.obj
 0002:0000f178       ??_C@_0BG@JPBAHECP@file?5header?5signature@ 000000018006c178     BMPParser.obj
 0002:0000f190       ??_C@_02JKMCABAH@BA@       000000018006c190     BMPParser.obj
 0002:0000f194       ??_C@_05BFGHBGGP@?5?$CCBA?$CC@ 000000018006c194     BMPParser.obj
 0002:0000f19c       ??_C@_02FDNJOBDI@CI@       000000018006c19c     BMPParser.obj
 0002:0000f1a0       ??_C@_05KDMICALC@?5?$CCCI?$CC@ 000000018006c1a0     BMPParser.obj
 0002:0000f1a8       ??_C@_02MINJEICA@CP@       000000018006c1a8     BMPParser.obj
 0002:0000f1ac       ??_C@_05LADPLIEN@?5?$CCCP?$CC@ 000000018006c1ac     BMPParser.obj
 0002:0000f1b4       ??_C@_02KEKBIMGE@IC@       000000018006c1b4     BMPParser.obj
 0002:0000f1b8       ??_C@_05MBOCEFAA@?5?$CCIC?$CC@ 000000018006c1b8     BMPParser.obj
 0002:0000f1c0       ??_C@_02LCNFJAAN@PT@       000000018006c1c0     BMPParser.obj
 0002:0000f1c4       ??_C@_05PFJKOIOA@?5?$CCPT?$CC@ 000000018006c1c4     BMPParser.obj
 0002:0000f1cc       ??_C@_02DGHHEOAL@BM@       000000018006c1cc     BMPParser.obj
 0002:0000f1d0       ??_C@_0BH@PGODKMKI@inconsistent?5file?5size@ 000000018006c1d0     BMPParser.obj
 0002:0000f1e8       ??_C@_0L@DKDHPBLO@DIB?5header@ 000000018006c1e8     BMPParser.obj
 0002:0000f1f8       ??_C@_0BF@JGAMBPJ@?5?$CCOS22XBITMAPHEADER?$CC@ 000000018006c1f8     BMPParser.obj
 0002:0000f210       ??_C@_0BB@GLFIFBPJ@image?5width?5is?50@ 000000018006c210     BMPParser.obj
 0002:0000f228       ??_C@_0BF@PICPCPNH@negative?5image?5width@ 000000018006c228     BMPParser.obj
 0002:0000f240       ??_C@_0BG@DIENJMKE@too?5large?5image?5width@ 000000018006c240     BMPParser.obj
 0002:0000f258       ??_C@_0BC@BPGKCLEL@image?5height?5is?50@ 000000018006c258     BMPParser.obj
 0002:0000f270       ??_C@_0BH@MGLIIGAD@too?5large?5image?5height@ 000000018006c270     BMPParser.obj
 0002:0000f288       ??_C@_0CB@EHNMIHLN@number?5of?5color?5planes?5must?5be?5@ 000000018006c288     BMPParser.obj
 0002:0000f2b0       ??_C@_0M@CGFHNEKC@color?5depth@ 000000018006c2b0     BMPParser.obj
 0002:0000f2c0       ??_C@_0BB@JGEMFNKM@compression?5type@ 000000018006c2c0     BMPParser.obj
 0002:0000f2d8       ??_C@_0L@LHCCDPID@?5?$CCBI_RLE8?$CC@ 000000018006c2d8     BMPParser.obj
 0002:0000f2e8       ??_C@_0L@LODIMGOH@?5?$CCBI_RLE4?$CC@ 000000018006c2e8     BMPParser.obj
 0002:0000f2f8       ??_C@_0L@KCBKOKJL@?5?$CCBI_JPEG?$CC@ 000000018006c2f8     BMPParser.obj
 0002:0000f308       ??_C@_09CJGDEMME@?5?$CCBI_PNG?$CC@ 000000018006c308     BMPParser.obj
 0002:0000f318       ??_C@_0BF@IIABODNP@?5?$CCBI_ALPHABITFIELDS?$CC@ 000000018006c318     BMPParser.obj
 0002:0000f330       ??_C@_0L@OLAPJCD@?5?$CCBI_CMYK?$CC@ 000000018006c330     BMPParser.obj
 0002:0000f340       ??_C@_0P@LMMOCJLO@?5?$CCBI_CMYKRLE8?$CC@ 000000018006c340     BMPParser.obj
 0002:0000f350       ??_C@_0P@LFNENANK@?5?$CCBI_CMYKRLE4?$CC@ 000000018006c350     BMPParser.obj
 0002:0000f360       ??_C@_0EN@COPDNOCO@compression?5BI_BITFIELDS?5can?5be@ 000000018006c360     BMPParser.obj
 0002:0000f3b0       ??_C@_0CI@DAENBHLK@color?5palette?5and?5bit?5depth?5com@ 000000018006c3b0     BMPParser.obj
 0002:0000f3d8       ??_C@_04CCANGBDI@Win?5@    000000018006c3d8     BMPParser.obj
 0002:0000f3e0       ??_C@_04FBDBODBG@sRGB@     000000018006c3e0     BMPParser.obj
 0002:0000f3e8       ??_C@_01BJJEKLCA@?$CC@     000000018006c3e8     BMPParser.obj
 0002:0000f3f0       ??_C@_0O@CJMICHBL@color?5space?5?$CC@ 000000018006c3f0     BMPParser.obj
 0002:0000f400       ??_C@_0CL@BAIMHKPA@image?5data?5overlaps?5with?5anothe@ 000000018006c400     BMPParser.obj
 0002:0000f430       ??_C@_0L@BENKOINO@image?5data@ 000000018006c430     BMPParser.obj
 0002:0000f440       ??_C@_0BI@IFJLKLBA@missing?5image?5data?5size@ 000000018006c440     BMPParser.obj
 0002:0000f458       ??_C@_0BI@PFLPMPIG@invalid?5image?5data?5size@ 000000018006c458     BMPParser.obj
 0002:0000f470       ??_C@_0BG@MANBHLLD@not?5enough?5image?5data@ 000000018006c470     BMPParser.obj
 0002:0000f488       ??_C@_0BK@KGDODFCD@unable?5to?5allocate?5memory@ 000000018006c488     BMPParser.obj
 0002:0000f4a4       ??_C@_03NLJIHOMM@?5?9?5@   000000018006c4a4     BMPParser.obj
 0002:0000f4a8       ??_C@_0BI@MNHGEGHJ@Error?5while?5processing?5@ 000000018006c4a8     BMPParser.obj
 0002:0000f4c0       ??_C@_0BH@CFIIDOJD@unexpected?5end?5of?5file@ 000000018006c4c0     BMPParser.obj
 0002:0000f4d7       ??_C@_00CNPNBAHC@@         000000018006c4d7     BMPParser.obj
 0002:0000f4d8       ??_C@_0BD@NNNHJFDD@invalid?5color?5mask@ 000000018006c4d8     BMPParser.obj
 0002:0000f4f0       ??_C@_0N@FMIEHHDB@unsupported?5@ 000000018006c4f0     BMPParser.obj
 0002:0000f500       ??_C@_08OHKLBDEG@unknown?5@ 000000018006c500     BMPParser.obj
 0002:0000f510       ??_C@_08OMFJPINA@Backends@ 000000018006c510     Backends.obj
 0002:0000f520       ??_C@_1JE@JJMAAKOP@?$AAD?$AA?3?$AA?2?$AAa?$AA?2?$AAn?$AAo?$AAd?$AAe?$AA?9?$AAc?$AAa?$AAn?$AAv?$AAa@ 000000018006c520     Canvas.obj
 0002:0000f5c0       ??_C@_1FK@CBGIJHDF@?$AAv?$AAa?$AAl?$AAu?$AAe?$AA?4?$AAs?$AAi?$AAz?$AAe?$AA?$CI?$AA?$CJ?$AA?5?$AA?$DM?$AA?$DN@ 000000018006c5c0     Canvas.obj
 0002:0000f620       ??_C@_1GI@NMFKHHFO@?$AAD?$AA?3?$AA?2?$AAa?$AA?2?$AAn?$AAo?$AAd?$AAe?$AA?9?$AAc?$AAa?$AAn?$AAv?$AAa@ 000000018006c620     Canvas.obj
 0002:0000f690       ??_C@_1GA@PFOOBIAG@?$AAl?$AAe?$AAn?$AAg?$AAt?$AAh?$AA?5?$AA?$DM?$AA?$DN?$AA?5?$AAi?$AAm?$AAp?$AA?3?$AA?3@ 000000018006c690     Canvas.obj
 0002:0000f6f0       ??_C@_1FM@LOELJOFK@?$AAs?$AAi?$AAz?$AAe?$AA?5?$AA?$DM?$AA?$DN?$AA?5?$AAi?$AAm?$AAp?$AA?3?$AA?3?$AAk?$AAM@ 000000018006c6f0     Canvas.obj
 0002:0000f750       ??_C@_1BO@OPFMAOCA@?$AAl?$AAe?$AAn?$AA?5?$AA?$DM?$AA?$DN?$AA?5?$AAI?$AAN?$AAT?$AA_?$AAM?$AAA?$AAX@ 000000018006c750     Canvas.obj
 0002:0000f770       ??_C@_1BE@CKDJNAPC@?$AAs?$AAt?$AAr?$AA_?$AA?5?$AA?$CB?$AA?$DN?$AA?5?$AA0@ 000000018006c770     Canvas.obj
 0002:0000f784       ??_C@_06IJIHIEPH@1?46?437@ 000000018006c784     Canvas.obj
 0002:0000f78c       ??_C@_02LMMGGCAJ@?3?5@     000000018006c78c     Canvas.obj
 0002:0000f790       ??_C@_08LLGCOLLL@iostream@ 000000018006c790     Canvas.obj
 0002:0000f7a0       ??_C@_0BA@ELKIONDK@bad?5locale?5name@ 000000018006c7a0     Canvas.obj
 0002:0000f7b0       ??_C@_0BF@PHHKMMFD@ios_base?3?3badbit?5set@ 000000018006c7b0     Canvas.obj
 0002:0000f7c8       ??_C@_0BG@FMKFHCIL@ios_base?3?3failbit?5set@ 000000018006c7c8     Canvas.obj
 0002:0000f7e0       ??_C@_0BF@OOHOMBOF@ios_base?3?3eofbit?5set@ 000000018006c7e0     Canvas.obj
 0002:0000f7f8       ??_C@_0CD@BOHAHBFM@canvas?3empty_closure_output_buf@ 000000018006c7f8     Canvas.obj
 0002:0000f820       ??_C@_0CA@PKBJJIPN@canvas?3term_closure_destination@ 000000018006c820     Canvas.obj
 0002:0000f840       ??_C@_06PBIJCONE@Canvas@   000000018006c840     Canvas.obj
 0002:0000f848       ??_C@_08GOCDALDA@toBuffer@ 000000018006c848     Canvas.obj
 0002:0000f858       ??_C@_0O@IOKOGJGN@streamPNGSync@ 000000018006c858     Canvas.obj
 0002:0000f868       ??_C@_0O@OBICOFIG@streamPDFSync@ 000000018006c868     Canvas.obj
 0002:0000f878       ??_C@_0P@GMDNPKGK@streamJPEGSync@ 000000018006c878     Canvas.obj
 0002:0000f888       ??_C@_04GPMDFGEJ@type@     000000018006c888     Canvas.obj
 0002:0000f890       ??_C@_06LNMIFCNI@stride@   000000018006c890     Canvas.obj
 0002:0000f898       ??_C@_05IGKADHGO@width@    000000018006c898     Canvas.obj
 0002:0000f8a0       ??_C@_06LNLHEAAG@height@   000000018006c8a0     Canvas.obj
 0002:0000f8a8       ??_C@_0P@DNOOAMCM@PNG_NO_FILTERS@ 000000018006c8a8     Canvas.obj
 0002:0000f8b8       ??_C@_0BA@NECJFJGB@PNG_FILTER_NONE@ 000000018006c8b8     Canvas.obj
 0002:0000f8c8       ??_C@_0P@ILKINAJE@PNG_FILTER_SUB@ 000000018006c8c8     Canvas.obj
 0002:0000f8d8       ??_C@_0O@PHEANGBB@PNG_FILTER_UP@ 000000018006c8d8     Canvas.obj
 0002:0000f8e8       ??_C@_0P@OIJAFJM@PNG_FILTER_AVG@ 000000018006c8e8     Canvas.obj
 0002:0000f8f8       ??_C@_0BB@EOMICOFG@PNG_FILTER_PAETH@ 000000018006c8f8     Canvas.obj
 0002:0000f910       ??_C@_0BA@HBOOLNBH@PNG_ALL_FILTERS@ 000000018006c910     Canvas.obj
 0002:0000f920       ??_C@_0O@KCCDDIBD@_registerFont@ 000000018006c920     Canvas.obj
 0002:0000f930       ??_C@_0BE@GPPMDHOH@_deregisterAllFonts@ 000000018006c930     Canvas.obj
 0002:0000f948       ??_C@_0DD@NOKGMICM@Class?5constructors?5cannot?5be?5in@ 000000018006c948     Canvas.obj
 0002:0000f980       ??_C@_0BC@PALKPJEA@Invalid?5arguments@ 000000018006c980     Canvas.obj
 0002:0000f998       ??_C@_0BK@LEHHNKDG@canvas?3ToBufferAsyncAfter@ 000000018006c998     Canvas.obj
 0002:0000f9b8       ??_C@_0BB@CHLGOGDL@compressionLevel@ 000000018006c9b8     Canvas.obj
 0002:0000f9d0       ??_C@_0L@CAGNKJED@resolution@ 000000018006c9d0     Canvas.obj
 0002:0000f9e0       ??_C@_07LOIMJIII@filters@  000000018006c9e0     Canvas.obj
 0002:0000f9e8       ??_C@_07JKIHKJOO@palette@  000000018006c9e8     Canvas.obj
 0002:0000f9f0       ??_C@_0CI@BHLKFIE@Palette?5length?5must?5be?5a?5multip@ 000000018006c9f0     Canvas.obj
 0002:0000fa18       ??_C@_0BA@IGMJCIAO@backgroundIndex@ 000000018006ca18     Canvas.obj
 0002:0000fa28       ??_C@_07DADGLCBN@quality@  000000018006ca28     Canvas.obj
 0002:0000fa30       ??_C@_0BC@PBNJDFOD@chromaSubsampling@ 000000018006ca30     Canvas.obj
 0002:0000fa48       ??_C@_0M@BECHMDJA@progressive@ 000000018006ca48     Canvas.obj
 0002:0000fa54       ??_C@_06FHIJNKHO@?$CFFT?$CFTZ@ 000000018006ca54     Canvas.obj
 0002:0000fa5c       ??_C@_05PHLGJONK@title@    000000018006ca5c     Canvas.obj
 0002:0000fa64       ??_C@_06LIPPPFCI@author@   000000018006ca64     Canvas.obj
 0002:0000fa70       ??_C@_07JNNGEGGO@subject@  000000018006ca70     Canvas.obj
 0002:0000fa78       ??_C@_08KBIEDDDE@keywords@ 000000018006ca78     Canvas.obj
 0002:0000fa88       ??_C@_07PJPKCGHK@creator@  000000018006ca88     Canvas.obj
 0002:0000fa90       ??_C@_0N@NMBFAPFM@creationDate@ 000000018006ca90     Canvas.obj
 0002:0000faa0       ??_C@_07FKDDNFDN@modDate@  000000018006caa0     Canvas.obj
 0002:0000faa8       ??_C@_03DGOGAGNC@raw@      000000018006caa8     Canvas.obj
 0002:0000fab0       ??_C@_0CE@IOCECGHO@Data?5exceeds?5maximum?5buffer?5len@ 000000018006cab0     Canvas.obj
 0002:0000fad8       ??_C@_09NGJJJBGE@image?1png@ 000000018006cad8     Canvas.obj
 0002:0000fae8       ??_C@_0L@PJKHLKFB@image?1jpeg@ 000000018006cae8     Canvas.obj
 0002:0000faf8       ??_C@_0BB@BCHOLLGI@canvas?3StreamPNG@ 000000018006caf8     Canvas.obj
 0002:0000fb10       ??_C@_0BL@NEPODJIN@callback?5function?5required@ 000000018006cb10     Canvas.obj
 0002:0000fb30       ??_C@_0BB@GPCAPPP@canvas?3StreamPDF@ 000000018006cb30     Canvas.obj
 0002:0000fb48       ??_C@_0BC@FANAGBIP@wrong?5canvas?5type@ 000000018006cb48     Canvas.obj
 0002:0000fb60       ??_C@_0BE@BPOGMHI@Wrong?5argument?5type@ 000000018006cb60     Canvas.obj
 0002:0000fb80       ??_C@_0KD@OFKOCKPC@The?5second?5argument?5to?5register@ 000000018006cb80     Canvas.obj
 0002:0000fc28       ??_C@_0BK@COFJPHCD@Could?5not?5parse?5font?5file@ 000000018006cc28     Canvas.obj
 0002:0000fc44       ??_C@_06NBOBHOCP@family@   000000018006cc44     Canvas.obj
 0002:0000fc4c       ??_C@_06CMCBKMCB@weight@   000000018006cc4c     Canvas.obj
 0002:0000fc54       ??_C@_05IAKJCFIM@style@    000000018006cc54     Canvas.obj
 0002:0000fc5c       ??_C@_06IKLLLDHL@normal@   000000018006cc5c     Canvas.obj
 0002:0000fc68       ??_C@_0CO@PJJOAFFD@Could?5not?5load?5font?5to?5the?5syst@ 000000018006cc68     Canvas.obj
 0002:0000fc98       ??_C@_0CH@DNCCOKNG@Could?5not?5deregister?5one?5or?5mor@ 000000018006cc98     Canvas.obj
 0002:0000fcc0       ??_C@_06DAHKLION@italic@   000000018006ccc0     Canvas.obj
 0002:0000fcc8       ??_C@_07PNBIOHPA@oblique@  000000018006ccc8     Canvas.obj
 0002:0000fcd0       ??_C@_04PJDGFHHN@bold@     000000018006ccd0     Canvas.obj
 0002:0000fcd8       ??_C@_03GNABGMEE@100@      000000018006ccd8     Canvas.obj
 0002:0000fcdc       ??_C@_03HPLEMDKK@200@      000000018006ccdc     Canvas.obj
 0002:0000fce0       ??_C@_03MHAIKEMP@300@      000000018006cce0     Canvas.obj
 0002:0000fce4       ??_C@_03FKNPJMHG@400@      000000018006cce4     Canvas.obj
 0002:0000fce8       ??_C@_03OCGDPLBD@500@      000000018006cce8     Canvas.obj
 0002:0000fcec       ??_C@_03PANGFEPN@600@      000000018006ccec     Canvas.obj
 0002:0000fcf0       ??_C@_03EIGKDDJI@700@      000000018006ccf0     Canvas.obj
 0002:0000fcf4       ??_C@_03BAAJCDMO@800@      000000018006ccf4     Canvas.obj
 0002:0000fcf8       ??_C@_03KILFEEKL@900@      000000018006ccf8     Canvas.obj
 0002:0000fcfc       ??_C@_01IHBHIGKO@?0@       000000018006ccfc     Canvas.obj
 0002:0000fd00       ??_C@_07JKKCBBMM@context@  000000018006cd00     Canvas.obj
 0002:0000fd10       ??_C@_1JA@PPNCFCKL@?$AAD?$AA?3?$AA?2?$AAa?$AA?2?$AAn?$AAo?$AAd?$AAe?$AA?9?$AAc?$AAa?$AAn?$AAv?$AAa@ 000000018006cd10     Canvas.obj
 0002:0000fda0       ??_C@_1GK@KNJIIFLH@?$AAr?$AAe?$AAi?$AAn?$AAt?$AAe?$AAr?$AAp?$AAr?$AAe?$AAt?$AA_?$AAc?$AAa?$AAs@ 000000018006cda0     Canvas.obj
 0002:0000fe10       ??_C@_1CE@LNAGEONJ@?$AA?$CB?$AAo?$AAb?$AAj?$AAe?$AAc?$AAt?$AA?4?$AAI?$AAs?$AAE?$AAm?$AAp?$AAt?$AAy@ 000000018006ce10     Canvas.obj
 0002:0000fe38       ??_C@_0BL@GOIGLPKN@unordered_map?1set?5too?5long@ 000000018006ce38     Canvas.obj
 0002:0000fe58       ??_C@_0BK@OGNNAFAB@invalid?5hash?5bucket?5count@ 000000018006ce58     Canvas.obj
 0002:0000fe78       ??_7?$basic_streambuf@DU?$char_traits@D@std@@@std@@6B@ 000000018006ce78     Canvas.obj
 0002:0000fef0       ??_7ios_base@std@@6B@      000000018006cef0     Canvas.obj
 0002:0000fef8       ??_7?$basic_ios@DU?$char_traits@D@std@@@std@@6B@ 000000018006cef8     Canvas.obj
 0002:0000ff00       ??_7?$basic_stringbuf@DU?$char_traits@D@std@@V?$allocator@D@2@@std@@6B@ 000000018006cf00     Canvas.obj
 0002:0000ff78       ??_7_Iostream_error_category2@std@@6B@ 000000018006cf78     Canvas.obj
 0002:0000ffa8       ??_7_System_error@std@@6B@ 000000018006cfa8     Canvas.obj
 0002:0000ffa8       ??_7system_error@std@@6B@  000000018006cfa8     Canvas.obj
 0002:0000ffa8       ??_7failure@ios_base@std@@6B@ 000000018006cfa8     Canvas.obj
 0002:0000ffc0       ??_7?$basic_istream@DU?$char_traits@D@std@@@std@@6B@ 000000018006cfc0     Canvas.obj
 0002:0000ffc8       ??_7Canvas@@6B@            000000018006cfc8     Canvas.obj
 0002:0000ffe0       ?_Iostream_error@?4??message@_Iostream_error_category2@std@@UEBA?AV?$basic_string@DU?$char_traits@D@std@@V?$allocator@D@2@@3@H@Z@4QBDB 000000018006cfe0     Canvas.obj
 0002:0000fff8       ??_8?$basic_istringstream@DU?$char_traits@D@std@@V?$allocator@D@2@@std@@7B@ 000000018006cff8     Canvas.obj
 0002:00010000       ??_7?$basic_istringstream@DU?$char_traits@D@std@@V?$allocator@D@2@@std@@6B@ 000000018006d000     Canvas.obj
 0002:00010008       ??_C@_0P@CKNMLMDB@CanvasGradient@ 000000018006d008     CanvasGradient.obj
 0002:00010018       ??_C@_0N@FFOKKILE@addColorStop@ 000000018006d018     CanvasGradient.obj
 0002:00010028       ??_C@_0BC@KNPMEBHA@invalid?5arguments@ 000000018006d028     CanvasGradient.obj
 0002:00010040       ??_C@_0BA@ELGKPKEI@offset?5required@ 000000018006d040     CanvasGradient.obj
 0002:00010050       ??_C@_0BG@HHHCEBEM@color?5string?5required@ 000000018006d050     CanvasGradient.obj
 0002:00010068       ??_C@_0BD@JKDEPLNJ@parse?5color?5failed@ 000000018006d068     CanvasGradient.obj
 0002:00010080       ??_7Gradient@@6B@          000000018006d080     CanvasGradient.obj
 0002:00010098       ??_C@_0O@KEPDKAFI@CanvasPattern@ 000000018006d098     CanvasPattern.obj
 0002:000100a8       ??_C@_0N@NPHKHKKB@setTransform@ 000000018006d0a8     CanvasPattern.obj
 0002:000100b8       ??_C@_0BC@LLKEFJPH@CanvasPatternInit@ 000000018006d0b8     CanvasPattern.obj
 0002:000100d0       ??_C@_0CG@CKGIHBBA@Image?5given?5has?5not?5completed?5l@ 000000018006d0d0     CanvasPattern.obj
 0002:000100f8       ??_C@_0BJ@NBALILEB@Image?5or?5Canvas?5expected@ 000000018006d0f8     CanvasPattern.obj
 0002:00010118       ??_C@_09OGFADPEI@no?9repeat@ 000000018006d118     CanvasPattern.obj
 0002:00010128       ??_C@_08HMIFKPGE@repeat?9x@ 000000018006d128     CanvasPattern.obj
 0002:00010138       ??_C@_08GFJOJOCF@repeat?9y@ 000000018006d138     CanvasPattern.obj
 0002:00010148       ??_C@_0BD@BOGGAILC@Expected?5DOMMatrix@ 000000018006d148     CanvasPattern.obj
 0002:0001015c       ??_C@_01INIBCBCB@f@        000000018006d15c     CanvasPattern.obj
 0002:00010160       ??_C@_01KGKMHCOC@e@        000000018006d160     CanvasPattern.obj
 0002:00010164       ??_C@_01LPLHEDKD@d@        000000018006d164     CanvasPattern.obj
 0002:00010168       ??_C@_01PAPGNFGE@c@        000000018006d168     CanvasPattern.obj
 0002:0001016c       ??_C@_01OJONOECF@b@        000000018006d16c     CanvasPattern.obj
 0002:00010170       ??_C@_01MCMALHOG@a@        000000018006d170     CanvasPattern.obj
 0002:00010178       ??_7Pattern@@6B@           000000018006d178     CanvasPattern.obj
 0002:00010190       ??_C@_03JBJLGPFL@end@      000000018006d190     CanvasRenderingContext2d.obj
 0002:00010198       ??_C@_0BB@GCADKGJO@map?1set?5too?5long@ 000000018006d198     CanvasRenderingContext2d.obj
 0002:000101b0       ??_C@_0BJ@HOMNLOJF@CanvasRenderingContext2D@ 000000018006d1b0     CanvasRenderingContext2d.obj
 0002:000101d0       ??_C@_09LANPKMCJ@drawImage@ 000000018006d1d0     CanvasRenderingContext2d.obj
 0002:000101e0       ??_C@_0N@HMHAOANH@putImageData@ 000000018006d1e0     CanvasRenderingContext2d.obj
 0002:000101f0       ??_C@_0N@LJBMKNKJ@getImageData@ 000000018006d1f0     CanvasRenderingContext2d.obj
 0002:00010200       ??_C@_0BA@LENOHGDH@createImageData@ 000000018006d200     CanvasRenderingContext2d.obj
 0002:00010210       ??_C@_07IEJLLIOD@addPage@  000000018006d210     CanvasRenderingContext2d.obj
 0002:00010218       ??_C@_04EMMDIJJL@save@     000000018006d218     CanvasRenderingContext2d.obj
 0002:00010220       ??_C@_07HICINA@restore@    000000018006d220     CanvasRenderingContext2d.obj
 0002:00010228       ??_C@_06CEHMNFAL@rotate@   000000018006d228     CanvasRenderingContext2d.obj
 0002:00010230       ??_C@_09ODNGOEIO@translate@ 000000018006d230     CanvasRenderingContext2d.obj
 0002:00010240       ??_C@_09IFONHNKG@transform@ 000000018006d240     CanvasRenderingContext2d.obj
 0002:00010250       ??_C@_0N@KLMELGON@getTransform@ 000000018006d250     CanvasRenderingContext2d.obj
 0002:00010260       ??_C@_0P@KBHJLFLN@resetTransform@ 000000018006d260     CanvasRenderingContext2d.obj
 0002:00010270       ??_C@_0O@MDNHBEAB@isPointInPath@ 000000018006d270     CanvasRenderingContext2d.obj
 0002:00010280       ??_C@_05MHMEBBGO@scale@    000000018006d280     CanvasRenderingContext2d.obj
 0002:00010288       ??_C@_04POIGMEJN@clip@     000000018006d288     CanvasRenderingContext2d.obj
 0002:00010290       ??_C@_04OBAECEGJ@fill@     000000018006d290     CanvasRenderingContext2d.obj
 0002:00010298       ??_C@_06JDPPEKDJ@stroke@   000000018006d298     CanvasRenderingContext2d.obj
 0002:000102a0       ??_C@_08BKNBKKHP@fillText@ 000000018006d2a0     CanvasRenderingContext2d.obj
 0002:000102b0       ??_C@_0L@NKNGGLJB@strokeText@ 000000018006d2b0     CanvasRenderingContext2d.obj
 0002:000102c0       ??_C@_08IFOCBDEO@fillRect@ 000000018006d2c0     CanvasRenderingContext2d.obj
 0002:000102d0       ??_C@_0L@EFOFNCKA@strokeRect@ 000000018006d2d0     CanvasRenderingContext2d.obj
 0002:000102e0       ??_C@_09CADLENBP@clearRect@ 000000018006d2e0     CanvasRenderingContext2d.obj
 0002:000102ec       ??_C@_04LHPFHFPH@rect@     000000018006d2ec     CanvasRenderingContext2d.obj
 0002:000102f8       ??_C@_09IOKGDLEI@roundRect@ 000000018006d2f8     CanvasRenderingContext2d.obj
 0002:00010308       ??_C@_0M@PDPLNFGN@measureText@ 000000018006d308     CanvasRenderingContext2d.obj
 0002:00010314       ??_C@_06ICOKFDHB@moveTo@   000000018006d314     CanvasRenderingContext2d.obj
 0002:0001031c       ??_C@_06KCFEGHJL@lineTo@   000000018006d31c     CanvasRenderingContext2d.obj
 0002:00010328       ??_C@_0O@PAEGDEKM@bezierCurveTo@ 000000018006d328     CanvasRenderingContext2d.obj
 0002:00010338       ??_C@_0BB@NNCDNEFE@quadraticCurveTo@ 000000018006d338     CanvasRenderingContext2d.obj
 0002:00010350       ??_C@_09GMDIDHBP@beginPath@ 000000018006d350     CanvasRenderingContext2d.obj
 0002:00010360       ??_C@_09FFNFMCIM@closePath@ 000000018006d360     CanvasRenderingContext2d.obj
 0002:0001036c       ??_C@_03EEIEDENP@arc@      000000018006d36c     CanvasRenderingContext2d.obj
 0002:00010370       ??_C@_05KOMEJIOF@arcTo@    000000018006d370     CanvasRenderingContext2d.obj
 0002:00010378       ??_C@_07IANGJLLC@ellipse@  000000018006d378     CanvasRenderingContext2d.obj
 0002:00010380       ??_C@_0M@KIBHMOJH@setLineDash@ 000000018006d380     CanvasRenderingContext2d.obj
 0002:00010390       ??_C@_0M@KHAJBIBE@getLineDash@ 000000018006d390     CanvasRenderingContext2d.obj
 0002:000103a0       ??_C@_0O@IIFIBGIF@createPattern@ 000000018006d3a0     CanvasRenderingContext2d.obj
 0002:000103b0       ??_C@_0BF@FLJOOEKA@createLinearGradient@ 000000018006d3b0     CanvasRenderingContext2d.obj
 0002:000103c8       ??_C@_0BF@MHOEOHFA@createRadialGradient@ 000000018006d3c8     CanvasRenderingContext2d.obj
 0002:000103e0       ??_C@_0M@GJLGNIPC@pixelFormat@ 000000018006d3e0     CanvasRenderingContext2d.obj
 0002:000103f0       ??_C@_0P@HGKACBEG@patternQuality@ 000000018006d3f0     CanvasRenderingContext2d.obj
 0002:00010400       ??_C@_0BG@NBHIGNIP@imageSmoothingEnabled@ 000000018006d400     CanvasRenderingContext2d.obj
 0002:00010418       ??_C@_0BJ@KOAEPHEF@globalCompositeOperation@ 000000018006d418     CanvasRenderingContext2d.obj
 0002:00010438       ??_C@_0M@EJNLOLOE@globalAlpha@ 000000018006d438     CanvasRenderingContext2d.obj
 0002:00010448       ??_C@_0M@JPJLLJDB@shadowColor@ 000000018006d448     CanvasRenderingContext2d.obj
 0002:00010458       ??_C@_0L@EFNIPLDK@miterLimit@ 000000018006d458     CanvasRenderingContext2d.obj
 0002:00010468       ??_C@_09PELAPJEH@lineWidth@ 000000018006d468     CanvasRenderingContext2d.obj
 0002:00010478       ??_C@_07IPBACFHB@lineCap@  000000018006d478     CanvasRenderingContext2d.obj
 0002:00010480       ??_C@_08CCMLJKBL@lineJoin@ 000000018006d480     CanvasRenderingContext2d.obj
 0002:00010490       ??_C@_0P@NNEFDNMM@lineDashOffset@ 000000018006d490     CanvasRenderingContext2d.obj
 0002:000104a0       ??_C@_0O@FOAIOCIO@shadowOffsetX@ 000000018006d4a0     CanvasRenderingContext2d.obj
 0002:000104b0       ??_C@_0O@EHBDNDMP@shadowOffsetY@ 000000018006d4b0     CanvasRenderingContext2d.obj
 0002:000104c0       ??_C@_0L@FJBIPGOL@shadowBlur@ 000000018006d4c0     CanvasRenderingContext2d.obj
 0002:000104d0       ??_C@_09BEIGEBLF@antialias@ 000000018006d4d0     CanvasRenderingContext2d.obj
 0002:000104e0       ??_C@_0BA@GALDJJKL@textDrawingMode@ 000000018006d4e0     CanvasRenderingContext2d.obj
 0002:000104f0       ??_C@_0BB@FMAKGOMH@currentTransform@ 000000018006d4f0     CanvasRenderingContext2d.obj
 0002:00010508       ??_C@_09DCCGDJMC@fillStyle@ 000000018006d508     CanvasRenderingContext2d.obj
 0002:00010518       ??_C@_0M@HFFEPBHM@strokeStyle@ 000000018006d518     CanvasRenderingContext2d.obj
 0002:00010524       ??_C@_04EFPADHIC@font@     000000018006d524     CanvasRenderingContext2d.obj
 0002:00010530       ??_C@_0N@KIMHKGNF@textBaseline@ 000000018006d530     CanvasRenderingContext2d.obj
 0002:00010540       ??_C@_09PKLPGIBN@textAlign@ 000000018006d540     CanvasRenderingContext2d.obj
 0002:00010550       ??_C@_0BJ@OLEJJKDH@CanvasRenderingContext2d@ 000000018006d550     CanvasRenderingContext2d.obj
 0002:00010570       ??_C@_0BN@JFEMENH@CanvasRenderingContext2dInit@ 000000018006d570     CanvasRenderingContext2d.obj
 0002:00010590       ??_C@_04ECGOMOIE@sans@     000000018006d590     CanvasRenderingContext2d.obj
 0002:00010598       ??_C@_0BJ@MMHEOABP@Unexpected?5gradient?5type@ 000000018006d598     CanvasRenderingContext2d.obj
 0002:000105b8       ??_C@_0BN@FEKPFJFP@Failed?5to?5initialize?5context@ 000000018006d5b8     CanvasRenderingContext2d.obj
 0002:000105d8       ??_C@_07NOFPBGJH@evenodd@  000000018006d5d8     CanvasRenderingContext2d.obj
 0002:000105e0       ??_C@_0BA@IBFIJLCO@Canvas?5expected@ 000000018006d5e0     CanvasRenderingContext2d.obj
 0002:000105f0       ??_C@_06OECNJAC@RGBA32@    000000018006d5f0     CanvasRenderingContext2d.obj
 0002:000105f8       ??_C@_05EIHACBEG@RGB24@    000000018006d5f8     CanvasRenderingContext2d.obj
 0002:00010600       ??_C@_02GGHJHNOB@A8@       000000018006d600     CanvasRenderingContext2d.obj
 0002:00010608       ??_C@_09FDIJCLOJ@RGB16_565@ 000000018006d608     CanvasRenderingContext2d.obj
 0002:00010614       ??_C@_02LHLLMGKI@A1@       000000018006d614     CanvasRenderingContext2d.obj
 0002:00010618       ??_C@_05IAEKHIAN@alpha@    000000018006d618     CanvasRenderingContext2d.obj
 0002:00010620       ??_C@_0CF@DPCLDGFG@only?5PDF?5canvases?5support?5?4addP@ 000000018006d620     CanvasRenderingContext2d.obj
 0002:00010648       ??_C@_0BD@DJPHEEKJ@ImageData?5expected@ 000000018006d648     CanvasRenderingContext2d.obj
 0002:00010660       ??_C@_0DJ@CKCCPANE@putImageData?5for?5CANVAS_FORMAT_@ 000000018006d660     CanvasRenderingContext2d.obj
 0002:000106a0       ??_C@_0CM@KDJMELNO@Invalid?5pixel?5format?5or?5not?5an?5@ 000000018006d6a0     CanvasRenderingContext2d.obj
 0002:000106d0       ??_C@_0CH@NDMGIAMG@IndexSizeError?3?5The?5source?5widt@ 000000018006d6d0     CanvasRenderingContext2d.obj
 0002:000106f8       ??_C@_0CI@HDADGBDO@IndexSizeError?3?5The?5source?5heig@ 000000018006d6f8     CanvasRenderingContext2d.obj
 0002:00010720       ??_C@_0BC@GJDMJLID@Canvas?5width?5is?50@ 000000018006d720     CanvasRenderingContext2d.obj
 0002:00010738       ??_C@_0BD@KPLINHKD@Canvas?5height?5is?50@ 000000018006d738     CanvasRenderingContext2d.obj
 0002:00010750       ??_C@_0DJ@DCIKNENI@getImageData?5for?5CANVAS_FORMAT_@ 000000018006d750     CanvasRenderingContext2d.obj
 0002:00010790       ??_C@_0CF@NIOBFMGH@The?5first?5argument?5must?5be?5an?5o@ 000000018006d790     CanvasRenderingContext2d.obj
 0002:000107b8       ??_C@_0M@OABMHCHE@source?9over@ 000000018006d7b8     CanvasRenderingContext2d.obj
 0002:000107c4       ??_C@_05MEHLAELG@clear@    000000018006d7c4     CanvasRenderingContext2d.obj
 0002:000107cc       ??_C@_04COAGEIMF@copy@     000000018006d7cc     CanvasRenderingContext2d.obj
 0002:000107d8       ??_C@_0M@BLMAJMLK@destination@ 000000018006d7d8     CanvasRenderingContext2d.obj
 0002:000107e8       ??_C@_0BB@CIGJAIPI@destination?9over@ 000000018006d7e8     CanvasRenderingContext2d.obj
 0002:00010800       ??_C@_09CMAEPNDN@source?9in@ 000000018006d800     CanvasRenderingContext2d.obj
 0002:00010810       ??_C@_0P@GAHJLNBO@destination?9in@ 000000018006d810     CanvasRenderingContext2d.obj
 0002:00010820       ??_C@_0L@CGAPOHFD@source?9out@ 000000018006d820     CanvasRenderingContext2d.obj
 0002:00010830       ??_C@_0BA@IECEOLGB@destination?9out@ 000000018006d830     CanvasRenderingContext2d.obj
 0002:00010840       ??_C@_0M@MKIEODMK@source?9atop@ 000000018006d840     CanvasRenderingContext2d.obj
 0002:00010850       ??_C@_0BB@CPBJJEG@destination?9atop@ 000000018006d850     CanvasRenderingContext2d.obj
 0002:00010864       ??_C@_03COLCDPPJ@xor@      000000018006d864     CanvasRenderingContext2d.obj
 0002:00010868       ??_C@_07IEMLKEO@lighter@   000000018006d868     CanvasRenderingContext2d.obj
 0002:00010870       ??_C@_08MMOCDOEL@multiply@ 000000018006d870     CanvasRenderingContext2d.obj
 0002:0001087c       ??_C@_06LPLGMLP@screen@    000000018006d87c     CanvasRenderingContext2d.obj
 0002:00010888       ??_C@_07BJNHBMF@overlay@   000000018006d888     CanvasRenderingContext2d.obj
 0002:00010890       ??_C@_06EJFBIMH@darken@    000000018006d890     CanvasRenderingContext2d.obj
 0002:00010898       ??_C@_07OODLOHBD@lighten@  000000018006d898     CanvasRenderingContext2d.obj
 0002:000108a0       ??_C@_0M@HJIFAOGP@color?9dodge@ 000000018006d8a0     CanvasRenderingContext2d.obj
 0002:000108b0       ??_C@_0L@BNODHIAO@color?9burn@ 000000018006d8b0     CanvasRenderingContext2d.obj
 0002:000108c0       ??_C@_0L@CEKGHIKD@hard?9light@ 000000018006d8c0     CanvasRenderingContext2d.obj
 0002:000108d0       ??_C@_0L@DKCPCJMJ@soft?9light@ 000000018006d8d0     CanvasRenderingContext2d.obj
 0002:000108e0       ??_C@_0L@CHCOIIBP@difference@ 000000018006d8e0     CanvasRenderingContext2d.obj
 0002:000108f0       ??_C@_09GJPEMMGJ@exclusion@ 000000018006d8f0     CanvasRenderingContext2d.obj
 0002:000108fc       ??_C@_03GKJJMKFG@hue@      000000018006d8fc     CanvasRenderingContext2d.obj
 0002:00010900       ??_C@_0L@MOLEDBMN@saturation@ 000000018006d900     CanvasRenderingContext2d.obj
 0002:0001090c       ??_C@_05PEENBMOG@color@    000000018006d90c     CanvasRenderingContext2d.obj
 0002:00010918       ??_C@_0L@MLCMHDMB@luminosity@ 000000018006d918     CanvasRenderingContext2d.obj
 0002:00010928       ??_C@_08MEKLKAIJ@saturate@ 000000018006d928     CanvasRenderingContext2d.obj
 0002:00010934       ??_C@_04LBNBHAJC@fast@     000000018006d934     CanvasRenderingContext2d.obj
 0002:0001093c       ??_C@_04DDJAGGFE@good@     000000018006d93c     CanvasRenderingContext2d.obj
 0002:00010944       ??_C@_04MLDDEBAF@best@     000000018006d944     CanvasRenderingContext2d.obj
 0002:00010950       ??_C@_07NHJEPDMH@nearest@  000000018006d950     CanvasRenderingContext2d.obj
 0002:00010958       ??_C@_08LJMMPFJO@bilinear@ 000000018006d958     CanvasRenderingContext2d.obj
 0002:00010964       ??_C@_04CGFJFPFD@none@     000000018006d964     CanvasRenderingContext2d.obj
 0002:0001096c       ??_C@_04GEBBKIAA@gray@     000000018006d96c     CanvasRenderingContext2d.obj
 0002:00010978       ??_C@_08JOJOGLJH@subpixel@ 000000018006d978     CanvasRenderingContext2d.obj
 0002:00010988       ??_C@_07DLHCIBDH@default@  000000018006d988     CanvasRenderingContext2d.obj
 0002:00010990       ??_C@_04LNEJFJGI@path@     000000018006d990     CanvasRenderingContext2d.obj
 0002:00010998       ??_C@_05OIOMJNBL@glyph@    000000018006d998     CanvasRenderingContext2d.obj
 0002:000109a0       ??_C@_05JDNDNKBA@bevel@    000000018006d9a0     CanvasRenderingContext2d.obj
 0002:000109a8       ??_C@_05MIMAKCN@round@     000000018006d9a8     CanvasRenderingContext2d.obj
 0002:000109b0       ??_C@_05NJDNHCJA@miter@    000000018006d9b0     CanvasRenderingContext2d.obj
 0002:000109b8       ??_C@_06ICDKOIFG@square@   000000018006d9b8     CanvasRenderingContext2d.obj
 0002:000109c0       ??_C@_04JOGFAABP@butt@     000000018006d9c0     CanvasRenderingContext2d.obj
 0002:000109c8       ??_C@_06LGDBIFHB@repeat@   000000018006d9c8     CanvasRenderingContext2d.obj
 0002:000109d0       ??_C@_0BA@LKDIBKDD@10px?5sans?9serif@ 000000018006d9d0     CanvasRenderingContext2d.obj
 0002:000109e0       ??_C@_04IAGNFIBA@size@     000000018006d9e0     CanvasRenderingContext2d.obj
 0002:000109e8       ??_C@_04NPEDKLDA@unit@     000000018006d9e8     CanvasRenderingContext2d.obj
 0002:000109f0       ??_C@_0L@LMHKFCHN@sans?9serif@ 000000018006d9f0     CanvasRenderingContext2d.obj
 0002:00010a00       ??_C@_0L@OJPAHFPD@alphabetic@ 000000018006da00     CanvasRenderingContext2d.obj
 0002:00010a0c       ??_C@_03FGFCOCMD@top@      000000018006da0c     CanvasRenderingContext2d.obj
 0002:00010a10       ??_C@_06PMMPCIPB@bottom@   000000018006da10     CanvasRenderingContext2d.obj
 0002:00010a18       ??_C@_06CGLIEPEJ@middle@   000000018006da18     CanvasRenderingContext2d.obj
 0002:00010a20       ??_C@_0M@JCPEIEF@ideographic@ 000000018006da20     CanvasRenderingContext2d.obj
 0002:00010a30       ??_C@_07IDCFLKHN@hanging@  000000018006da30     CanvasRenderingContext2d.obj
 0002:00010a38       ??_C@_05FAGFPHJG@start@    000000018006da38     CanvasRenderingContext2d.obj
 0002:00010a40       ??_C@_06BBLOAEEI@center@   000000018006da40     CanvasRenderingContext2d.obj
 0002:00010a48       ??_C@_04GOOOJOPP@left@     000000018006da48     CanvasRenderingContext2d.obj
 0002:00010a50       ??_C@_05DHJDAOHK@right@    000000018006da50     CanvasRenderingContext2d.obj
 0002:00010a58       ??_C@_0BG@IGICBKHO@actualBoundingBoxLeft@ 000000018006da58     CanvasRenderingContext2d.obj
 0002:00010a70       ??_C@_0BH@KNMENBEI@actualBoundingBoxRight@ 000000018006da70     CanvasRenderingContext2d.obj
 0002:00010a88       ??_C@_0BI@NBNJEOJE@actualBoundingBoxAscent@ 000000018006da88     CanvasRenderingContext2d.obj
 0002:00010aa0       ??_C@_0BJ@LKCIMDON@actualBoundingBoxDescent@ 000000018006daa0     CanvasRenderingContext2d.obj
 0002:00010ac0       ??_C@_0P@FGHEPLGI@emHeightAscent@ 000000018006dac0     CanvasRenderingContext2d.obj
 0002:00010ad0       ??_C@_0BA@OKENAGP@emHeightDescent@ 000000018006dad0     CanvasRenderingContext2d.obj
 0002:00010ae0       ??_C@_0BD@NGFBNEGE@alphabeticBaseline@ 000000018006dae0     CanvasRenderingContext2d.obj
 0002:00010af4       ??_C@_01FJMABOPO@x@        000000018006daf4     CanvasRenderingContext2d.obj
 0002:00010af8       ??_C@_01EANLCPLP@y@        000000018006daf8     CanvasRenderingContext2d.obj
 0002:00010b00       ??_C@_0BI@KFJLDJOA@radii?5must?5be?5positive?4@ 000000018006db00     CanvasRenderingContext2d.obj
 0002:00010b18       ??_C@_0DH@KAODBHOC@radii?5must?5be?5a?5list?5of?5one?0?5tw@ 000000018006db18     CanvasRenderingContext2d.obj
 0002:00010b50       ??_C@_0CB@FPKIEPGG@The?5radius?5provided?5is?5negative@ 000000018006db50     CanvasRenderingContext2d.obj
 0002:00010b78       ??_7Context2d@@6B@         000000018006db78     CanvasRenderingContext2d.obj
 0002:00010b90       ??_C@_0M@CEEDCJLA@transparent@ 000000018006db90     color.obj
 0002:00010ba0       ??_C@_09GNHGKALJ@aliceblue@ 000000018006dba0     color.obj
 0002:00010bb0       ??_C@_0N@OJFLMGEJ@antiquewhite@ 000000018006dbb0     color.obj
 0002:00010bc0       ??_C@_04GANAGBLL@aqua@     000000018006dbc0     color.obj
 0002:00010bc8       ??_C@_0L@MOKEMMG@aquamarine@ 000000018006dbc8     color.obj
 0002:00010bd4       ??_C@_05CNOJAJLP@azure@    000000018006dbd4     color.obj
 0002:00010bdc       ??_C@_05EJOPPCPO@beige@    000000018006dbdc     color.obj
 0002:00010be4       ??_C@_06HGAAELGA@bisque@   000000018006dbe4     color.obj
 0002:00010bec       ??_C@_05BIMBDNDC@black@    000000018006dbec     color.obj
 0002:00010bf8       ??_C@_0P@CMCBOAOE@blanchedalmond@ 000000018006dbf8     color.obj
 0002:00010c08       ??_C@_04OBGPFBCN@blue@     000000018006dc08     color.obj
 0002:00010c10       ??_C@_0L@LKLKALMM@blueviolet@ 000000018006dc10     color.obj
 0002:00010c1c       ??_C@_05EBJGJMAL@brown@    000000018006dc1c     color.obj
 0002:00010c28       ??_C@_09JHLANABP@burlywood@ 000000018006dc28     color.obj
 0002:00010c38       ??_C@_09KIJDGGAG@cadetblue@ 000000018006dc38     color.obj
 0002:00010c48       ??_C@_0L@CHNAEACO@chartreuse@ 000000018006dc48     color.obj
 0002:00010c58       ??_C@_09BPADAHOC@chocolate@ 000000018006dc58     color.obj
 0002:00010c64       ??_C@_05JKFECOJP@coral@    000000018006dc64     color.obj
 0002:00010c70       ??_C@_0P@KLMOGGLK@cornflowerblue@ 000000018006dc70     color.obj
 0002:00010c80       ??_C@_08DECOJLB@cornsilk@  000000018006dc80     color.obj
 0002:00010c90       ??_C@_07DAGIGOOE@crimson@  000000018006dc90     color.obj
 0002:00010c98       ??_C@_04EDBDANFH@cyan@     000000018006dc98     color.obj
 0002:00010ca0       ??_C@_08MFEOPMII@darkblue@ 000000018006dca0     color.obj
 0002:00010cb0       ??_C@_08GHDCKAPC@darkcyan@ 000000018006dcb0     color.obj
 0002:00010cc0       ??_C@_0O@GGJPBKNE@darkgoldenrod@ 000000018006dcc0     color.obj
 0002:00010cd0       ??_C@_08EADAAFKF@darkgray@ 000000018006dcd0     color.obj
 0002:00010ce0       ??_C@_09MHNMOMAI@darkgreen@ 000000018006dce0     color.obj
 0002:00010cf0       ??_C@_08EHDJKNHJ@darkgrey@ 000000018006dcf0     color.obj
 0002:00010d00       ??_C@_09FAPDIPMK@darkkhaki@ 000000018006dd00     color.obj
 0002:00010d10       ??_C@_0M@MEEFECHN@darkmagenta@ 000000018006dd10     color.obj
 0002:00010d20       ??_C@_0P@BGCLDNDK@darkolivegreen@ 000000018006dd20     color.obj
 0002:00010d30       ??_C@_0L@ICJJPBF@darkorange@ 000000018006dd30     color.obj
 0002:00010d40       ??_C@_0L@EEAHIPOC@darkorchid@ 000000018006dd40     color.obj
 0002:00010d50       ??_C@_07MFAOOMGP@darkred@  000000018006dd50     color.obj
 0002:00010d58       ??_C@_0L@CKNHPKLG@darksalmon@ 000000018006dd58     color.obj
 0002:00010d68       ??_C@_0N@FBOCOPGH@darkseagreen@ 000000018006dd68     color.obj
 0002:00010d78       ??_C@_0O@PABAFENG@darkslateblue@ 000000018006dd78     color.obj
 0002:00010d88       ??_C@_0O@HFGOKNPL@darkslategray@ 000000018006dd88     color.obj
 0002:00010d98       ??_C@_0O@HCGHAFCH@darkslategrey@ 000000018006dd98     color.obj
 0002:00010da8       ??_C@_0O@HKLGOIEA@darkturquoise@ 000000018006dda8     color.obj
 0002:00010db8       ??_C@_0L@NGBKDFME@darkviolet@ 000000018006ddb8     color.obj
 0002:00010dc8       ??_C@_08CJGCPHKF@deeppink@ 000000018006ddc8     color.obj
 0002:00010dd8       ??_C@_0M@BGGBNDNG@deepskyblue@ 000000018006ddd8     color.obj
 0002:00010de8       ??_C@_07DJPEDLIH@dimgray@  000000018006dde8     color.obj
 0002:00010df0       ??_C@_07DOPNJDFL@dimgrey@  000000018006ddf0     color.obj
 0002:00010df8       ??_C@_0L@MIOOBLBJ@dodgerblue@ 000000018006ddf8     color.obj
 0002:00010e08       ??_C@_09ELCPEDIM@firebrick@ 000000018006de08     color.obj
 0002:00010e18       ??_C@_0M@FFMCAIP@floralwhite@ 000000018006de18     color.obj
 0002:00010e28       ??_C@_0M@HBKAKFBN@forestgreen@ 000000018006de28     color.obj
 0002:00010e38       ??_C@_07FHEBJCGF@fuchsia@  000000018006de38     color.obj
 0002:00010e40       ??_C@_09MIGKOGAO@gainsboro@ 000000018006de40     color.obj
 0002:00010e50       ??_C@_0L@CELMEDAA@ghostwhite@ 000000018006de50     color.obj
 0002:00010e5c       ??_C@_04DBNGNIAN@gold@     000000018006de5c     color.obj
 0002:00010e68       ??_C@_09KJDOAGJL@goldenrod@ 000000018006de68     color.obj
 0002:00010e74       ??_C@_05GBEEJKMC@green@    000000018006de74     color.obj
 0002:00010e80       ??_C@_0M@LFPLFELJ@greenyellow@ 000000018006de80     color.obj
 0002:00010e8c       ??_C@_04GDBIAANM@grey@     000000018006de8c     color.obj
 0002:00010e98       ??_C@_08BKNCNHLL@honeydew@ 000000018006de98     color.obj
 0002:00010ea8       ??_C@_07PCCOEED@hotpink@   000000018006dea8     color.obj
 0002:00010eb0       ??_C@_09IELIJPNO@indianred@ 000000018006deb0     color.obj
 0002:00010ebc       ??_C@_06MLCCIEFE@indigo@   000000018006debc     color.obj
 0002:00010ec4       ??_C@_05NNJJIMHF@ivory@    000000018006dec4     color.obj
 0002:00010ecc       ??_C@_05PGGLPJAA@khaki@    000000018006decc     color.obj
 0002:00010ed8       ??_C@_08KJDCPJPL@lavender@ 000000018006ded8     color.obj
 0002:00010ee8       ??_C@_0O@CCCMFNCK@lavenderblush@ 000000018006dee8     color.obj
 0002:00010ef8       ??_C@_09MONDINDP@lawngreen@ 000000018006def8     color.obj
 0002:00010f08       ??_C@_0N@ICDCAEHK@lemonchiffon@ 000000018006df08     color.obj
 0002:00010f18       ??_C@_09NBIPJLA@lightblue@ 000000018006df18     color.obj
 0002:00010f28       ??_C@_0L@BEAGLGMO@lightcoral@ 000000018006df28     color.obj
 0002:00010f38       ??_C@_09KPGEKFMK@lightcyan@ 000000018006df38     color.obj
 0002:00010f48       ??_C@_0BF@PJADCIND@lightgoldenrodyellow@ 000000018006df48     color.obj
 0002:00010f60       ??_C@_09IIGGAAJN@lightgray@ 000000018006df60     color.obj
 0002:00010f70       ??_C@_0L@OPBGACJD@lightgreen@ 000000018006df70     color.obj
 0002:00010f80       ??_C@_09IPGPKIEB@lightgrey@ 000000018006df80     color.obj
 0002:00010f90       ??_C@_09KOBGKMHP@lightpink@ 000000018006df90     color.obj
 0002:00010fa0       ??_C@_0M@ENCCHKJE@lightsalmon@ 000000018006dfa0     color.obj
 0002:00010fb0       ??_C@_0O@BLOIENJC@lightseagreen@ 000000018006dfb0     color.obj
 0002:00010fc0       ??_C@_0N@JIFIFCAN@lightskyblue@ 000000018006dfc0     color.obj
 0002:00010fd0       ??_C@_0P@LIPDKBMK@lightslategray@ 000000018006dfd0     color.obj
 0002:00010fe0       ??_C@_0P@LPPKAJBG@lightslategrey@ 000000018006dfe0     color.obj
 0002:00010ff0       ??_C@_0P@EIHJHAMG@lightsteelblue@ 000000018006dff0     color.obj
 0002:00011000       ??_C@_0M@FBHPKJLB@lightyellow@ 000000018006e000     color.obj
 0002:0001100c       ??_C@_04HLLEONLG@lime@     000000018006e00c     color.obj
 0002:00011018       ??_C@_09JKHHFGDO@limegreen@ 000000018006e018     color.obj
 0002:00011024       ??_C@_05MLLCELJD@linen@    000000018006e024     color.obj
 0002:00011030       ??_C@_07EMDGAPCI@magenta@  000000018006e030     color.obj
 0002:00011038       ??_C@_06BDPIEPJF@maroon@   000000018006e038     color.obj
 0002:00011040       ??_C@_0BB@HHCOFKIC@mediumaquamarine@ 000000018006e040     color.obj
 0002:00011058       ??_C@_0L@CEFFILOH@mediumblue@ 000000018006e058     color.obj
 0002:00011068       ??_C@_0N@GIADPNAO@mediumorchid@ 000000018006e068     color.obj
 0002:00011078       ??_C@_0N@DDGNBDHJ@mediumpurple@ 000000018006e078     color.obj
 0002:00011088       ??_C@_0P@BNCCGPJD@mediumseagreen@ 000000018006e088     color.obj
 0002:00011098       ??_C@_0BA@EKIMKCFD@mediumslateblue@ 000000018006e098     color.obj
 0002:000110a8       ??_C@_0BC@POGDBPNO@mediumspringgreen@ 000000018006e0a8     color.obj
 0002:000110c0       ??_C@_0BA@MACKBOMF@mediumturquoise@ 000000018006e0c0     color.obj
 0002:000110d0       ??_C@_0BA@PNNCDMHM@mediumvioletred@ 000000018006e0d0     color.obj
 0002:000110e0       ??_C@_0N@PJDKAOHK@midnightblue@ 000000018006e0e0     color.obj
 0002:000110f0       ??_C@_09INCGBEJA@mintcream@ 000000018006e0f0     color.obj
 0002:00011100       ??_C@_09HABDAMOF@mistyrose@ 000000018006e100     color.obj
 0002:00011110       ??_C@_08OIIPPDDA@moccasin@ 000000018006e110     color.obj
 0002:00011120       ??_C@_0M@OKLAMJCL@navajowhite@ 000000018006e120     color.obj
 0002:0001112c       ??_C@_04DCMEIHPF@navy@     000000018006e12c     color.obj
 0002:00011138       ??_C@_07MBCGBJON@oldlace@  000000018006e138     color.obj
 0002:00011140       ??_C@_05OFIFEKBG@olive@    000000018006e140     color.obj
 0002:00011148       ??_C@_09CNLBGLAE@olivedrab@ 000000018006e148     color.obj
 0002:00011154       ??_C@_06HDDOCMMN@orange@   000000018006e154     color.obj
 0002:00011160       ??_C@_09OPJMLMBK@orangered@ 000000018006e160     color.obj
 0002:0001116c       ??_C@_06DPBADMDK@orchid@   000000018006e16c     color.obj
 0002:00011178       ??_C@_0O@KONOLMEH@palegoldenrod@ 000000018006e178     color.obj
 0002:00011188       ??_C@_09NAJHJFNO@palegreen@ 000000018006e188     color.obj
 0002:00011198       ??_C@_0O@LCPHEOND@paleturquoise@ 000000018006e198     color.obj
 0002:000111a8       ??_C@_0O@IPAPGMGK@palevioletred@ 000000018006e1a8     color.obj
 0002:000111b8       ??_C@_0L@NPJMDDDD@papayawhip@ 000000018006e1b8     color.obj
 0002:000111c8       ??_C@_09GELOGGEC@peachpuff@ 000000018006e1c8     color.obj
 0002:000111d4       ??_C@_04MJMKNOJB@peru@     000000018006e1d4     color.obj
 0002:000111dc       ??_C@_04ECGBAEOC@pink@     000000018006e1dc     color.obj
 0002:000111e4       ??_C@_04DDJGBPMH@plum@     000000018006e1e4     color.obj
 0002:000111f0       ??_C@_0L@MNADNFAH@powderblue@ 000000018006e1f0     color.obj
 0002:000111fc       ??_C@_06GEHONCEN@purple@   000000018006e1fc     color.obj
 0002:00011208       ??_C@_0O@JGOBAAIL@rebeccapurple@ 000000018006e208     color.obj
 0002:00011218       ??_C@_03FAAAOPJM@red@      000000018006e218     color.obj
 0002:00011220       ??_C@_09DJJHENIF@rosybrown@ 000000018006e220     color.obj
 0002:00011230       ??_C@_09FEEJNHFN@royalblue@ 000000018006e230     color.obj
 0002:00011240       ??_C@_0M@MOEGEDCP@saddlebrown@ 000000018006e240     color.obj
 0002:0001124c       ??_C@_06FBMAEJGO@salmon@   000000018006e24c     color.obj
 0002:00011258       ??_C@_0L@HLMGLGHH@sandybrown@ 000000018006e258     color.obj
 0002:00011268       ??_C@_08EKGLDJFB@seagreen@ 000000018006e268     color.obj
 0002:00011278       ??_C@_08MFJLKPPC@seashell@ 000000018006e278     color.obj
 0002:00011284       ??_C@_06CEGMHAGE@sienna@   000000018006e284     color.obj
 0002:0001128c       ??_C@_06NBGLMDBG@silver@   000000018006e28c     color.obj
 0002:00011298       ??_C@_07MFCMKLDM@skyblue@  000000018006e298     color.obj
 0002:000112a0       ??_C@_09DPLBEIJJ@slateblue@ 000000018006e2a0     color.obj
 0002:000112b0       ??_C@_09LKMPLBLE@slategray@ 000000018006e2b0     color.obj
 0002:000112c0       ??_C@_09LNMGBJGI@slategrey@ 000000018006e2c0     color.obj
 0002:000112cc       ??_C@_04HPKDHBOB@snow@     000000018006e2cc     color.obj
 0002:000112d8       ??_C@_0M@IPKJFOEB@springgreen@ 000000018006e2d8     color.obj
 0002:000112e8       ??_C@_09EKEFGALI@steelblue@ 000000018006e2e8     color.obj
 0002:000112f4       ??_C@_03IIINPABG@tan@      000000018006e2f4     color.obj
 0002:000112f8       ??_C@_04LJCKMMGA@teal@     000000018006e2f8     color.obj
 0002:00011300       ??_C@_07CGANODJO@thistle@  000000018006e300     color.obj
 0002:00011308       ??_C@_06NALDPNEI@tomato@   000000018006e308     color.obj
 0002:00011310       ??_C@_09LFBHPEAP@turquoise@ 000000018006e310     color.obj
 0002:0001131c       ??_C@_06KNANIGBM@violet@   000000018006e31c     color.obj
 0002:00011324       ??_C@_05PPOGEFHN@wheat@    000000018006e324     color.obj
 0002:0001132c       ??_C@_05PMAELIEO@white@    000000018006e32c     color.obj
 0002:00011338       ??_C@_0L@FDFMBGNF@whitesmoke@ 000000018006e338     color.obj
 0002:00011344       ??_C@_06ENJNJKEL@yellow@   000000018006e344     color.obj
 0002:00011350       ??_C@_0M@GCLLLGON@yellowgreen@ 000000018006e350     color.obj
 0002:00011360       ??_C@_0O@CAFKCKKM@?$CD?$CF?42x?$CF?42x?$CF?42x@ 000000018006e360     color.obj
 0002:00011370       ??_C@_0BH@IMKFBGII@rgba?$CI?$CFd?0?5?$CFd?0?5?$CFd?0?5?$CF?42f?$CJ@ 000000018006e370     color.obj
 0002:00011388       ??_C@_04KDAMFBD@rgb?$CI@   000000018006e388     color.obj
 0002:00011390       ??_C@_05KGKCGJPO@rgba?$CI@ 000000018006e390     color.obj
 0002:00011398       ??_C@_05HBFAAOHC@hsla?$CI@ 000000018006e398     color.obj
 0002:000113a0       ??_C@_04PFIFKHPC@hsl?$CI@  000000018006e3a0     color.obj
 0002:000113a8       ??_C@_04CLILDBFP@rgba@     000000018006e3a8     color.obj
 0002:000113b0       ??_C@_03FNOJMHE@rgb@       000000018006e3b0     color.obj
 0002:000113b4       ??_C@_04NEDOFDLO@hsla@     000000018006e3b4     color.obj
 0002:000113bc       ??_C@_03LPNGANKN@hsl@      000000018006e3bc     color.obj
 0002:000113c0       ??_C@_05NBEAGECF@Image@    000000018006e3c0     Image.obj
 0002:000113c8       ??_C@_08IPNIAGNA@complete@ 000000018006e3c8     Image.obj
 0002:000113d8       ??_C@_0N@KIMBCBLK@naturalWidth@ 000000018006e3d8     Image.obj
 0002:000113e8       ??_C@_0O@DMCHDHNN@naturalHeight@ 000000018006e3e8     Image.obj
 0002:000113f8       ??_C@_08ELMFDEKI@dataMode@ 000000018006e3f8     Image.obj
 0002:00011408       ??_C@_0L@ICMMJJAL@MODE_IMAGE@ 000000018006e408     Image.obj
 0002:00011418       ??_C@_09IDBFNFDI@MODE_MIME@ 000000018006e418     Image.obj
 0002:00011428       ??_C@_09BHHNHDEH@GetSource@ 000000018006e428     Image.obj
 0002:00011438       ??_C@_09DJDIFCNF@SetSource@ 000000018006e438     Image.obj
 0002:00011444       ??_C@_06FKJAAAAK@onload@   000000018006e444     Image.obj
 0002:00011450       ??_C@_07MAAHHAB@onerror@   000000018006e450     Image.obj
 0002:00011458       ??_C@_0DH@EAEKIGFG@Method?5Image?4GetSource?5called?5o@ 000000018006e458     Image.obj
 0002:00011490       ??_C@_0DH@LKAJPGED@Method?5Image?4SetSource?5called?5o@ 000000018006e490     Image.obj
 0002:000114c8       ??_C@_0BH@DEJIGAIG@Unsupported?5image?5type@ 000000018006e4c8     Image.obj
 0002:000114e0       ??_C@_02JDPG@rb@           000000018006e4e0     Image.obj
 0002:000114e4       ??_C@_05FFKPLNPJ@fopen@    000000018006e4e4     Image.obj
 0002:000114ec       ??_C@_06GLDDLHNF@malloc@   000000018006e4ec     Image.obj
 0002:000114f8       ??_C@_0BK@DBBCPGCH@Unsupported?5JPEG?5encoding@ 000000018006e4f8     Image.obj
 0002:00011578       ??_7Image@@6B@             000000018006e578     Image.obj
 0002:000115c0       ??_C@_09NIGIGFDC@ImageData@ 000000018006e5c0     ImageData.obj
 0002:000115d0       ??_C@_0BK@BFELGOEH@The?5source?5width?5is?5zero?4@ 000000018006e5d0     ImageData.obj
 0002:000115f0       ??_C@_0BL@EMOEEHOI@The?5source?5height?5is?5zero?4@ 000000018006e5f0     ImageData.obj
 0002:00011610       ??_C@_0CH@IEOMAMPI@The?5input?5data?5has?5a?5zero?5byte?5@ 000000018006e610     ImageData.obj
 0002:00011640       ??_C@_0GB@KDECOCKL@Expected?5?$CIUint8ClampedArray?0?5wi@ 000000018006e640     ImageData.obj
 0002:000116a4       ??_C@_04PJOLNDGD@data@     000000018006e6a4     ImageData.obj
 0002:000116b0       ??_7ImageData@@6B@         000000018006e6b0     ImageData.obj
 0002:000116c8       ??_C@_0N@OGDOEBIM@cairoVersion@ 000000018006e6c8     init.obj
 0002:000116d8       ??_C@_04PEOOHEKN@?$CFd?$CFc@ 000000018006e6d8     init.obj
 0002:000116e0       ??_C@_02DPKJAMEF@?$CFd@    000000018006e6e0     init.obj
 0002:000116e8       ??_C@_0M@PLCFBBDI@jpegVersion@ 000000018006e6e8     init.obj
 0002:000116f8       ??_C@_08FOJKHHJA@?$CFd?4?$CFd?4?$CFd@ 000000018006e6f8     init.obj
 0002:00011708       ??_C@_0L@KDJIMHFH@gifVersion@ 000000018006e708     init.obj
 0002:00011714       ??_C@_06PPLIDAKB@2?454?44@ 000000018006e714     init.obj
 0002:00011720       ??_C@_0M@KEEKNGNA@rsvgVersion@ 000000018006e720     init.obj
 0002:0001172c       ??_C@_06PEJMMDCG@1?450?49@ 000000018006e72c     init.obj
 0002:00011738       ??_C@_0N@HEPNELH@pangoVersion@ 000000018006e738     init.obj
 0002:00011748       ??_C@_0BA@MCPGPJBI@freetypeVersion@ 000000018006e748     init.obj
 0002:00011758       ??_C@_0CJ@BILPCDG@D?3?2a?2node?9canvas?2node?9canvas?2sr@ 000000018006e758     init.obj
 0002:00011784       ??_C@_06DODEBHEI@canvas@   000000018006e784     init.obj
 0002:0001178c       ??_C@_03BNMJFLDC@MAC@      000000018006e78c     register_font.obj
 0002:00011790       ??_C@_08NLKHJAFK@UTF?916BE@ 000000018006e790     register_font.obj
 0002:0001179c       ??_C@_05EGJIMALK@UTF?98@   000000018006e79c     register_font.obj
 0002:000117a8       ??_C@_08JDDNMFDB@node?4exe@ 000000018006e7a8     win_delay_load_hook.obj
 0002:000117b4       __real@00000000            000000018006e7b4     color.obj
 0002:000117b8       __real@3a800000            000000018006e7b8     CanvasRenderingContext2d.obj
 0002:000117bc       __real@3dcccccd            000000018006e7bc     color.obj
 0002:000117c0       __real@3f000000            000000018006e7c0     CanvasRenderingContext2d.obj
 0002:000117c4       __real@3f13cd36            000000018006e7c4     CanvasRenderingContext2d.obj
 0002:000117c8       __real@3f50000000000000    000000018006e7c8     CanvasRenderingContext2d.obj
 0002:000117d0       __real@3f800000            000000018006e7d0     color.obj
 0002:000117d8       __real@3fe0000000000000    000000018006e7d8     CanvasRenderingContext2d.obj
 0002:000117e0       __real@3fe5555555555555    000000018006e7e0     CanvasRenderingContext2d.obj
 0002:000117e8       __real@3ff0000000000000    000000018006e7e8     CanvasRenderingContext2d.obj
 0002:000117f0       __real@3ff6666666666666    000000018006e7f0     CanvasRenderingContext2d.obj
 0002:000117f8       __real@3ff8000000000000    000000018006e7f8     closure.obj
 0002:00011800       __real@3ff921fb54442d18    000000018006e800     CanvasRenderingContext2d.obj
 0002:00011808       __real@40000000            000000018006e808     color.obj
 0002:00011810       __real@4000000000000000    000000018006e810     CanvasRenderingContext2d.obj
 0002:00011818       __real@400921fb54442d18    000000018006e818     CanvasRenderingContext2d.obj
 0002:00011820       __real@4012d97c7f3321d2    000000018006e820     CanvasRenderingContext2d.obj
 0002:00011828       __real@401921fb54442d18    000000018006e828     CanvasRenderingContext2d.obj
 0002:00011830       __real@40400000            000000018006e830     color.obj
 0002:00011838       __real@4043af5f6fd21ff3    000000018006e838     Canvas.obj
 0002:00011840       __real@4059000000000000    000000018006e840     Canvas.obj
 0002:00011848       __real@406fe00000000000    000000018006e848     color.obj
 0002:00011850       __real@40800000            000000018006e850     color.obj
 0002:00011858       __real@408f400000000000    000000018006e858     Canvas.obj
 0002:00011860       __real@4090000000000000    000000018006e860     CanvasRenderingContext2d.obj
 0002:00011868       __real@40c00000            000000018006e868     color.obj
 0002:00011870       __real@40c4000000000000    000000018006e870     CanvasRenderingContext2d.obj
 0002:00011878       __real@41200000            000000018006e878     color.obj
 0002:0001187c       __real@42c80000            000000018006e87c     color.obj
 0002:00011880       __real@437f0000            000000018006e880     color.obj
 0002:00011884       __real@43b40000            000000018006e884     color.obj
 0002:00011888       __real@43e0000000000000    000000018006e888     closure.obj
 0002:00011890       __real@477fff00            000000018006e890     CanvasRenderingContext2d.obj
 0002:00011894       __real@5f000000            000000018006e894     Canvas.obj
 0002:00011898       __real@7ff0000000000000    000000018006e898     CanvasRenderingContext2d.obj
 0002:000118a0       __real@bff0000000000000    000000018006e8a0     Canvas.obj
 0002:000118a8       __real@c01921fb54442d18    000000018006e8a8     CanvasRenderingContext2d.obj
 0002:000118b0       __real@c0c00000            000000018006e8b0     color.obj
 0002:000118c0       __xmm@000000000000000f0000000000000000 000000018006e8c0     Image.obj
 0002:000118d0       __xmm@3ff00000000000000000000000000000 000000018006e8d0     CanvasRenderingContext2d.obj
 0002:000118e0       __xmm@7fffffffffffffff7fffffffffffffff 000000018006e8e0     CanvasRenderingContext2d.obj
 0002:000118f0       __xmm@80000000000000008000000000000000 000000018006e8f0     CanvasRenderingContext2d.obj
 0002:00011900       __xmm@80000000800000008000000080000000 000000018006e900     CanvasRenderingContext2d.obj
 0002:00011910       __real@3c91a62633145c07    000000018006e910     libucrt:acos.obj
 0002:00011918       __real@3f0951665d321061    000000018006e918     libucrt:acos.obj
 0002:00011920       __real@3f51e5f887a62135    000000018006e920     libucrt:acos.obj
 0002:00011928       __real@3fac28d390c29690    000000018006e928     libucrt:acos.obj
 0002:00011930       __real@3fbb1a422982ce76    000000018006e930     libucrt:acos.obj
 0002:00011938       __real@3fcd1e4180029834    000000018006e938     libucrt:acos.obj
 0002:00011940       __real@3fd1a2bec1b7ef59    000000018006e940     libucrt:acos.obj
 0002:00011948       __real@3fdc7b297e269eac    000000018006e948     libucrt:acos.obj
 0002:00011950       __real@3fee324ab418f78d    000000018006e950     libucrt:acos.obj
 0002:00011958       __real@3ff5d6b12001f228    000000018006e958     libucrt:acos.obj
 0002:00011960       __real@40062021571dccfc    000000018006e960     libucrt:acos.obj
 0002:00011968       __real@400a4646f903cdea    000000018006e968     libucrt:acos.obj
 0002:00011970       ??_C@_05FFFCHCED@acosf@    000000018006e970     libucrt:acosf.obj
 0002:00011978       __real@3b81ce6b            000000018006e978     libucrt:acosf.obj
 0002:0001197c       __real@3d678bdd            000000018006e97c     libucrt:acosf.obj
 0002:00011980       __real@3e3c94dc            000000018006e980     libucrt:acosf.obj
 0002:00011984       __real@3f561f0d            000000018006e984     libucrt:acosf.obj
 0002:00011988       __real@3f8d6fa5            000000018006e988     libucrt:acosf.obj
 0002:0001198c       __real@3fc90fdb            000000018006e98c     libucrt:acosf.obj
 0002:00011990       __real@40490fdb            000000018006e990     libucrt:acosf.obj
 0002:00011994       __real@bc5b3fe1            000000018006e994     libucrt:acosf.obj
 0002:00011998       __real@bf800000            000000018006e998     libucrt:acosf.obj
 0002:00011a20       ??_C@_05OOAOEJGP@fmodf@    000000018006ea20     libucrt:fmodf.obj
 0002:00011a28       ??_C@_05KGFAIMPG@sqrtf@    000000018006ea28     libucrt:sqrtf.obj
 0002:00011ee0       __L_2_by_pi_bits           000000018006eee0     libucrt:l2_by_pi_bits.obj
 0002:00012000       ??_R4exception@std@@6B@    000000018006f000     libcpmt:xthrow.obj
 0002:00012028       ??_R3exception@std@@8      000000018006f028     libcpmt:xthrow.obj
 0002:00012040       ??_R2exception@std@@8      000000018006f040     libcpmt:xthrow.obj
 0002:00012050       ??_R1A@?0A@EA@exception@std@@8 000000018006f050     libcpmt:xthrow.obj
 0002:00012078       ??_R4bad_alloc@std@@6B@    000000018006f078     libcpmt:xthrow.obj
 0002:000120a0       ??_R3bad_alloc@std@@8      000000018006f0a0     libcpmt:xthrow.obj
 0002:000120b8       ??_R2bad_alloc@std@@8      000000018006f0b8     libcpmt:xthrow.obj
 0002:000120d0       ??_R1A@?0A@EA@bad_alloc@std@@8 000000018006f0d0     libcpmt:xthrow.obj
 0002:000120f8       ??_R4bad_function_call@std@@6B@ 000000018006f0f8     libcpmt:xthrow.obj
 0002:00012120       ??_R3bad_function_call@std@@8 000000018006f120     libcpmt:xthrow.obj
 0002:00012138       ??_R2bad_function_call@std@@8 000000018006f138     libcpmt:xthrow.obj
 0002:00012150       ??_R1A@?0A@EA@bad_function_call@std@@8 000000018006f150     libcpmt:xthrow.obj
 0002:00012178       ??_R4logic_error@std@@6B@  000000018006f178     libcpmt:xthrow.obj
 0002:000121a0       ??_R3logic_error@std@@8    000000018006f1a0     libcpmt:xthrow.obj
 0002:000121b8       ??_R2logic_error@std@@8    000000018006f1b8     libcpmt:xthrow.obj
 0002:000121d0       ??_R1A@?0A@EA@logic_error@std@@8 000000018006f1d0     libcpmt:xthrow.obj
 0002:000121f8       ??_R4length_error@std@@6B@ 000000018006f1f8     libcpmt:xthrow.obj
 0002:00012220       ??_R3length_error@std@@8   000000018006f220     libcpmt:xthrow.obj
 0002:00012238       ??_R2length_error@std@@8   000000018006f238     libcpmt:xthrow.obj
 0002:00012258       ??_R1A@?0A@EA@length_error@std@@8 000000018006f258     libcpmt:xthrow.obj
 0002:00012280       ??_R4runtime_error@std@@6B@ 000000018006f280     libcpmt:xthrow.obj
 0002:000122a8       ??_R3runtime_error@std@@8  000000018006f2a8     libcpmt:xthrow.obj
 0002:000122c0       ??_R2runtime_error@std@@8  000000018006f2c0     libcpmt:xthrow.obj
 0002:000122d8       ??_R1A@?0A@EA@runtime_error@std@@8 000000018006f2d8     libcpmt:xthrow.obj
 0002:00012300       ??_R4_Facet_base@std@@6B@  000000018006f300     libcpmt:locale0.obj
 0002:00012328       ??_R3_Facet_base@std@@8    000000018006f328     libcpmt:locale0.obj
 0002:00012340       ??_R2_Facet_base@std@@8    000000018006f340     libcpmt:locale0.obj
 0002:00012350       ??_R1A@?0A@EA@_Facet_base@std@@8 000000018006f350     libcpmt:locale0.obj
 0002:00012378       ??_R4_Locimp@locale@std@@6B@ 000000018006f378     libcpmt:locale0.obj
 0002:000123a0       ??_R3_Locimp@locale@std@@8 000000018006f3a0     libcpmt:locale0.obj
 0002:000123b8       ??_R2_Locimp@locale@std@@8 000000018006f3b8     libcpmt:locale0.obj
 0002:000123e0       ??_R1A@?0A@EA@_Locimp@locale@std@@8 000000018006f3e0     libcpmt:locale0.obj
 0002:00012408       ??_R1A@?0A@EA@facet@locale@std@@8 000000018006f408     libcpmt:locale0.obj
 0002:00012430       ??_R3facet@locale@std@@8   000000018006f430     libcpmt:locale0.obj
 0002:00012448       ??_R2facet@locale@std@@8   000000018006f448     libcpmt:locale0.obj
 0002:00012468       ??_R17?0A@EA@_Crt_new_delete@std@@8 000000018006f468     libcpmt:locale0.obj
 0002:00012490       ??_R3_Crt_new_delete@std@@8 000000018006f490     libcpmt:locale0.obj
 0002:000124a8       ??_R2_Crt_new_delete@std@@8 000000018006f4a8     libcpmt:locale0.obj
 0002:000124b8       ??_R1A@?0A@EA@_Crt_new_delete@std@@8 000000018006f4b8     libcpmt:locale0.obj
 0002:000124e0       ??_R4bad_array_new_length@std@@6B@ 000000018006f4e0     libcpmt:locale.obj
 0002:00012508       ??_R3bad_array_new_length@std@@8 000000018006f508     libcpmt:locale.obj
 0002:00012520       ??_R2bad_array_new_length@std@@8 000000018006f520     libcpmt:locale.obj
 0002:00012540       ??_R1A@?0A@EA@bad_array_new_length@std@@8 000000018006f540     libcpmt:locale.obj
 0002:00012568       ??_R3ctype_base@std@@8     000000018006f568     libcpmt:locale.obj
 0002:00012580       ??_R2ctype_base@std@@8     000000018006f580     libcpmt:locale.obj
 0002:000125a8       ??_R1A@?0A@EA@ctype_base@std@@8 000000018006f5a8     libcpmt:locale.obj
 0002:000125d0       ??_R4?$ctype@D@std@@6B@    000000018006f5d0     libcpmt:locale.obj
 0002:000125f8       ??_R3?$ctype@D@std@@8      000000018006f5f8     libcpmt:locale.obj
 0002:00012610       ??_R2?$ctype@D@std@@8      000000018006f610     libcpmt:locale.obj
 0002:00012640       ??_R1A@?0A@EA@?$ctype@D@std@@8 000000018006f640     libcpmt:locale.obj
 0002:00012668       ??_R4type_info@@6B@        000000018006f668     LIBCMT:std_type_info_static.obj
 0002:00012690       ??_R3type_info@@8          000000018006f690     LIBCMT:std_type_info_static.obj
 0002:000126a8       ??_R2type_info@@8          000000018006f6a8     LIBCMT:std_type_info_static.obj
 0002:000126b8       ??_R1A@?0A@EA@type_info@@8 000000018006f6b8     LIBCMT:std_type_info_static.obj
 0002:000126e0       ??_R4bad_exception@std@@6B@ 000000018006f6e0     libvcruntime:frame.obj
 0002:00012708       ??_R3bad_exception@std@@8  000000018006f708     libvcruntime:frame.obj
 0002:00012720       ??_R2bad_exception@std@@8  000000018006f720     libvcruntime:frame.obj
 0002:00012738       ??_R1A@?0A@EA@bad_exception@std@@8 000000018006f738     libvcruntime:frame.obj
 0002:0001275c       __volatile_metadata        000000018006f75c     <linker-defined>
 0002:00012bd8       __rtc_iaa                  000000018006fbd8     LIBCMT:initsect.obj
 0002:00012be0       __rtc_izz                  000000018006fbe0     LIBCMT:initsect.obj
 0002:00012be8       __rtc_taa                  000000018006fbe8     LIBCMT:initsect.obj
 0002:00012bf0       __rtc_tzz                  000000018006fbf0     LIBCMT:initsect.obj
 0002:00018798       _CT??_R0?AVbad_alloc@std@@@8??0bad_alloc@std@@QEAA@AEBV01@@Z24 0000000180075798     libcpmt:xthrow.obj
 0002:000187c0       _CT??_R0?AVexception@std@@@8??0exception@std@@QEAA@AEBV01@@Z24 00000001800757c0     libcpmt:xthrow.obj
 0002:000187e8       _CT??_R0?AVruntime_error@std@@@8??0runtime_error@std@@QEAA@AEBV01@@Z24 00000001800757e8     libcpmt:xthrow.obj
 0002:00018810       _TI2?AVbad_alloc@std@@     0000000180075810     libcpmt:xthrow.obj
 0002:00018830       _CTA2?AVbad_alloc@std@@    0000000180075830     libcpmt:xthrow.obj
 0002:00018848       _CT??_R0?AVlogic_error@std@@@8??0logic_error@std@@QEAA@AEBV01@@Z24 0000000180075848     libcpmt:xthrow.obj
 0002:00018870       _TI3?AVlength_error@std@@  0000000180075870     libcpmt:xthrow.obj
 0002:00018890       _CTA3?AVlength_error@std@@ 0000000180075890     libcpmt:xthrow.obj
 0002:000188b0       _CT??_R0?AVlength_error@std@@@8??0length_error@std@@QEAA@AEBV01@@Z24 00000001800758b0     libcpmt:xthrow.obj
 0002:000188d8       _TI2?AVruntime_error@std@@ 00000001800758d8     libcpmt:xthrow.obj
 0002:000188f8       _CTA2?AVruntime_error@std@@ 00000001800758f8     libcpmt:xthrow.obj
 0002:00018910       _TI2?AVbad_function_call@std@@ 0000000180075910     libcpmt:xthrow.obj
 0002:00018930       _CTA2?AVbad_function_call@std@@ 0000000180075930     libcpmt:xthrow.obj
 0002:00018948       _CT??_R0?AVbad_function_call@std@@@8??0bad_function_call@std@@QEAA@AEBV01@@Z24 0000000180075948     libcpmt:xthrow.obj
 0002:00018970       _TI3?AVbad_array_new_length@std@@ 0000000180075970     libcpmt:locale.obj
 0002:00018990       _CTA3?AVbad_array_new_length@std@@ 0000000180075990     libcpmt:locale.obj
 0002:000189b0       _CT??_R0?AVbad_array_new_length@std@@@8??0bad_array_new_length@std@@QEAA@AEBV01@@Z24 00000001800759b0     libcpmt:locale.obj
 0002:000189d8       _TI2?AVbad_exception@std@@ 00000001800759d8     libvcruntime:frame.obj
 0002:000189f8       _CTA2?AVbad_exception@std@@ 00000001800759f8     libvcruntime:frame.obj
 0002:00018a10       _CT??_R0?AVbad_exception@std@@@8??0bad_exception@std@@QEAA@AEBV01@@Z24 0000000180075a10     libvcruntime:frame.obj
 0002:00018a38       _CT??_R0?AW4_cairo_status@@@84 0000000180075a38     Canvas.obj
 0002:00018a60       _CTA2PEAD                  0000000180075a60     Canvas.obj
 0002:00018a78       _CT??_R0PEAD@88            0000000180075a78     Canvas.obj
 0002:00018aa0       _TI2PEAD                   0000000180075aa0     Canvas.obj
 0002:00018ac0       _CT??_R0PEAX@88            0000000180075ac0     Canvas.obj
 0002:00018ae8       _CTA1?AW4_cairo_status@@   0000000180075ae8     Canvas.obj
 0002:00018af8       _TI1?AW4_cairo_status@@    0000000180075af8     Canvas.obj
 0002:00018b14       __DELAY_IMPORT_DESCRIPTOR_node_exe 0000000180075b14     node:node.exe
 0002:00018b34       __NULL_DELAY_IMPORT_DESCRIPTOR 0000000180075b34     node:node.exe
 0002:00018ea0       \177node_NULL_THUNK_DATA_DLN 0000000180075ea0     node:node.exe
 0002:0001ab60       \177node_NULL_THUNK_DATA_DLB 0000000180077b60     node:node.exe
 0002:0001b100       __IMPORT_DESCRIPTOR_KERNEL32 0000000180078100     kernel32:KERNEL32.dll
 0002:0001b114       __IMPORT_DESCRIPTOR_GDI32  0000000180078114     gdi32:GDI32.dll
 0002:0001b128       _head_D__a__temp_msys64_mingw64_lib_libcairo_2_lib 0000000180078128     libcairo-2:D__a__temp_msys64_mingw64_lib_libcairo_2_lib_h.o
 0002:0001b13c       _head_D__a__temp_msys64_mingw64_lib_libpng16_16_lib 000000018007813c     libpng16-16:D__a__temp_msys64_mingw64_lib_libpng16_16_lib_h.o
 0002:0001b150       _head_D__a__temp_msys64_mingw64_lib_libjpeg_8_lib 0000000180078150     libjpeg-8:D__a__temp_msys64_mingw64_lib_libjpeg_8_lib_h.o
 0002:0001b164       _head_D__a__temp_msys64_mingw64_lib_libpango_1_0_0_lib 0000000180078164     libpango-1.0-0:D__a__temp_msys64_mingw64_lib_libpango_1_0_0_lib_h.o
 0002:0001b178       _head_D__a__temp_msys64_mingw64_lib_libpangocairo_1_0_0_lib 0000000180078178     libpangocairo-1.0-0:D__a__temp_msys64_mingw64_lib_libpangocairo_1_0_0_lib_h.o
 0002:0001b18c       _head_D__a__temp_msys64_mingw64_lib_libgobject_2_0_0_lib 000000018007818c     libgobject-2.0-0:D__a__temp_msys64_mingw64_lib_libgobject_2_0_0_lib_h.o
 0002:0001b1a0       _head_D__a__temp_msys64_mingw64_lib_libglib_2_0_0_lib 00000001800781a0     libglib-2.0-0:D__a__temp_msys64_mingw64_lib_libglib_2_0_0_lib_h.o
 0002:0001b1b4       _head_D__a__temp_msys64_mingw64_lib_libgif_7_lib 00000001800781b4     libgif-7:D__a__temp_msys64_mingw64_lib_libgif_7_lib_h.o
 0002:0001b1c8       _head_D__a__temp_msys64_mingw64_lib_libfreetype_6_lib 00000001800781c8     libfreetype-6:D__a__temp_msys64_mingw64_lib_libfreetype_6_lib_h.o
 0002:0001b1dc       _head_D__a__temp_msys64_mingw64_lib_librsvg_2_2_lib 00000001800781dc     librsvg-2-2:D__a__temp_msys64_mingw64_lib_librsvg_2_2_lib_h.o
 0002:0001b1f0       __NULL_IMPORT_DESCRIPTOR   00000001800781f0     kernel32:KERNEL32.dll
 0002:0001d784       __D__a__temp_msys64_mingw64_lib_libcairo_2_lib_iname 000000018007a784     libcairo-2:D__a__temp_msys64_mingw64_lib_libcairo_2_lib_t.o
 0002:0001d7f4       __D__a__temp_msys64_mingw64_lib_libpng16_16_lib_iname 000000018007a7f4     libpng16-16:D__a__temp_msys64_mingw64_lib_libpng16_16_lib_t.o
 0002:0001d84c       __D__a__temp_msys64_mingw64_lib_libjpeg_8_lib_iname 000000018007a84c     libjpeg-8:D__a__temp_msys64_mingw64_lib_libjpeg_8_lib_t.o
 0002:0001d8c4       __D__a__temp_msys64_mingw64_lib_libpango_1_0_0_lib_iname 000000018007a8c4     libpango-1.0-0:D__a__temp_msys64_mingw64_lib_libpango_1_0_0_lib_t.o
 0002:0001d8ec       __D__a__temp_msys64_mingw64_lib_libpangocairo_1_0_0_lib_iname 000000018007a8ec     libpangocairo-1.0-0:D__a__temp_msys64_mingw64_lib_libpangocairo_1_0_0_lib_t.o
 0002:0001d908       __D__a__temp_msys64_mingw64_lib_libgobject_2_0_0_lib_iname 000000018007a908     libgobject-2.0-0:D__a__temp_msys64_mingw64_lib_libgobject_2_0_0_lib_t.o
 0002:0001d928       __D__a__temp_msys64_mingw64_lib_libglib_2_0_0_lib_iname 000000018007a928     libglib-2.0-0:D__a__temp_msys64_mingw64_lib_libglib_2_0_0_lib_t.o
 0002:0001d948       __D__a__temp_msys64_mingw64_lib_libgif_7_lib_iname 000000018007a948     libgif-7:D__a__temp_msys64_mingw64_lib_libgif_7_lib_t.o
 0002:0001d974       __D__a__temp_msys64_mingw64_lib_libfreetype_6_lib_iname 000000018007a974     libfreetype-6:D__a__temp_msys64_mingw64_lib_libfreetype_6_lib_t.o
 0002:0001d994       __D__a__temp_msys64_mingw64_lib_librsvg_2_2_lib_iname 000000018007a994     librsvg-2-2:D__a__temp_msys64_mingw64_lib_librsvg_2_2_lib_t.o
 0003:00000004       ?_Sync@ios_base@std@@0_NA  000000018007b004     libcpmt:ios.obj
 0003:00000010       __scrt_native_dllmain_reason 000000018007b010     LIBCMT:utility.obj
 0003:00000018       __security_cookie_complement 000000018007b018     LIBCMT:gs_cookie.obj
 0003:00000020       __security_cookie          000000018007b020     LIBCMT:gs_cookie.obj
 0003:00000028       _fltused                   000000018007b028     LIBCMT:fltused.obj
 0003:00000030       __isa_available            000000018007b030     LIBCMT:cpu_disp.obj
 0003:00000034       __isa_enabled              000000018007b034     LIBCMT:cpu_disp.obj
 0003:00000038       __memcpy_nt_iters          000000018007b038     LIBCMT:cpu_disp.obj
 0003:00000040       __memset_nt_iters          000000018007b040     LIBCMT:cpu_disp.obj
 0003:00000060       __abort_behavior           000000018007b060     libucrt:abort.obj
 0003:00000070       _iob                       000000018007b070     libucrt:_file.obj
 0003:00000180       _pctype                    000000018007b180     libucrt:ctype.obj
 0003:00000188       _pwctype                   000000018007b188     libucrt:ctype.obj
 0003:00000190       __acrt_lconv_c             000000018007b190     libucrt:localeconv.obj
 0003:00000228       __acrt_lconv               000000018007b228     libucrt:localeconv.obj
 0003:00000230       __acrt_lconv_static_decimal 000000018007b230     libucrt:localeconv.obj
 0003:00000234       __acrt_lconv_static_W_decimal 000000018007b234     libucrt:localeconv.obj
 0003:00000250       __acrt_initial_locale_data 000000018007b250     libucrt:nlsdata.obj
 0003:000003a8       __acrt_initial_locale_pointers 000000018007b3a8     libucrt:nlsdata.obj
 0003:000003b8       __acrt_wide_c_locale_string 000000018007b3b8     libucrt:nlsdata.obj
 0003:000003bc       __mb_cur_max               000000018007b3bc     libucrt:nlsdata.obj
 0003:000003c0       __badioinfo                000000018007b3c0     libucrt:ioinit.obj
 0003:00000410       _lookuptrailbytes          000000018007b410     libucrt:read.obj
 0003:00000510       __globallocalestatus       000000018007b510     libucrt:glstatus.obj
 0003:000006e0       __acrt_initial_multibyte_data 000000018007b6e0     libucrt:mbctype.obj
 0003:00000c30       ?_Static@?1???$_Immortalize_memcpy_image@V_Iostream_error_category2@std@@@std@@YAAEBV_Iostream_error_category2@1@XZ@4U?$_Constexpr_immortalize_impl@V_Iostream_error_category2@std@@@1@A 000000018007bc30     Canvas.obj
 0003:00000c80       ??_R0?AVbad_alloc@std@@@8  000000018007bc80     libcpmt:xthrow.obj
 0003:00000ca8       ??_R0?AVexception@std@@@8  000000018007bca8     libcpmt:xthrow.obj
 0003:00000cd0       ??_R0?AVruntime_error@std@@@8 000000018007bcd0     libcpmt:xthrow.obj
 0003:00000cf8       ??_R0?AVlogic_error@std@@@8 000000018007bcf8     libcpmt:xthrow.obj
 0003:00000d20       ??_R0?AVlength_error@std@@@8 000000018007bd20     libcpmt:xthrow.obj
 0003:00000d48       ??_R0?AVbad_function_call@std@@@8 000000018007bd48     libcpmt:xthrow.obj
 0003:00000d78       ??_R0?AVbad_array_new_length@std@@@8 000000018007bd78     libcpmt:locale.obj
 0003:00000da8       ??_R0?AVbad_exception@std@@@8 000000018007bda8     libvcruntime:frame.obj
 0003:00000dd0       ??_R0?AVbad_alloc@stdext@@@8 000000018007bdd0     PdfBackend.obj
 0003:00000df8       ??_R0?AW4_cairo_status@@@8 000000018007bdf8     Canvas.obj
 0003:00000e20       ??_R0PEAD@8                000000018007be20     Canvas.obj
 0003:00000e38       ??_R0PEAX@8                000000018007be38     Canvas.obj
 0003:00000f10       ??_R0?AV_Facet_base@std@@@8 000000018007bf10     libcpmt:locale0.obj
 0003:00000f38       ??_R0?AV_Locimp@locale@std@@@8 000000018007bf38     libcpmt:locale0.obj
 0003:00000f68       ??_R0?AVfacet@locale@std@@@8 000000018007bf68     libcpmt:locale0.obj
 0003:00000f90       ??_R0?AU_Crt_new_delete@std@@@8 000000018007bf90     libcpmt:locale0.obj
 0003:00000fc0       ??_R0?AUctype_base@std@@@8 000000018007bfc0     libcpmt:locale.obj
 0003:00000fe8       ??_R0?AV?$ctype@D@std@@@8  000000018007bfe8     libcpmt:locale.obj
 0003:00001010       ??_R0?AVtype_info@@@8      000000018007c010     LIBCMT:std_type_info_static.obj
 0003:00001030       __imp_?GetCurrentContext@Isolate@v8@@QEAA?AV?$Local@VContext@v8@@@2@XZ 000000018007c030     node:node.exe
 0003:00001038       __imp_?GetCurrent@Isolate@v8@@SAPEAV12@XZ 000000018007c038     node:node.exe
 0003:00001040       __imp_??1HandleScope@v8@@QEAA@XZ 000000018007c040     node:node.exe
 0003:00001048       __imp_??0HandleScope@v8@@QEAA@PEAVIsolate@1@@Z 000000018007c048     node:node.exe
 0003:00001050       __imp_?ClearWeak@V8@v8@@CAPEAXPEAPEAVObject@internal@2@@Z 000000018007c050     node:node.exe
 0003:00001058       __imp_?MakeWeak@V8@v8@@CAXPEAPEAVObject@internal@2@PEAXP6AXAEBV?$WeakCallbackInfo@X@2@@ZW4WeakCallbackType@2@@Z 000000018007c058     node:node.exe
 0003:00001060       __imp_?DisposeGlobal@V8@v8@@CAXPEAPEAVObject@internal@2@@Z 000000018007c060     node:node.exe
 0003:00001068       __imp_?GlobalizeReference@V8@v8@@CAPEAPEAVObject@internal@2@PEAVIsolate@42@PEAPEAV342@@Z 000000018007c068     node:node.exe
 0003:00001070       __imp_?Uint32Value@Value@v8@@QEBA?AV?$Maybe@I@2@V?$Local@VContext@v8@@@2@@Z 000000018007c070     node:node.exe
 0003:00001078       __imp_?IsNumber@Value@v8@@QEBA_NXZ 000000018007c078     node:node.exe
 0003:00001080       __imp_?SetAlignedPointerInInternalField@Object@v8@@QEAAXHPEAX@Z 000000018007c080     node:node.exe
 0003:00001088       __imp_?InternalFieldCount@Object@v8@@QEAAHXZ 000000018007c088     node:node.exe
 0003:00001090       __imp_?Value@External@v8@@QEBAPEAXXZ 000000018007c090     node:node.exe
 0003:00001098       __imp_?New@External@v8@@SA?AV?$Local@VExternal@v8@@@2@PEAVIsolate@2@PEAX@Z 000000018007c098     node:node.exe
 0003:000010a0       __imp_?CheckMemoryPressure@Isolate@v8@@AEAAXXZ 000000018007c0a0     node:node.exe
 0003:000010a8       __imp_?ReportExternalAllocationLimitReached@Isolate@v8@@AEAAXXZ 000000018007c0a8     node:node.exe
 0003:000010b0       __imp_?CreateHandle@HandleScope@v8@@KAPEAPEAVObject@internal@2@PEAVIsolate@42@PEAV342@@Z 000000018007c0b0     node:node.exe
 0003:000010b8       __imp_?CreateHandle@HandleScope@v8@@CAPEAPEAVObject@internal@2@PEAVHeapObject@42@PEAV342@@Z 000000018007c0b8     node:node.exe
 0003:000010c0       __imp_?SetClassName@FunctionTemplate@v8@@QEAAXV?$Local@VString@v8@@@2@@Z 000000018007c0c0     node:node.exe
 0003:000010c8       __imp_?InstanceTemplate@FunctionTemplate@v8@@QEAA?AV?$Local@VObjectTemplate@v8@@@2@XZ 000000018007c0c8     node:node.exe
 0003:000010d0       __imp_?GetFunction@FunctionTemplate@v8@@QEAA?AV?$MaybeLocal@VFunction@v8@@@2@V?$Local@VContext@v8@@@2@@Z 000000018007c0d0     node:node.exe
 0003:000010d8       __imp_?New@FunctionTemplate@v8@@SA?AV?$Local@VFunctionTemplate@v8@@@2@PEAVIsolate@2@P6AXAEBV?$FunctionCallbackInfo@VValue@v8@@@2@@ZV?$Local@VValue@v8@@@2@V?$Local@VSignature@v8@@@2@HW4ConstructorBehavior@2@W4SideEffectType@2@@Z 000000018007c0d8     node:node.exe
 0003:000010e0       __imp_?ToLocalEmpty@V8@v8@@CAXXZ 000000018007c0e0     node:node.exe
 0003:000010e8       __imp_?Escape@EscapableHandleScope@v8@@AEAAPEAPEAVObject@internal@2@PEAPEAV342@@Z 000000018007c0e8     node:node.exe
 0003:000010f0       __imp_??0EscapableHandleScope@v8@@QEAA@PEAVIsolate@1@@Z 000000018007c0f0     node:node.exe
 0003:000010f8       __imp_?NewFromUtf8@String@v8@@SA?AV?$MaybeLocal@VString@v8@@@2@PEAVIsolate@2@PEBDW4NewStringType@2@H@Z 000000018007c0f8     node:node.exe
 0003:00001100       __imp_?SlowGetInternalField@Object@v8@@AEAA?AV?$Local@VValue@v8@@@2@H@Z 000000018007c100     node:node.exe
 0003:00001108       __imp_?SetInternalField@Object@v8@@QEAAXHV?$Local@VValue@v8@@@2@@Z 000000018007c108     node:node.exe
 0003:00001110       __imp_?Set@Object@v8@@QEAA?AV?$Maybe@_N@2@V?$Local@VContext@v8@@@2@V?$Local@VValue@v8@@@2@1@Z 000000018007c110     node:node.exe
 0003:00001118       __imp_?SetInternalFieldCount@ObjectTemplate@v8@@QEAAXH@Z 000000018007c118     node:node.exe
 0003:00001120       __imp_?NewInstance@ObjectTemplate@v8@@QEAA?AV?$MaybeLocal@VObject@v8@@@2@V?$Local@VContext@v8@@@2@@Z 000000018007c120     node:node.exe
 0003:00001128       __imp_?New@ObjectTemplate@v8@@SA?AV?$Local@VObjectTemplate@v8@@@2@PEAVIsolate@2@V?$Local@VFunctionTemplate@v8@@@2@@Z 000000018007c128     node:node.exe
 0003:00001130       __imp_??1EscapableHandleScope@v8@@QEAA@XZ 000000018007c130     node:node.exe
 0003:00001138       __imp_?New@Object@v8@@SA?AV?$Local@VObject@v8@@@2@PEAVIsolate@2@@Z 000000018007c138     node:node.exe
 0003:00001140       __imp_uv_queue_work        000000018007c140     node:node.exe
 0003:00001148       __imp_?GetIsolate@Context@v8@@QEAAPEAVIsolate@2@XZ 000000018007c148     node:node.exe
 0003:00001150       __imp_?Global@Context@v8@@QEAA?AV?$Local@VObject@v8@@@2@XZ 000000018007c150     node:node.exe
 0003:00001158       __imp_?NewFromUnsigned@Integer@v8@@SA?AV?$Local@VInteger@v8@@@2@PEAVIsolate@2@I@Z 000000018007c158     node:node.exe
 0003:00001160       __imp_?New@Signature@v8@@SA?AV?$Local@VSignature@v8@@@2@PEAVIsolate@2@V?$Local@VFunctionTemplate@v8@@@2@@Z 000000018007c160     node:node.exe
 0003:00001168       __imp_?ThrowException@Isolate@v8@@QEAA?AV?$Local@VValue@v8@@@2@V32@@Z 000000018007c168     node:node.exe
 0003:00001170       __imp_?Length@TypedArray@v8@@QEAA_KXZ 000000018007c170     node:node.exe
 0003:00001178       __imp_?Set@Template@v8@@QEAAXV?$Local@VName@v8@@@2@V?$Local@VData@v8@@@2@W4PropertyAttribute@2@@Z 000000018007c178     node:node.exe
 0003:00001180       __imp_?ByteLength@ArrayBufferView@v8@@QEAA_KXZ 000000018007c180     node:node.exe
 0003:00001188       __imp_?ByteOffset@ArrayBufferView@v8@@QEAA_KXZ 000000018007c188     node:node.exe
 0003:00001190       __imp_?Buffer@ArrayBufferView@v8@@QEAA?AV?$Local@VArrayBuffer@v8@@@2@XZ 000000018007c190     node:node.exe
 0003:00001198       __imp_?Error@Exception@v8@@SA?AV?$Local@VValue@v8@@@2@V?$Local@VString@v8@@@2@@Z 000000018007c198     node:node.exe
 0003:000011a0       __imp_?TypeError@Exception@v8@@SA?AV?$Local@VValue@v8@@@2@V?$Local@VString@v8@@@2@@Z 000000018007c1a0     node:node.exe
 0003:000011a8       __imp_?New@AccessorSignature@v8@@SA?AV?$Local@VAccessorSignature@v8@@@2@PEAVIsolate@2@V?$Local@VFunctionTemplate@v8@@@2@@Z 000000018007c1a8     node:node.exe
 0003:000011b0       __imp_?ValueOf@Date@v8@@QEBANXZ 000000018007c1b0     node:node.exe
 0003:000011b8       __imp_?HasInstance@FunctionTemplate@v8@@QEAA_NV?$Local@VValue@v8@@@2@@Z 000000018007c1b8     node:node.exe
 0003:000011c0       __imp_?PrototypeTemplate@FunctionTemplate@v8@@QEAA?AV?$Local@VObjectTemplate@v8@@@2@XZ 000000018007c1c0     node:node.exe
 0003:000011c8       __imp_?GetContents@ArrayBuffer@v8@@QEAA?AVContents@12@XZ 000000018007c1c8     node:node.exe
 0003:000011d0       __imp_?StrictEquals@Value@v8@@QEBA_NV?$Local@VValue@v8@@@2@@Z 000000018007c1d0     node:node.exe
 0003:000011d8       __imp_?NumberValue@Value@v8@@QEBA?AV?$Maybe@N@2@V?$Local@VContext@v8@@@2@@Z 000000018007c1d8     node:node.exe
 0003:000011e0       __imp_?BooleanValue@Value@v8@@QEBA?AV?$Maybe@_N@2@V?$Local@VContext@v8@@@2@@Z 000000018007c1e0     node:node.exe
 0003:000011e8       __imp_?ToUint32@Value@v8@@QEBA?AV?$MaybeLocal@VUint32@v8@@@2@V?$Local@VContext@v8@@@2@@Z 000000018007c1e8     node:node.exe
 0003:000011f0       __imp_?ToObject@Value@v8@@QEBA?AV?$MaybeLocal@VObject@v8@@@2@V?$Local@VContext@v8@@@2@@Z 000000018007c1f0     node:node.exe
 0003:000011f8       __imp_?ToString@Value@v8@@QEBA?AV?$MaybeLocal@VString@v8@@@2@V?$Local@VContext@v8@@@2@@Z 000000018007c1f8     node:node.exe
 0003:00001200       __imp_?IsUint8ClampedArray@Value@v8@@QEBA_NXZ 000000018007c200     node:node.exe
 0003:00001208       __imp_?IsArrayBufferView@Value@v8@@QEBA_NXZ 000000018007c208     node:node.exe
 0003:00001210       __imp_?IsDate@Value@v8@@QEBA_NXZ 000000018007c210     node:node.exe
 0003:00001218       __imp_?IsUint32@Value@v8@@QEBA_NXZ 000000018007c218     node:node.exe
 0003:00001220       __imp_?IsBoolean@Value@v8@@QEBA_NXZ 000000018007c220     node:node.exe
 0003:00001228       __imp_?IsObject@Value@v8@@QEBA_NXZ 000000018007c228     node:node.exe
 0003:00001230       __imp_?IsFunction@Value@v8@@QEBA_NXZ 000000018007c230     node:node.exe
 0003:00001238       __imp_?ReThrow@TryCatch@v8@@QEAA?AV?$Local@VValue@v8@@@2@XZ 000000018007c238     node:node.exe
 0003:00001240       __imp_?HasCaught@TryCatch@v8@@QEBA_NXZ 000000018007c240     node:node.exe
 0003:00001248       __imp_??1TryCatch@v8@@QEAA@XZ 000000018007c248     node:node.exe
 0003:00001250       __imp_??0TryCatch@v8@@QEAA@PEAVIsolate@1@@Z 000000018007c250     node:node.exe
 0003:00001258       __imp_?WriteUtf8@String@v8@@QEBAHPEADHPEAHH@Z 000000018007c258     node:node.exe
 0003:00001260       __imp_?Length@String@v8@@QEBAHXZ 000000018007c260     node:node.exe
 0003:00001268       __imp_?New@Number@v8@@SA?AV?$Local@VNumber@v8@@@2@PEAVIsolate@2@N@Z 000000018007c268     node:node.exe
 0003:00001270       __imp_?SlowGetAlignedPointerFromInternalField@Object@v8@@AEAAPEAXH@Z 000000018007c270     node:node.exe
 0003:00001278       __imp_?Get@Object@v8@@QEAA?AV?$MaybeLocal@VValue@v8@@@2@V?$Local@VContext@v8@@@2@V?$Local@VValue@v8@@@2@@Z 000000018007c278     node:node.exe
 0003:00001280       __imp_?Call@Function@v8@@QEAA?AV?$MaybeLocal@VValue@v8@@@2@V?$Local@VContext@v8@@@2@V?$Local@VValue@v8@@@2@HQEAV52@@Z 000000018007c280     node:node.exe
 0003:00001288       __imp_?SetAccessor@ObjectTemplate@v8@@QEAAXV?$Local@VName@v8@@@2@P6AX0AEBV?$PropertyCallbackInfo@VValue@v8@@@2@@ZP6AX0V?$Local@VValue@v8@@@2@AEBV?$PropertyCallbackInfo@X@2@@Z3W4AccessControl@2@W4PropertyAttribute@2@V?$Local@VAccessorSignature@v8@@@2@@Z 000000018007c288     node:node.exe
 0003:00001290       __imp_?EmitAsyncDestroy@node@@YAXPEAVIsolate@v8@@Uasync_context@1@@Z 000000018007c290     node:node.exe
 0003:00001298       __imp_?New@Buffer@node@@YA?AV?$MaybeLocal@VObject@v8@@@v8@@PEAVIsolate@4@PEAD_KP6AX1PEAX@Z3@Z 000000018007c298     node:node.exe
 0003:000012a0       __imp_?New@Buffer@node@@YA?AV?$MaybeLocal@VObject@v8@@@v8@@PEAVIsolate@4@PEAD_K@Z 000000018007c2a0     node:node.exe
 0003:000012a8       __imp_?Copy@Buffer@node@@YA?AV?$MaybeLocal@VObject@v8@@@v8@@PEAVIsolate@4@PEBD_K@Z 000000018007c2a8     node:node.exe
 0003:000012b0       __imp_?MakeCallback@node@@YA?AV?$MaybeLocal@VValue@v8@@@v8@@PEAVIsolate@3@V?$Local@VObject@v8@@@3@V?$Local@VFunction@v8@@@3@HPEAV?$Local@VValue@v8@@@3@Uasync_context@1@@Z 000000018007c2b0     node:node.exe
 0003:000012b8       __imp_?EmitAsyncInit@node@@YA?AUasync_context@1@PEAVIsolate@v8@@V?$Local@VObject@v8@@@4@V?$Local@VString@v8@@@4@N@Z 000000018007c2b8     node:node.exe
 0003:000012c0       __imp_uv_default_loop      000000018007c2c0     node:node.exe
 0003:000012c8       __imp_?FromJustIsNothing@V8@v8@@CAXXZ 000000018007c2c8     node:node.exe
 0003:000012d0       __imp_?InstanceOf@Value@v8@@QEAA?AV?$Maybe@_N@2@V?$Local@VContext@v8@@@2@V?$Local@VObject@v8@@@2@@Z 000000018007c2d0     node:node.exe
 0003:000012d8       __imp_?New@Function@v8@@SA?AV?$MaybeLocal@VFunction@v8@@@2@V?$Local@VContext@v8@@@2@P6AXAEBV?$FunctionCallbackInfo@VValue@v8@@@2@@ZV?$Local@VValue@v8@@@2@HW4ConstructorBehavior@2@W4SideEffectType@2@@Z 000000018007c2d8     node:node.exe
 0003:000012e0       __imp_?New@Uint8ClampedArray@v8@@SA?AV?$Local@VUint8ClampedArray@v8@@@2@V?$Local@VArrayBuffer@v8@@@2@_K1@Z 000000018007c2e0     node:node.exe
 0003:000012e8       __imp_?New@Integer@v8@@SA?AV?$Local@VInteger@v8@@@2@PEAVIsolate@2@H@Z 000000018007c2e8     node:node.exe
 0003:000012f0       __imp_?RangeError@Exception@v8@@SA?AV?$Local@VValue@v8@@@2@V?$Local@VString@v8@@@2@@Z 000000018007c2f0     node:node.exe
 0003:000012f8       __imp_?New@Array@v8@@SA?AV?$Local@VArray@v8@@@2@PEAVIsolate@2@H@Z 000000018007c2f8     node:node.exe
 0003:00001300       __imp_?Length@Array@v8@@QEBAIXZ 000000018007c300     node:node.exe
 0003:00001308       __imp_?New@ArrayBuffer@v8@@SA?AV?$Local@VArrayBuffer@v8@@@2@PEAVIsolate@2@_K@Z 000000018007c308     node:node.exe
 0003:00001310       __imp_?Int32Value@Value@v8@@QEBA?AV?$Maybe@H@2@V?$Local@VContext@v8@@@2@@Z 000000018007c310     node:node.exe
 0003:00001318       __imp_?ToInt32@Value@v8@@QEBA?AV?$MaybeLocal@VInt32@v8@@@2@V?$Local@VContext@v8@@@2@@Z 000000018007c318     node:node.exe
 0003:00001320       __imp_?IsArray@Value@v8@@QEBA_NXZ 000000018007c320     node:node.exe
 0003:00001328       __imp_?New@Float64Array@v8@@SA?AV?$Local@VFloat64Array@v8@@@2@V?$Local@VArrayBuffer@v8@@@2@_K1@Z 000000018007c328     node:node.exe
 0003:00001330       __imp_?New@Uint16Array@v8@@SA?AV?$Local@VUint16Array@v8@@@2@V?$Local@VArrayBuffer@v8@@@2@_K1@Z 000000018007c330     node:node.exe
 0003:00001338       __imp_?Get@Object@v8@@QEAA?AV?$MaybeLocal@VValue@v8@@@2@V?$Local@VContext@v8@@@2@I@Z 000000018007c338     node:node.exe
 0003:00001340       __imp_?NewInstance@Function@v8@@QEBA?AV?$MaybeLocal@VObject@v8@@@2@V?$Local@VContext@v8@@@2@HQEAV?$Local@VValue@v8@@@2@@Z 000000018007c340     node:node.exe
 0003:00001348       __imp_?HasInstance@Buffer@node@@YA_NV?$Local@VValue@v8@@@v8@@@Z 000000018007c348     node:node.exe
 0003:00001350       __imp_?Data@Buffer@node@@YAPEADV?$Local@VObject@v8@@@v8@@@Z 000000018007c350     node:node.exe
 0003:00001358       __imp_?Length@Buffer@node@@YA_KV?$Local@VObject@v8@@@v8@@@Z 000000018007c358     node:node.exe
 0003:00001360       __imp_?ErrnoException@node@@YA?AV?$Local@VValue@v8@@@v8@@PEAVIsolate@3@HPEBD11@Z 000000018007c360     node:node.exe
 0003:00001368       __imp_?IsUint16Array@Value@v8@@QEBA_NXZ 000000018007c368     node:node.exe
 0003:00001370       __imp_node_module_register 000000018007c370     node:node.exe
 0003:00001378       \177node_NULL_THUNK_DATA_DLA 000000018007c378     node:node.exe
 0003:00001380       __hmod__node_exe           000000018007c380     node:node.exe
 0003:00001390       ?_Raise_handler@std@@3P6AXAEBVexception@stdext@@@ZEA 000000018007c390     libcpmt:raisehan.obj
 0003:000014f0       ?_Id_cnt@id@locale@std@@0HA 000000018007c4f0     libcpmt:locale0.obj
 0003:000014f8       ?_Clocptr@_Locimp@locale@std@@0PEAV123@EA 000000018007c4f8     libcpmt:locale0.obj
 0003:00001500       ?id@?$ctype@_W@std@@2V0locale@2@A 000000018007c500     libcpmt:locale0.obj
 0003:00001508       ?id@?$ctype@D@std@@2V0locale@2@A 000000018007c508     libcpmt:locale0.obj
 0003:00001510       ?id@?$codecvt@GDU_Mbstatet@@@std@@2V0locale@2@A 000000018007c510     libcpmt:locale0.obj
 0003:00001518       ?id@?$ctype@G@std@@2V0locale@2@A 000000018007c518     libcpmt:locale0.obj
 0003:00001530       ?id@?$codecvt@_WDU_Mbstatet@@@std@@2V0locale@2@A 000000018007c530     libcpmt:locale0.obj
 0003:00001560       ?_Index@ios_base@std@@0HA  000000018007c560     libcpmt:ios.obj
 0003:000015d0       ?id@?$num_get@DV?$istreambuf_iterator@DU?$char_traits@D@std@@@std@@@std@@2V0locale@2@A 000000018007c5d0     libcpmt:locale.obj
 0003:000015d8       ?id@?$num_put@DV?$ostreambuf_iterator@DU?$char_traits@D@std@@@std@@@std@@2V0locale@2@A 000000018007c5d8     libcpmt:locale.obj
 0003:000015e0       ?id@?$numpunct@D@std@@2V0locale@2@A 000000018007c5e0     libcpmt:locale.obj
 0003:000015e8       ?id@?$codecvt@DDU_Mbstatet@@@std@@2V0locale@2@A 000000018007c5e8     libcpmt:locale.obj
 0003:000015f0       ?_Ptr_cin@std@@3PEAV?$basic_istream@DU?$char_traits@D@std@@@1@EA 000000018007c5f0     libcpmt:iosptrs.obj
 0003:000015f8       ?_Ptr_cout@std@@3PEAV?$basic_ostream@DU?$char_traits@D@std@@@1@EA 000000018007c5f8     libcpmt:iosptrs.obj
 0003:00001600       ?_Ptr_cerr@std@@3PEAV?$basic_ostream@DU?$char_traits@D@std@@@1@EA 000000018007c600     libcpmt:iosptrs.obj
 0003:00001608       ?_Ptr_clog@std@@3PEAV?$basic_ostream@DU?$char_traits@D@std@@@1@EA 000000018007c608     libcpmt:iosptrs.obj
 0003:00001610       ?_Ptr_wcin@std@@3PEAV?$basic_istream@_WU?$char_traits@_W@std@@@1@EA 000000018007c610     libcpmt:iosptrs.obj
 0003:00001618       ?_Ptr_wcout@std@@3PEAV?$basic_ostream@_WU?$char_traits@_W@std@@@1@EA 000000018007c618     libcpmt:iosptrs.obj
 0003:00001620       ?_Ptr_wcerr@std@@3PEAV?$basic_ostream@_WU?$char_traits@_W@std@@@1@EA 000000018007c620     libcpmt:iosptrs.obj
 0003:00001628       ?_Ptr_wclog@std@@3PEAV?$basic_ostream@_WU?$char_traits@_W@std@@@1@EA 000000018007c628     libcpmt:iosptrs.obj
 0003:00001690       ?id@?$time_put@_WV?$ostreambuf_iterator@_WU?$char_traits@_W@std@@@std@@@std@@2V0locale@2@A 000000018007c690     libcpmt:wlocale.obj
 0003:00001698       ?id@?$num_get@_WV?$istreambuf_iterator@_WU?$char_traits@_W@std@@@std@@@std@@2V0locale@2@A 000000018007c698     libcpmt:wlocale.obj
 0003:000016a0       ?id@?$num_put@_WV?$ostreambuf_iterator@_WU?$char_traits@_W@std@@@std@@@std@@2V0locale@2@A 000000018007c6a0     libcpmt:wlocale.obj
 0003:000016a8       ?id@?$numpunct@_W@std@@2V0locale@2@A 000000018007c6a8     libcpmt:wlocale.obj
 0003:000016b0       ?id@?$collate@_W@std@@2V0locale@2@A 000000018007c6b0     libcpmt:wlocale.obj
 0003:000016b8       ?id@?$messages@_W@std@@2V0locale@2@A 000000018007c6b8     libcpmt:wlocale.obj
 0003:000016c0       ?id@?$money_get@_WV?$istreambuf_iterator@_WU?$char_traits@_W@std@@@std@@@std@@2V0locale@2@A 000000018007c6c0     libcpmt:wlocale.obj
 0003:000016c8       ?id@?$money_put@_WV?$ostreambuf_iterator@_WU?$char_traits@_W@std@@@std@@@std@@2V0locale@2@A 000000018007c6c8     libcpmt:wlocale.obj
 0003:000016d0       ?id@?$moneypunct@_W$0A@@std@@2V0locale@2@A 000000018007c6d0     libcpmt:wlocale.obj
 0003:000016d8       ?id@?$moneypunct@_W$00@std@@2V0locale@2@A 000000018007c6d8     libcpmt:wlocale.obj
 0003:000016e0       ?id@?$time_get@_WV?$istreambuf_iterator@_WU?$char_traits@_W@std@@@std@@@std@@2V0locale@2@A 000000018007c6e0     libcpmt:wlocale.obj
 0003:000016e8       ?id@?$num_get@GV?$istreambuf_iterator@GU?$char_traits@G@std@@@std@@@std@@2V0locale@2@A 000000018007c6e8     libcpmt:wlocale.obj
 0003:000016f0       ?id@?$num_put@GV?$ostreambuf_iterator@GU?$char_traits@G@std@@@std@@@std@@2V0locale@2@A 000000018007c6f0     libcpmt:wlocale.obj
 0003:000016f8       ?id@?$numpunct@G@std@@2V0locale@2@A 000000018007c6f8     libcpmt:wlocale.obj
 0003:00001700       ?id@?$collate@G@std@@2V0locale@2@A 000000018007c700     libcpmt:wlocale.obj
 0003:00001708       ?id@?$messages@G@std@@2V0locale@2@A 000000018007c708     libcpmt:wlocale.obj
 0003:00001710       ?id@?$money_get@GV?$istreambuf_iterator@GU?$char_traits@G@std@@@std@@@std@@2V0locale@2@A 000000018007c710     libcpmt:wlocale.obj
 0003:00001718       ?id@?$money_put@GV?$ostreambuf_iterator@GU?$char_traits@G@std@@@std@@@std@@2V0locale@2@A 000000018007c718     libcpmt:wlocale.obj
 0003:00001720       ?id@?$moneypunct@G$0A@@std@@2V0locale@2@A 000000018007c720     libcpmt:wlocale.obj
 0003:00001728       ?id@?$moneypunct@G$00@std@@2V0locale@2@A 000000018007c728     libcpmt:wlocale.obj
 0003:00001730       ?id@?$time_get@GV?$istreambuf_iterator@GU?$char_traits@G@std@@@std@@@std@@2V0locale@2@A 000000018007c730     libcpmt:wlocale.obj
 0003:00001738       ?id@?$time_put@GV?$ostreambuf_iterator@GU?$char_traits@G@std@@@std@@@std@@2V0locale@2@A 000000018007c738     libcpmt:wlocale.obj
 0003:00001740       ?id@?$collate@D@std@@2V0locale@2@A 000000018007c740     libcpmt:xlocale.obj
 0003:00001748       ?id@?$messages@D@std@@2V0locale@2@A 000000018007c748     libcpmt:xlocale.obj
 0003:00001750       ?id@?$money_get@DV?$istreambuf_iterator@DU?$char_traits@D@std@@@std@@@std@@2V0locale@2@A 000000018007c750     libcpmt:xlocale.obj
 0003:00001758       ?id@?$money_put@DV?$ostreambuf_iterator@DU?$char_traits@D@std@@@std@@@std@@2V0locale@2@A 000000018007c758     libcpmt:xlocale.obj
 0003:00001760       ?id@?$moneypunct@D$0A@@std@@2V0locale@2@A 000000018007c760     libcpmt:xlocale.obj
 0003:00001768       ?id@?$moneypunct@D$00@std@@2V0locale@2@A 000000018007c768     libcpmt:xlocale.obj
 0003:00001770       ?id@?$time_get@DV?$istreambuf_iterator@DU?$char_traits@D@std@@@std@@@std@@2V0locale@2@A 000000018007c770     libcpmt:xlocale.obj
 0003:00001778       ?id@?$time_put@DV?$ostreambuf_iterator@DU?$char_traits@D@std@@@std@@@std@@2V0locale@2@A 000000018007c778     libcpmt:xlocale.obj
 0003:00001780       __scrt_current_native_startup_state 000000018007c780     LIBCMT:utility.obj
 0003:00001788       __scrt_native_startup_lock 000000018007c788     LIBCMT:utility.obj
 0003:000017d0       __castguard_check_failure_os_handled_fptr 000000018007c7d0     LIBCMT:guard_support.obj
 0003:00001d50       __favor                    000000018007cd50     LIBCMT:cpu_disp.obj
 0003:00001d54       __scrt_debugger_hook_flag  000000018007cd54     LIBCMT:utility_desktop.obj
 0003:00001d60       ?__type_info_root_node@@3U__type_info_node@@A 000000018007cd60     LIBCMT:tncleanup.obj
 0003:00001d70       ?_OptionsStorage@?1??__local_stdio_scanf_options@@9@4_KA 000000018007cd70     LIBCMT:default_local_stdio_options.obj
 0003:00001d78       ?__WinRTOutOfMemoryExceptionCallback@@3P6APEAXXZEA 000000018007cd78     libvcruntime:ehhelpers.obj
 0003:00001e00       __pPurecall                000000018007ce00     libvcruntime:purevirt_data.obj
 0003:00001e38       ?pArgList@UnDecorator@@0PEAVReplicator@@EA 000000018007ce38     libvcruntime:undname.obj
 0003:00001e40       ?pZNameList@UnDecorator@@0PEAVReplicator@@EA 000000018007ce40     libvcruntime:undname.obj
 0003:00001e48       ?pTemplateArgList@UnDecorator@@0PEAVReplicator@@EA 000000018007ce48     libvcruntime:undname.obj
 0003:00001e50       ?gName@UnDecorator@@0PEBDEB 000000018007ce50     libvcruntime:undname.obj
 0003:00001e58       ?name@UnDecorator@@0PEBDEB 000000018007ce58     libvcruntime:undname.obj
 0003:00001e60       ?disableFlags@UnDecorator@@0KA 000000018007ce60     libvcruntime:undname.obj
 0003:00001e64       ?fExplicitTemplateParams@UnDecorator@@0_NA 000000018007ce64     libvcruntime:undname.obj
 0003:00001e65       ?fGetTemplateArgumentList@UnDecorator@@0_NA 000000018007ce65     libvcruntime:undname.obj
 0003:00001e68       ?m_pGetParameter@UnDecorator@@0P6APEADJ@ZEA 000000018007ce68     libvcruntime:undname.obj
 0003:00001e70       ?m_CHPENameOffset@UnDecorator@@0KA 000000018007ce70     libvcruntime:undname.obj
 0003:00001e74       ?m_recursionLevel@UnDecorator@@0KA 000000018007ce74     libvcruntime:undname.obj
 0003:00001ee8       _nstream                   000000018007cee8     libucrt:_file.obj
 0003:00001ef0       __piob                     000000018007cef0     libucrt:_file.obj
 0003:00001ef8       _cflush                    000000018007cef8     libucrt:_file.obj
 0003:00002134       __acrt_lconv_static_null   000000018007d134     libucrt:localeconv.obj
 0003:00002138       __acrt_lconv_static_W_null 000000018007d138     libucrt:localeconv.obj
 0003:00002158       ?c_exit_complete@?1???R<lambda_6e4b09c48022b2350581041d5f6b0c4c>@@QEBA@XZ@4_NA 000000018007d158     libucrt:exit.obj
 0003:00002268       _environ_table             000000018007d268     libucrt:environment_initialization.obj
 0003:00002270       _wenviron_table            000000018007d270     libucrt:environment_initialization.obj
 0003:00002278       __dcrt_initial_wide_environment 000000018007d278     libucrt:environment_initialization.obj
 0003:00002280       __dcrt_initial_narrow_environment 000000018007d280     libucrt:environment_initialization.obj
 0003:00002288       __acrt_atexit_table        000000018007d288     libucrt:onexit.obj
 0003:000022a0       __acrt_at_quick_exit_table 000000018007d2a0     libucrt:onexit.obj
 0003:000022b8       __acrt_locale_changed_data 000000018007d2b8     libucrt:wsetlocale.obj
 0003:000022c0       __acrt_current_locale_data 000000018007d2c0     libucrt:nlsdata.obj
 0003:00002490       __pioinfo                  000000018007d490     libucrt:ioinit.obj
 0003:00002890       _nhandle                   000000018007d890     libucrt:ioinit.obj
 0003:000028a8       __acrt_stdout_buffer       000000018007d8a8     libucrt:_sftbuf.obj
 0003:000028b0       __acrt_stderr_buffer       000000018007d8b0     libucrt:_sftbuf.obj
 0003:000028b8       __fma3_is_available        000000018007d8b8     libucrt:fma3_available.obj
 0003:000028bc       __use_fma3_lib             000000018007d8bc     libucrt:fma3_available.obj
 0003:000028c0       ?_timezone@@3V?$dual_state_global@J@__crt_state_management@@A 000000018007d8c0     libucrt:timeset.obj
 0003:000028c4       ?_daylight@@3V?$dual_state_global@H@__crt_state_management@@A 000000018007d8c4     libucrt:timeset.obj
 0003:000028c8       ?_dstbias@@3V?$dual_state_global@J@__crt_state_management@@A 000000018007d8c8     libucrt:timeset.obj
 0003:000029b8       _mbctype                   000000018007d9b8     libucrt:mbctype.obj
 0003:000029c0       _mbcasemap                 000000018007d9c0     libucrt:mbctype.obj
 0003:000029c8       __acrt_current_multibyte_data 000000018007d9c8     libucrt:mbctype.obj
 0003:000029d8       _pgmptr                    000000018007d9d8     libucrt:argv_data.obj
 0003:000029e0       __argc                     000000018007d9e0     libucrt:argv_data.obj
 0003:000029e8       __argv                     000000018007d9e8     libucrt:argv_data.obj
 0003:000029f0       __wargv                    000000018007d9f0     libucrt:argv_data.obj
 0003:000029f8       _acmdln                    000000018007d9f8     libucrt:argv_data.obj
 0003:00002a00       _wcmdln                    000000018007da00     libucrt:argv_data.obj
 0003:00002a08       __acrt_heap                000000018007da08     libucrt:heap_handle.obj
 0003:00002a1c       _commode                   000000018007da1c     libucrt:ncommode.obj
 0003:00002a28       _umaskval                  000000018007da28     libucrt:umask.obj
 0003:00002a38       _fmode                     000000018007da38     libucrt:txtmode.obj
 0003:00002a40       ?DloadKernel32@@3PEAUHINSTANCE__@@EA 000000018007da40     DelayImp:delayhlp.obj
 0003:00002a48       ?DloadAcquireSRWLockExclusive@@3P6AXPEA_K@ZEA 000000018007da48     DelayImp:delayhlp.obj
 0003:00002a50       ?DloadReleaseSRWLockExclusive@@3P6AXPEA_K@ZEA 000000018007da50     DelayImp:delayhlp.obj
 0003:00002a58       ?DloadSrwLock@@3_KA        000000018007da58     DelayImp:delayhlp.obj
 0003:00002a60       ?DloadSectionLockCount@@3KA 000000018007da60     DelayImp:delayhlp.obj
 0003:00002a64       ?DloadSectionOldProtection@@3KA 000000018007da64     DelayImp:delayhlp.obj
 0003:00002a68       ?DloadSectionCommitPermanent@@3KA 000000018007da68     DelayImp:delayhlp.obj
 0003:00002a70       ?_Psave@?$_Facetptr@V?$ctype@D@std@@@std@@2PEBVfacet@locale@2@EB 000000018007da70     Canvas.obj
 0003:00002a78       ?pattern_repeat_key@@3PEBU_cairo_user_data_key@@EB 000000018007da78     CanvasPattern.obj
 0003:00002a80       ?constructor@ImageBackend@@2V?$Persistent@VFunctionTemplate@v8@@V?$NonCopyablePersistentTraits@VFunctionTemplate@v8@@@2@@Nan@@A 000000018007da80     ImageBackend.obj
 0003:00002a88       ?constructor@PdfBackend@@2V?$Persistent@VFunctionTemplate@v8@@V?$NonCopyablePersistentTraits@VFunctionTemplate@v8@@@2@@Nan@@A 000000018007da88     PdfBackend.obj
 0003:00002a90       ?constructor@SvgBackend@@2V?$Persistent@VFunctionTemplate@v8@@V?$NonCopyablePersistentTraits@VFunctionTemplate@v8@@@2@@Nan@@A 000000018007da90     SvgBackend.obj
 0003:00002a98       ?font_face_list@@3V?$vector@VFontFace@@V?$allocator@VFontFace@@@std@@@std@@A 000000018007da98     Canvas.obj
 0003:00002ab0       ?constructor@Canvas@@2V?$Persistent@VFunctionTemplate@v8@@V?$NonCopyablePersistentTraits@VFunctionTemplate@v8@@@2@@Nan@@A 000000018007dab0     Canvas.obj
 0003:00002ab8       ?constructor@Gradient@@2V?$Persistent@VFunctionTemplate@v8@@V?$NonCopyablePersistentTraits@VFunctionTemplate@v8@@@2@@Nan@@A 000000018007dab8     CanvasGradient.obj
 0003:00002ac0       ?_DOMMatrix@Pattern@@2V?$Persistent@VFunction@v8@@V?$NonCopyablePersistentTraits@VFunction@v8@@@2@@Nan@@A 000000018007dac0     CanvasPattern.obj
 0003:00002ac8       ?constructor@Pattern@@2V?$Persistent@VFunctionTemplate@v8@@V?$NonCopyablePersistentTraits@VFunctionTemplate@v8@@@2@@Nan@@A 000000018007dac8     CanvasPattern.obj
 0003:00002ad0       ?_parseFont@Context2d@@2V?$Persistent@VFunction@v8@@V?$NonCopyablePersistentTraits@VFunction@v8@@@2@@Nan@@A 000000018007dad0     CanvasRenderingContext2d.obj
 0003:00002ad8       ?_DOMMatrix@Context2d@@2V?$Persistent@VFunction@v8@@V?$NonCopyablePersistentTraits@VFunction@v8@@@2@@Nan@@A 000000018007dad8     CanvasRenderingContext2d.obj
 0003:00002ae0       ?constructor@Context2d@@2V?$Persistent@VFunctionTemplate@v8@@V?$NonCopyablePersistentTraits@VFunctionTemplate@v8@@@2@@Nan@@A 000000018007dae0     CanvasRenderingContext2d.obj
 0003:00002af8       ?constructor@Image@@2V?$Persistent@VFunctionTemplate@v8@@V?$NonCopyablePersistentTraits@VFunctionTemplate@v8@@@2@@Nan@@A 000000018007daf8     Image.obj
 0003:00002b00       ?constructor@ImageData@@2V?$Persistent@VFunctionTemplate@v8@@V?$NonCopyablePersistentTraits@VFunctionTemplate@v8@@@2@@Nan@@A 000000018007db00     ImageData.obj
 0003:00002b08       ?_OptionsStorage@?1??__local_stdio_printf_options@@9@4_KA 000000018007db08     color.obj
 0003:00002b18       __dyn_tls_init_callback    000000018007db18     <common>
 0003:00002b20       __scrt_ucrt_dll_is_in_use  000000018007db20     <common>

 entry point at        0001:0002c500

 Static symbols

 0000:fff7b000       .debug$S                   0000000180000000     canvas.exp
 0000:fff7b000       .debug$S                   0000000180000000     gdi32:GDI32.dll
 0000:fff7b000       .debug$S                   0000000180000000     gdi32:GDI32.dll
 0000:fff7b000       .debug$S                   0000000180000000     kernel32:KERNEL32.dll
 0000:fff7b000       .debug$S                   0000000180000000     kernel32:KERNEL32.dll
 0000:fff7b000       .debug$S                   0000000180000000     kernel32:KERNEL32.dll
 0000:fff7b000       .debug$S                   0000000180000000     kernel32:KERNEL32.dll
 0000:fff7b000       .debug$S                   0000000180000000     kernel32:KERNEL32.dll
 0000:fff7b000       .debug$S                   0000000180000000     kernel32:KERNEL32.dll
 0000:fff7b000       .debug$S                   0000000180000000     kernel32:KERNEL32.dll
 0000:fff7b000       .debug$S                   0000000180000000     kernel32:KERNEL32.dll
 0000:fff7b000       .debug$S                   0000000180000000     kernel32:KERNEL32.dll
 0000:fff7b000       .debug$S                   0000000180000000     kernel32:KERNEL32.dll
 0000:fff7b000       .debug$S                   0000000180000000     kernel32:KERNEL32.dll
 0000:fff7b000       .debug$S                   0000000180000000     kernel32:KERNEL32.dll
 0000:fff7b000       .debug$S                   0000000180000000     kernel32:KERNEL32.dll
 0000:fff7b000       .debug$S                   0000000180000000     kernel32:KERNEL32.dll
 0000:fff7b000       .debug$S                   0000000180000000     kernel32:KERNEL32.dll
 0000:fff7b000       .debug$S                   0000000180000000     kernel32:KERNEL32.dll
 0000:fff7b000       .debug$S                   0000000180000000     kernel32:KERNEL32.dll
 0000:fff7b000       .debug$S                   0000000180000000     kernel32:KERNEL32.dll
 0000:fff7b000       .debug$S                   0000000180000000     kernel32:KERNEL32.dll
 0000:fff7b000       .debug$S                   0000000180000000     kernel32:KERNEL32.dll
 0000:fff7b000       .debug$S                   0000000180000000     kernel32:KERNEL32.dll
 0000:fff7b000       .debug$S                   0000000180000000     kernel32:KERNEL32.dll
 0000:fff7b000       .debug$S                   0000000180000000     kernel32:KERNEL32.dll
 0000:fff7b000       .debug$S                   0000000180000000     kernel32:KERNEL32.dll
 0000:fff7b000       .debug$S                   0000000180000000     kernel32:KERNEL32.dll
 0000:fff7b000       .debug$S                   0000000180000000     kernel32:KERNEL32.dll
 0000:fff7b000       .debug$S                   0000000180000000     kernel32:KERNEL32.dll
 0000:fff7b000       .debug$S                   0000000180000000     kernel32:KERNEL32.dll
 0000:fff7b000       .debug$S                   0000000180000000     kernel32:KERNEL32.dll
 0000:fff7b000       .debug$S                   0000000180000000     kernel32:KERNEL32.dll
 0000:fff7b000       .debug$S                   0000000180000000     kernel32:KERNEL32.dll
 0000:fff7b000       .debug$S                   0000000180000000     kernel32:KERNEL32.dll
 0000:fff7b000       .debug$S                   0000000180000000     kernel32:KERNEL32.dll
 0000:fff7b000       .debug$S                   0000000180000000     kernel32:KERNEL32.dll
 0000:fff7b000       .debug$S                   0000000180000000     kernel32:KERNEL32.dll
 0000:fff7b000       .debug$S                   0000000180000000     kernel32:KERNEL32.dll
 0000:fff7b000       .debug$S                   0000000180000000     kernel32:KERNEL32.dll
 0000:fff7b000       .debug$S                   0000000180000000     kernel32:KERNEL32.dll
 0000:fff7b000       .debug$S                   0000000180000000     kernel32:KERNEL32.dll
 0000:fff7b000       .debug$S                   0000000180000000     kernel32:KERNEL32.dll
 0000:fff7b000       .debug$S                   0000000180000000     kernel32:KERNEL32.dll
 0000:fff7b000       .debug$S                   0000000180000000     kernel32:KERNEL32.dll
 0000:fff7b000       .debug$S                   0000000180000000     kernel32:KERNEL32.dll
 0000:fff7b000       .debug$S                   0000000180000000     kernel32:KERNEL32.dll
 0000:fff7b000       .debug$S                   0000000180000000     kernel32:KERNEL32.dll
 0000:fff7b000       .debug$S                   0000000180000000     kernel32:KERNEL32.dll
 0000:fff7b000       .debug$S                   0000000180000000     kernel32:KERNEL32.dll
 0000:fff7b000       .debug$S                   0000000180000000     kernel32:KERNEL32.dll
 0000:fff7b000       .debug$S                   0000000180000000     kernel32:KERNEL32.dll
 0000:fff7b000       .debug$S                   0000000180000000     kernel32:KERNEL32.dll
 0000:fff7b000       .debug$S                   0000000180000000     kernel32:KERNEL32.dll
 0000:fff7b000       .debug$S                   0000000180000000     kernel32:KERNEL32.dll
 0000:fff7b000       .debug$S                   0000000180000000     kernel32:KERNEL32.dll
 0000:fff7b000       .debug$S                   0000000180000000     kernel32:KERNEL32.dll
 0000:fff7b000       .debug$S                   0000000180000000     kernel32:KERNEL32.dll
 0000:fff7b000       .debug$S                   0000000180000000     kernel32:KERNEL32.dll
 0000:fff7b000       .debug$S                   0000000180000000     kernel32:KERNEL32.dll
 0000:fff7b000       .debug$S                   0000000180000000     kernel32:KERNEL32.dll
 0000:fff7b000       .debug$S                   0000000180000000     kernel32:KERNEL32.dll
 0000:fff7b000       .debug$S                   0000000180000000     kernel32:KERNEL32.dll
 0000:fff7b000       .debug$S                   0000000180000000     kernel32:KERNEL32.dll
 0000:fff7b000       .debug$S                   0000000180000000     kernel32:KERNEL32.dll
 0000:fff7b000       .debug$S                   0000000180000000     kernel32:KERNEL32.dll
 0000:fff7b000       .debug$S                   0000000180000000     kernel32:KERNEL32.dll
 0000:fff7b000       .debug$S                   0000000180000000     kernel32:KERNEL32.dll
 0000:fff7b000       .debug$S                   0000000180000000     kernel32:KERNEL32.dll
 0000:fff7b000       .debug$S                   0000000180000000     kernel32:KERNEL32.dll
 0000:fff7b000       .debug$S                   0000000180000000     kernel32:KERNEL32.dll
 0000:fff7b000       .debug$S                   0000000180000000     kernel32:KERNEL32.dll
 0000:fff7b000       .debug$S                   0000000180000000     kernel32:KERNEL32.dll
 0000:fff7b000       .debug$S                   0000000180000000     kernel32:KERNEL32.dll
 0000:fff7b000       .debug$S                   0000000180000000     kernel32:KERNEL32.dll
 0000:fff7b000       .debug$S                   0000000180000000     kernel32:KERNEL32.dll
 0000:fff7b000       .debug$S                   0000000180000000     kernel32:KERNEL32.dll
 0000:fff7b000       .debug$S                   0000000180000000     kernel32:KERNEL32.dll
 0000:fff7b000       .debug$S                   0000000180000000     kernel32:KERNEL32.dll
 0000:fff7b000       .debug$S                   0000000180000000     kernel32:KERNEL32.dll
 0000:fff7b000       .debug$S                   0000000180000000     kernel32:KERNEL32.dll
 0000:fff7b000       .debug$S                   0000000180000000     kernel32:KERNEL32.dll
 0000:fff7b000       .debug$S                   0000000180000000     kernel32:KERNEL32.dll
 0000:fff7b000       .debug$S                   0000000180000000     kernel32:KERNEL32.dll
 0000:fff7b000       .debug$S                   0000000180000000     kernel32:KERNEL32.dll
 0000:fff7b000       .debug$S                   0000000180000000     kernel32:KERNEL32.dll
 0000:fff7b000       .debug$S                   0000000180000000     kernel32:KERNEL32.dll
 0000:fff7b000       .debug$S                   0000000180000000     kernel32:KERNEL32.dll
 0000:fff7b000       .debug$S                   0000000180000000     kernel32:KERNEL32.dll
 0000:fff7b000       .debug$S                   0000000180000000     kernel32:KERNEL32.dll
 0000:fff7b000       .debug$S                   0000000180000000     kernel32:KERNEL32.dll
 0000:fff7b000       .debug$S                   0000000180000000     kernel32:KERNEL32.dll
 0000:fff7b000       .debug$S                   0000000180000000     kernel32:KERNEL32.dll
 0000:fff7b000       .debug$S                   0000000180000000     kernel32:KERNEL32.dll
 0000:fff7b000       .debug$S                   0000000180000000     kernel32:KERNEL32.dll
 0000:fff7b000       .debug$S                   0000000180000000     kernel32:KERNEL32.dll
 0000:fff7b000       .debug$S                   0000000180000000     kernel32:KERNEL32.dll
 0000:fff7b000       .debug$S                   0000000180000000     kernel32:KERNEL32.dll
 0000:fff7b000       .debug$S                   0000000180000000     kernel32:KERNEL32.dll
 0000:fff7b000       .debug$S                   0000000180000000     kernel32:KERNEL32.dll
 0000:fff7b000       .debug$S                   0000000180000000     kernel32:KERNEL32.dll
 0000:fff7b000       .debug$S                   0000000180000000     kernel32:KERNEL32.dll
 0000:fff7b000       .debug$S                   0000000180000000     kernel32:KERNEL32.dll
 0000:fff7b000       .debug$S                   0000000180000000     kernel32:KERNEL32.dll
 0000:fff7b000       .debug$S                   0000000180000000     kernel32:KERNEL32.dll
 0000:fff7b000       .debug$S                   0000000180000000     kernel32:KERNEL32.dll
 0000:fff7b000       .debug$S                   0000000180000000     kernel32:KERNEL32.dll
 0000:fff7b000       .debug$S                   0000000180000000     kernel32:KERNEL32.dll
 0000:fff7b000       .debug$S                   0000000180000000     kernel32:KERNEL32.dll
 0000:fff7b000       .debug$S                   0000000180000000     kernel32:KERNEL32.dll
 0000:fff7b000       .debug$S                   0000000180000000     kernel32:KERNEL32.dll
 0000:fff7b000       .debug$S                   0000000180000000     kernel32:KERNEL32.dll
 0000:fff7b000       .debug$S                   0000000180000000     kernel32:KERNEL32.dll
 0000:fff7b000       .debug$S                   0000000180000000     node:node.exe
 0000:fff7b000       .debug$S                   0000000180000000     node:node.exe
 0000:fff7b000       .debug$S                   0000000180000000     node:node.exe
 0000:fff7b000       .debug$S                   0000000180000000     node:node.exe
 0000:fff7b000       .debug$S                   0000000180000000     node:node.exe
 0000:fff7b000       .debug$S                   0000000180000000     node:node.exe
 0000:fff7b000       .debug$S                   0000000180000000     node:node.exe
 0000:fff7b000       .debug$S                   0000000180000000     node:node.exe
 0000:fff7b000       .debug$S                   0000000180000000     node:node.exe
 0000:fff7b000       .debug$S                   0000000180000000     node:node.exe
 0000:fff7b000       .debug$S                   0000000180000000     node:node.exe
 0000:fff7b000       .debug$S                   0000000180000000     node:node.exe
 0000:fff7b000       .debug$S                   0000000180000000     node:node.exe
 0000:fff7b000       .debug$S                   0000000180000000     node:node.exe
 0000:fff7b000       .debug$S                   0000000180000000     node:node.exe
 0000:fff7b000       .debug$S                   0000000180000000     node:node.exe
 0000:fff7b000       .debug$S                   0000000180000000     node:node.exe
 0000:fff7b000       .debug$S                   0000000180000000     node:node.exe
 0000:fff7b000       .debug$S                   0000000180000000     node:node.exe
 0000:fff7b000       .debug$S                   0000000180000000     node:node.exe
 0000:fff7b000       .debug$S                   0000000180000000     node:node.exe
 0000:fff7b000       .debug$S                   0000000180000000     node:node.exe
 0000:fff7b000       .debug$S                   0000000180000000     node:node.exe
 0000:fff7b000       .debug$S                   0000000180000000     node:node.exe
 0000:fff7b000       .debug$S                   0000000180000000     node:node.exe
 0000:fff7b000       .debug$S                   0000000180000000     node:node.exe
 0000:fff7b000       .debug$S                   0000000180000000     node:node.exe
 0000:fff7b000       .debug$S                   0000000180000000     node:node.exe
 0000:fff7b000       .debug$S                   0000000180000000     node:node.exe
 0000:fff7b000       .debug$S                   0000000180000000     node:node.exe
 0000:fff7b000       .debug$S                   0000000180000000     node:node.exe
 0000:fff7b000       .debug$S                   0000000180000000     node:node.exe
 0000:fff7b000       .debug$S                   0000000180000000     node:node.exe
 0000:fff7b000       .debug$S                   0000000180000000     node:node.exe
 0000:fff7b000       .debug$S                   0000000180000000     node:node.exe
 0000:fff7b000       .debug$S                   0000000180000000     node:node.exe
 0000:fff7b000       .debug$S                   0000000180000000     node:node.exe
 0000:fff7b000       .debug$S                   0000000180000000     node:node.exe
 0000:fff7b000       .debug$S                   0000000180000000     node:node.exe
 0000:fff7b000       .debug$S                   0000000180000000     node:node.exe
 0000:fff7b000       .debug$S                   0000000180000000     node:node.exe
 0000:fff7b000       .debug$S                   0000000180000000     node:node.exe
 0000:fff7b000       .debug$S                   0000000180000000     node:node.exe
 0000:fff7b000       .debug$S                   0000000180000000     node:node.exe
 0000:fff7b000       .debug$S                   0000000180000000     node:node.exe
 0000:fff7b000       .debug$S                   0000000180000000     node:node.exe
 0000:fff7b000       .debug$S                   0000000180000000     node:node.exe
 0000:fff7b000       .debug$S                   0000000180000000     node:node.exe
 0000:fff7b000       .debug$S                   0000000180000000     node:node.exe
 0000:fff7b000       .debug$S                   0000000180000000     node:node.exe
 0000:fff7b000       .debug$S                   0000000180000000     node:node.exe
 0000:fff7b000       .debug$S                   0000000180000000     node:node.exe
 0000:fff7b000       .debug$S                   0000000180000000     node:node.exe
 0000:fff7b000       .debug$S                   0000000180000000     node:node.exe
 0000:fff7b000       .debug$S                   0000000180000000     node:node.exe
 0000:fff7b000       .debug$S                   0000000180000000     node:node.exe
 0000:fff7b000       .debug$S                   0000000180000000     node:node.exe
 0000:fff7b000       .debug$S                   0000000180000000     node:node.exe
 0000:fff7b000       .debug$S                   0000000180000000     node:node.exe
 0000:fff7b000       .debug$S                   0000000180000000     node:node.exe
 0000:fff7b000       .debug$S                   0000000180000000     node:node.exe
 0000:fff7b000       .debug$S                   0000000180000000     node:node.exe
 0000:fff7b000       .debug$S                   0000000180000000     node:node.exe
 0000:fff7b000       .debug$S                   0000000180000000     node:node.exe
 0000:fff7b000       .debug$S                   0000000180000000     node:node.exe
 0000:fff7b000       .debug$S                   0000000180000000     node:node.exe
 0000:fff7b000       .debug$S                   0000000180000000     node:node.exe
 0000:fff7b000       .debug$S                   0000000180000000     node:node.exe
 0000:fff7b000       .debug$S                   0000000180000000     node:node.exe
 0000:fff7b000       .debug$S                   0000000180000000     node:node.exe
 0000:fff7b000       .debug$S                   0000000180000000     node:node.exe
 0000:fff7b000       .debug$S                   0000000180000000     node:node.exe
 0000:fff7b000       .debug$S                   0000000180000000     node:node.exe
 0000:fff7b000       .debug$S                   0000000180000000     node:node.exe
 0000:fff7b000       .debug$S                   0000000180000000     node:node.exe
 0000:fff7b000       .debug$S                   0000000180000000     node:node.exe
 0000:fff7b000       .debug$S                   0000000180000000     node:node.exe
 0000:fff7b000       .debug$S                   0000000180000000     node:node.exe
 0000:fff7b000       .debug$S                   0000000180000000     node:node.exe
 0000:fff7b000       .debug$S                   0000000180000000     node:node.exe
 0000:fff7b000       .debug$S                   0000000180000000     node:node.exe
 0000:fff7b000       .debug$S                   0000000180000000     node:node.exe
 0000:fff7b000       .debug$S                   0000000180000000     node:node.exe
 0000:fff7b000       .debug$S                   0000000180000000     node:node.exe
 0000:fff7b000       .debug$S                   0000000180000000     node:node.exe
 0000:fff7b000       .debug$S                   0000000180000000     node:node.exe
 0000:fff7b000       .debug$S                   0000000180000000     node:node.exe
 0000:fff7b000       .debug$S                   0000000180000000     node:node.exe
 0000:fff7b000       .debug$S                   0000000180000000     node:node.exe
 0000:fff7b000       .debug$S                   0000000180000000     node:node.exe
 0000:fff7b000       .debug$S                   0000000180000000     node:node.exe
 0000:fff7b000       .debug$S                   0000000180000000     node:node.exe
 0000:fff7b000       .debug$S                   0000000180000000     node:node.exe
 0000:fff7b000       .debug$S                   0000000180000000     node:node.exe
 0000:fff7b000       .debug$S                   0000000180000000     node:node.exe
 0000:fff7b000       .debug$S                   0000000180000000     node:node.exe
 0000:fff7b000       .debug$S                   0000000180000000     node:node.exe
 0000:fff7b000       .debug$S                   0000000180000000     node:node.exe
 0000:fff7b000       .debug$S                   0000000180000000     node:node.exe
 0000:fff7b000       .debug$S                   0000000180000000     node:node.exe
 0000:fff7b000       .debug$S                   0000000180000000     node:node.exe
 0000:fff7b000       .debug$S                   0000000180000000     node:node.exe
 0000:fff7b000       .debug$S                   0000000180000000     node:node.exe
 0000:fff7b000       .debug$S                   0000000180000000     node:node.exe
 0000:fff7b000       .debug$S                   0000000180000000     node:node.exe
 0000:fff7b000       .debug$S                   0000000180000000     node:node.exe
 0000:fff7b000       .debug$S                   0000000180000000     node:node.exe
 0000:fff7b000       .debug$S                   0000000180000000     node:node.exe
 0000:fff7b000       .debug$S                   0000000180000000     node:node.exe
 0000:fff7b000       .debug$S                   0000000180000000     node:node.exe
 0000:fff7b000       .debug$S                   0000000180000000     node:node.exe
 0000:fff7b000       .debug$S                   0000000180000000     node:node.exe
 0000:fff7b000       .debug$S                   0000000180000000     node:node.exe
 0000:fff7b000       .debug$S                   0000000180000000     node:node.exe
 0000:fff7b000       .debug$S                   0000000180000000     node:node.exe
 0000:fff7b000       .debug$S                   0000000180000000     node:node.exe
 0000:fff7b000       .debug$S                   0000000180000000     node:node.exe
 0000:fff7b000       .debug$S                   0000000180000000     node:node.exe
 0000:fff7b000       .debug$S                   0000000180000000     node:node.exe
 0000:fff7b000       .debug$S                   0000000180000000     node:node.exe
 0000:fff7b000       .debug$S                   0000000180000000     node:node.exe
 0000:fff7b000       .debug$S                   0000000180000000     node:node.exe
 0000:fff7b000       .debug$S                   0000000180000000     node:node.exe
 0000:fff7b000       .debug$S                   0000000180000000     node:node.exe
 0001:00000000       .text                      0000000180001000     libcairo-2:D__a__temp_msys64_mingw64_lib_libcairo_2_lib_s01412.o
 0001:00000008       .text                      0000000180001008     libcairo-2:D__a__temp_msys64_mingw64_lib_libcairo_2_lib_s01403.o
 0001:00000010       .text                      0000000180001010     libcairo-2:D__a__temp_msys64_mingw64_lib_libcairo_2_lib_s01445.o
 0001:00000018       .text                      0000000180001018     libcairo-2:D__a__temp_msys64_mingw64_lib_libcairo_2_lib_s01204.o
 0001:00000020       .text                      0000000180001020     libcairo-2:D__a__temp_msys64_mingw64_lib_libcairo_2_lib_s01211.o
 0001:00000028       .text                      0000000180001028     libcairo-2:D__a__temp_msys64_mingw64_lib_libcairo_2_lib_s01413.o
 0001:00000030       .text                      0000000180001030     libcairo-2:D__a__temp_msys64_mingw64_lib_libcairo_2_lib_s01208.o
 0001:00000038       .text                      0000000180001038     libcairo-2:D__a__temp_msys64_mingw64_lib_libcairo_2_lib_s01286.o
 0001:00000040       .text                      0000000180001040     libcairo-2:D__a__temp_msys64_mingw64_lib_libcairo_2_lib_s01281.o
 0001:00000048       .text                      0000000180001048     libcairo-2:D__a__temp_msys64_mingw64_lib_libcairo_2_lib_s01452.o
 0001:00000050       .text                      0000000180001050     libcairo-2:D__a__temp_msys64_mingw64_lib_libcairo_2_lib_s01209.o
 0001:00000058       .text                      0000000180001058     libcairo-2:D__a__temp_msys64_mingw64_lib_libcairo_2_lib_s01116.o
 0001:00000060       .text                      0000000180001060     libcairo-2:D__a__temp_msys64_mingw64_lib_libcairo_2_lib_s01210.o
 0001:00000068       .text                      0000000180001068     libcairo-2:D__a__temp_msys64_mingw64_lib_libcairo_2_lib_s01414.o
 0001:00000070       .text                      0000000180001070     libcairo-2:D__a__temp_msys64_mingw64_lib_libcairo_2_lib_s01284.o
 0001:00000078       .text                      0000000180001078     libcairo-2:D__a__temp_msys64_mingw64_lib_libcairo_2_lib_s01387.o
 0001:00000080       .text                      0000000180001080     libcairo-2:D__a__temp_msys64_mingw64_lib_libcairo_2_lib_s01212.o
 0001:00000088       .text                      0000000180001088     libcairo-2:D__a__temp_msys64_mingw64_lib_libcairo_2_lib_s01113.o
 0001:00000090       .text                      0000000180001090     libcairo-2:D__a__temp_msys64_mingw64_lib_libcairo_2_lib_s01251.o
 0001:00000098       .text                      0000000180001098     libcairo-2:D__a__temp_msys64_mingw64_lib_libcairo_2_lib_s01255.o
 0001:000000a0       .text                      00000001800010a0     libcairo-2:D__a__temp_msys64_mingw64_lib_libcairo_2_lib_s01253.o
 0001:000000a8       .text                      00000001800010a8     libcairo-2:D__a__temp_msys64_mingw64_lib_libcairo_2_lib_s01259.o
 0001:000000b0       .text                      00000001800010b0     libcairo-2:D__a__temp_msys64_mingw64_lib_libcairo_2_lib_s01276.o
 0001:000000b8       .text                      00000001800010b8     libcairo-2:D__a__temp_msys64_mingw64_lib_libcairo_2_lib_s01219.o
 0001:000000c0       .text                      00000001800010c0     libcairo-2:D__a__temp_msys64_mingw64_lib_libcairo_2_lib_s01275.o
 0001:000000c8       .text                      00000001800010c8     libcairo-2:D__a__temp_msys64_mingw64_lib_libcairo_2_lib_s01271.o
 0001:000000d0       .text                      00000001800010d0     libcairo-2:D__a__temp_msys64_mingw64_lib_libcairo_2_lib_s01252.o
 0001:000000d8       .text                      00000001800010d8     libcairo-2:D__a__temp_msys64_mingw64_lib_libcairo_2_lib_s01224.o
 0001:000000e0       .text                      00000001800010e0     libcairo-2:D__a__temp_msys64_mingw64_lib_libcairo_2_lib_s01248.o
 0001:000000e8       .text                      00000001800010e8     libcairo-2:D__a__temp_msys64_mingw64_lib_libcairo_2_lib_s01214.o
 0001:000000f0       .text                      00000001800010f0     libcairo-2:D__a__temp_msys64_mingw64_lib_libcairo_2_lib_s01390.o
 0001:000000f8       .text                      00000001800010f8     libcairo-2:D__a__temp_msys64_mingw64_lib_libcairo_2_lib_s01264.o
 0001:00000100       .text                      0000000180001100     libcairo-2:D__a__temp_msys64_mingw64_lib_libcairo_2_lib_s01428.o
 0001:00000108       .text                      0000000180001108     libcairo-2:D__a__temp_msys64_mingw64_lib_libcairo_2_lib_s01349.o
 0001:00000110       .text                      0000000180001110     libcairo-2:D__a__temp_msys64_mingw64_lib_libcairo_2_lib_s01189.o
 0001:00000118       .text                      0000000180001118     libcairo-2:D__a__temp_msys64_mingw64_lib_libcairo_2_lib_s01104.o
 0001:00000120       .text                      0000000180001120     libcairo-2:D__a__temp_msys64_mingw64_lib_libcairo_2_lib_s01406.o
 0001:00000128       .text                      0000000180001128     libcairo-2:D__a__temp_msys64_mingw64_lib_libcairo_2_lib_s01317.o
 0001:00000130       .text                      0000000180001130     libcairo-2:D__a__temp_msys64_mingw64_lib_libcairo_2_lib_s01386.o
 0001:00000138       .text                      0000000180001138     libcairo-2:D__a__temp_msys64_mingw64_lib_libcairo_2_lib_s01263.o
 0001:00000140       .text                      0000000180001140     libcairo-2:D__a__temp_msys64_mingw64_lib_libcairo_2_lib_s01395.o
 0001:00000148       .text                      0000000180001148     libcairo-2:D__a__temp_msys64_mingw64_lib_libcairo_2_lib_s01402.o
 0001:00000150       .text                      0000000180001150     libcairo-2:D__a__temp_msys64_mingw64_lib_libcairo_2_lib_s01139.o
 0001:00000158       .text                      0000000180001158     libcairo-2:D__a__temp_msys64_mingw64_lib_libcairo_2_lib_s01385.o
 0001:00000160       .text                      0000000180001160     libcairo-2:D__a__temp_msys64_mingw64_lib_libcairo_2_lib_s01194.o
 0001:00000168       .text                      0000000180001168     libcairo-2:D__a__temp_msys64_mingw64_lib_libcairo_2_lib_s01218.o
 0001:00000170       .text                      0000000180001170     libcairo-2:D__a__temp_msys64_mingw64_lib_libcairo_2_lib_s01274.o
 0001:00000178       .text                      0000000180001178     libcairo-2:D__a__temp_msys64_mingw64_lib_libcairo_2_lib_s01140.o
 0001:00000180       .text                      0000000180001180     libcairo-2:D__a__temp_msys64_mingw64_lib_libcairo_2_lib_s01399.o
 0001:00000188       .text                      0000000180001188     libcairo-2:D__a__temp_msys64_mingw64_lib_libcairo_2_lib_s01347.o
 0001:00000190       .text                      0000000180001190     libcairo-2:D__a__temp_msys64_mingw64_lib_libcairo_2_lib_s01216.o
 0001:00000198       .text                      0000000180001198     libcairo-2:D__a__temp_msys64_mingw64_lib_libcairo_2_lib_s01379.o
 0001:000001a0       .text                      00000001800011a0     libcairo-2:D__a__temp_msys64_mingw64_lib_libcairo_2_lib_s01246.o
 0001:000001a8       .text                      00000001800011a8     libcairo-2:D__a__temp_msys64_mingw64_lib_libcairo_2_lib_s01302.o
 0001:000001b0       .text                      00000001800011b0     libcairo-2:D__a__temp_msys64_mingw64_lib_libcairo_2_lib_s01404.o
 0001:000001b8       .text                      00000001800011b8     libcairo-2:D__a__temp_msys64_mingw64_lib_libcairo_2_lib_s01243.o
 0001:000001c0       .text                      00000001800011c0     libcairo-2:D__a__temp_msys64_mingw64_lib_libcairo_2_lib_s01186.o
 0001:000001c8       .text                      00000001800011c8     libcairo-2:D__a__temp_msys64_mingw64_lib_libcairo_2_lib_s01273.o
 0001:000001d0       .text                      00000001800011d0     libcairo-2:D__a__temp_msys64_mingw64_lib_libcairo_2_lib_s01191.o
 0001:000001d8       .text                      00000001800011d8     libcairo-2:D__a__temp_msys64_mingw64_lib_libcairo_2_lib_s01105.o
 0001:000001e0       .text                      00000001800011e0     libcairo-2:D__a__temp_msys64_mingw64_lib_libcairo_2_lib_s01176.o
 0001:000001e8       .text                      00000001800011e8     libcairo-2:D__a__temp_msys64_mingw64_lib_libcairo_2_lib_s01394.o
 0001:000001f0       .text                      00000001800011f0     libcairo-2:D__a__temp_msys64_mingw64_lib_libcairo_2_lib_s01112.o
 0001:000001f8       .text                      00000001800011f8     libcairo-2:D__a__temp_msys64_mingw64_lib_libcairo_2_lib_s01392.o
 0001:00000200       .text                      0000000180001200     libcairo-2:D__a__temp_msys64_mingw64_lib_libcairo_2_lib_s01350.o
 0001:00000208       .text                      0000000180001208     libcairo-2:D__a__temp_msys64_mingw64_lib_libcairo_2_lib_s01485.o
 0001:00000210       .text                      0000000180001210     libcairo-2:D__a__temp_msys64_mingw64_lib_libcairo_2_lib_s01260.o
 0001:00000218       .text                      0000000180001218     libcairo-2:D__a__temp_msys64_mingw64_lib_libcairo_2_lib_s01388.o
 0001:00000220       .text                      0000000180001220     libcairo-2:D__a__temp_msys64_mingw64_lib_libcairo_2_lib_s01427.o
 0001:00000228       .text                      0000000180001228     libcairo-2:D__a__temp_msys64_mingw64_lib_libcairo_2_lib_s01111.o
 0001:00000230       .text                      0000000180001230     libcairo-2:D__a__temp_msys64_mingw64_lib_libcairo_2_lib_s01141.o
 0001:00000238       .text                      0000000180001238     libcairo-2:D__a__temp_msys64_mingw64_lib_libcairo_2_lib_s01269.o
 0001:00000240       .text                      0000000180001240     libcairo-2:D__a__temp_msys64_mingw64_lib_libcairo_2_lib_s01348.o
 0001:00000248       .text                      0000000180001248     libcairo-2:D__a__temp_msys64_mingw64_lib_libcairo_2_lib_s01405.o
 0001:00000250       .text                      0000000180001250     libcairo-2:D__a__temp_msys64_mingw64_lib_libcairo_2_lib_s01290.o
 0001:00000258       .text                      0000000180001258     libcairo-2:D__a__temp_msys64_mingw64_lib_libcairo_2_lib_s01178.o
 0001:00000260       .text                      0000000180001260     libcairo-2:D__a__temp_msys64_mingw64_lib_libcairo_2_lib_s01190.o
 0001:00000268       .text                      0000000180001268     libcairo-2:D__a__temp_msys64_mingw64_lib_libcairo_2_lib_s01261.o
 0001:00000270       .text                      0000000180001270     libcairo-2:D__a__temp_msys64_mingw64_lib_libcairo_2_lib_s01102.o
 0001:00000278       .text                      0000000180001278     libcairo-2:D__a__temp_msys64_mingw64_lib_libcairo_2_lib_s01244.o
 0001:00000280       .text                      0000000180001280     libcairo-2:D__a__temp_msys64_mingw64_lib_libcairo_2_lib_s01203.o
 0001:00000288       .text                      0000000180001288     libcairo-2:D__a__temp_msys64_mingw64_lib_libcairo_2_lib_s01187.o
 0001:00000290       .text                      0000000180001290     libcairo-2:D__a__temp_msys64_mingw64_lib_libcairo_2_lib_s01215.o
 0001:00000298       .text                      0000000180001298     libcairo-2:D__a__temp_msys64_mingw64_lib_libcairo_2_lib_s01247.o
 0001:000002a0       .text                      00000001800012a0     libcairo-2:D__a__temp_msys64_mingw64_lib_libcairo_2_lib_s01377.o
 0001:000002a8       .text                      00000001800012a8     libcairo-2:D__a__temp_msys64_mingw64_lib_libcairo_2_lib_s01179.o
 0001:000002b0       .text                      00000001800012b0     libcairo-2:D__a__temp_msys64_mingw64_lib_libcairo_2_lib_s01378.o
 0001:000002b8       .text                      00000001800012b8     libcairo-2:D__a__temp_msys64_mingw64_lib_libcairo_2_lib_s01471.o
 0001:000002c0       .text                      00000001800012c0     libcairo-2:D__a__temp_msys64_mingw64_lib_libcairo_2_lib_s01108.o
 0001:000002c8       .text                      00000001800012c8     libcairo-2:D__a__temp_msys64_mingw64_lib_libcairo_2_lib_s01103.o
 0001:000002d0       .text                      00000001800012d0     libcairo-2:D__a__temp_msys64_mingw64_lib_libcairo_2_lib_s01188.o
 0001:000002d8       .text                      00000001800012d8     libcairo-2:D__a__temp_msys64_mingw64_lib_libcairo_2_lib_s01270.o
 0001:000002e0       .text                      00000001800012e0     libcairo-2:D__a__temp_msys64_mingw64_lib_libcairo_2_lib_s01107.o
 0001:000002e8       .text                      00000001800012e8     libcairo-2:D__a__temp_msys64_mingw64_lib_libcairo_2_lib_s01249.o
 0001:000002f0       .text                      00000001800012f0     libcairo-2:D__a__temp_msys64_mingw64_lib_libcairo_2_lib_s01389.o
 0001:000002f8       .text                      00000001800012f8     libcairo-2:D__a__temp_msys64_mingw64_lib_libcairo_2_lib_s01177.o
 0001:00000300       .text                      0000000180001300     libcairo-2:D__a__temp_msys64_mingw64_lib_libcairo_2_lib_s01472.o
 0001:00000308       .text                      0000000180001308     libcairo-2:D__a__temp_msys64_mingw64_lib_libcairo_2_lib_s01266.o
 0001:00000310       .text                      0000000180001310     libcairo-2:D__a__temp_msys64_mingw64_lib_libcairo_2_lib_s01114.o
 0001:00000318       .text                      0000000180001318     libcairo-2:D__a__temp_msys64_mingw64_lib_libcairo_2_lib_s01167.o
 0001:00000320       .text                      0000000180001320     libcairo-2:D__a__temp_msys64_mingw64_lib_libcairo_2_lib_s01206.o
 0001:00000328       .text                      0000000180001328     libcairo-2:D__a__temp_msys64_mingw64_lib_libcairo_2_lib_s01207.o
 0001:00000330       .text                      0000000180001330     libcairo-2:D__a__temp_msys64_mingw64_lib_libcairo_2_lib_s01205.o
 0001:00000338       .text                      0000000180001338     libcairo-2:D__a__temp_msys64_mingw64_lib_libcairo_2_lib_s01442.o
 0001:00000340       .text                      0000000180001340     libcairo-2:D__a__temp_msys64_mingw64_lib_libcairo_2_lib_s01487.o
 0001:00000350       .text                      0000000180001350     libpng16-16:D__a__temp_msys64_mingw64_lib_libpng16_16_lib_s00019.o
 0001:00000358       .text                      0000000180001358     libpng16-16:D__a__temp_msys64_mingw64_lib_libpng16_16_lib_s00155.o
 0001:00000360       .text                      0000000180001360     libpng16-16:D__a__temp_msys64_mingw64_lib_libpng16_16_lib_s00247.o
 0001:00000368       .text                      0000000180001368     libpng16-16:D__a__temp_msys64_mingw64_lib_libpng16_16_lib_s00233.o
 0001:00000370       .text                      0000000180001370     libpng16-16:D__a__temp_msys64_mingw64_lib_libpng16_16_lib_s00204.o
 0001:00000378       .text                      0000000180001378     libpng16-16:D__a__temp_msys64_mingw64_lib_libpng16_16_lib_s00198.o
 0001:00000380       .text                      0000000180001380     libpng16-16:D__a__temp_msys64_mingw64_lib_libpng16_16_lib_s00129.o
 0001:00000388       .text                      0000000180001388     libpng16-16:D__a__temp_msys64_mingw64_lib_libpng16_16_lib_s00058.o
 0001:00000390       .text                      0000000180001390     libpng16-16:D__a__temp_msys64_mingw64_lib_libpng16_16_lib_s00260.o
 0001:00000398       .text                      0000000180001398     libpng16-16:D__a__temp_msys64_mingw64_lib_libpng16_16_lib_s00206.o
 0001:000003a0       .text                      00000001800013a0     libpng16-16:D__a__temp_msys64_mingw64_lib_libpng16_16_lib_s00259.o
 0001:000003a8       .text                      00000001800013a8     libpng16-16:D__a__temp_msys64_mingw64_lib_libpng16_16_lib_s00044.o
 0001:000003b0       .text                      00000001800013b0     libpng16-16:D__a__temp_msys64_mingw64_lib_libpng16_16_lib_s00205.o
 0001:000003b8       .text                      00000001800013b8     libpng16-16:D__a__temp_msys64_mingw64_lib_libpng16_16_lib_s00150.o
 0001:000003c0       .text                      00000001800013c0     libpng16-16:D__a__temp_msys64_mingw64_lib_libpng16_16_lib_s00181.o
 0001:000003c8       .text                      00000001800013c8     libpng16-16:D__a__temp_msys64_mingw64_lib_libpng16_16_lib_s00016.o
 0001:000003d0       .text                      00000001800013d0     libpng16-16:D__a__temp_msys64_mingw64_lib_libpng16_16_lib_s00168.o
 0001:000003d8       .text                      00000001800013d8     libpng16-16:D__a__temp_msys64_mingw64_lib_libpng16_16_lib_s00149.o
 0001:000003e0       .text                      00000001800013e0     libpng16-16:D__a__temp_msys64_mingw64_lib_libpng16_16_lib_s00245.o
 0001:000003e8       .text                      00000001800013e8     libpng16-16:D__a__temp_msys64_mingw64_lib_libpng16_16_lib_s00011.o
 0001:000003f0       .text                      00000001800013f0     libpng16-16:D__a__temp_msys64_mingw64_lib_libpng16_16_lib_s00180.o
 0001:000003f8       .text                      00000001800013f8     libpng16-16:D__a__temp_msys64_mingw64_lib_libpng16_16_lib_s00255.o
 0001:00000400       .text                      0000000180001400     libpng16-16:D__a__temp_msys64_mingw64_lib_libpng16_16_lib_s00020.o
 0001:00000408       .text                      0000000180001408     libpng16-16:D__a__temp_msys64_mingw64_lib_libpng16_16_lib_s00015.o
 0001:00000410       .text                      0000000180001410     libjpeg-8:D__a__temp_msys64_mingw64_lib_libjpeg_8_lib_s00091.o
 0001:00000418       .text                      0000000180001418     libjpeg-8:D__a__temp_msys64_mingw64_lib_libjpeg_8_lib_s00090.o
 0001:00000420       .text                      0000000180001420     libjpeg-8:D__a__temp_msys64_mingw64_lib_libjpeg_8_lib_s00029.o
 0001:00000428       .text                      0000000180001428     libjpeg-8:D__a__temp_msys64_mingw64_lib_libjpeg_8_lib_s00096.o
 0001:00000430       .text                      0000000180001430     libjpeg-8:D__a__temp_msys64_mingw64_lib_libjpeg_8_lib_s00046.o
 0001:00000438       .text                      0000000180001438     libjpeg-8:D__a__temp_msys64_mingw64_lib_libjpeg_8_lib_s00087.o
 0001:00000440       .text                      0000000180001440     libjpeg-8:D__a__temp_msys64_mingw64_lib_libjpeg_8_lib_s00052.o
 0001:00000448       .text                      0000000180001448     libjpeg-8:D__a__temp_msys64_mingw64_lib_libjpeg_8_lib_s00106.o
 0001:00000450       .text                      0000000180001450     libjpeg-8:D__a__temp_msys64_mingw64_lib_libjpeg_8_lib_s00093.o
 0001:00000458       .text                      0000000180001458     libjpeg-8:D__a__temp_msys64_mingw64_lib_libjpeg_8_lib_s00030.o
 0001:00000460       .text                      0000000180001460     libjpeg-8:D__a__temp_msys64_mingw64_lib_libjpeg_8_lib_s00047.o
 0001:00000468       .text                      0000000180001468     libjpeg-8:D__a__temp_msys64_mingw64_lib_libjpeg_8_lib_s00080.o
 0001:00000470       .text                      0000000180001470     libjpeg-8:D__a__temp_msys64_mingw64_lib_libjpeg_8_lib_s00094.o
 0001:00000478       .text                      0000000180001478     libjpeg-8:D__a__temp_msys64_mingw64_lib_libjpeg_8_lib_s00098.o
 0001:00000480       .text                      0000000180001480     libjpeg-8:D__a__temp_msys64_mingw64_lib_libjpeg_8_lib_s00053.o
 0001:00000488       .text                      0000000180001488     libjpeg-8:D__a__temp_msys64_mingw64_lib_libjpeg_8_lib_s00033.o
 0001:00000490       .text                      0000000180001490     libjpeg-8:D__a__temp_msys64_mingw64_lib_libjpeg_8_lib_s00074.o
 0001:00000498       .text                      0000000180001498     libjpeg-8:D__a__temp_msys64_mingw64_lib_libjpeg_8_lib_s00083.o
 0001:000004a0       .text                      00000001800014a0     libpango-1.0-0:D__a__temp_msys64_mingw64_lib_libpango_1_0_0_lib_s00141.o
 0001:000004a8       .text                      00000001800014a8     libpango-1.0-0:D__a__temp_msys64_mingw64_lib_libpango_1_0_0_lib_s00168.o
 0001:000004b0       .text                      00000001800014b0     libpango-1.0-0:D__a__temp_msys64_mingw64_lib_libpango_1_0_0_lib_s00172.o
 0001:000004b8       .text                      00000001800014b8     libpango-1.0-0:D__a__temp_msys64_mingw64_lib_libpango_1_0_0_lib_s00144.o
 0001:000004c0       .text                      00000001800014c0     libpango-1.0-0:D__a__temp_msys64_mingw64_lib_libpango_1_0_0_lib_s00161.o
 0001:000004c8       .text                      00000001800014c8     libpango-1.0-0:D__a__temp_msys64_mingw64_lib_libpango_1_0_0_lib_s00145.o
 0001:000004d0       .text                      00000001800014d0     libpango-1.0-0:D__a__temp_msys64_mingw64_lib_libpango_1_0_0_lib_s00147.o
 0001:000004d8       .text                      00000001800014d8     libpango-1.0-0:D__a__temp_msys64_mingw64_lib_libpango_1_0_0_lib_s00163.o
 0001:000004e0       .text                      00000001800014e0     libpango-1.0-0:D__a__temp_msys64_mingw64_lib_libpango_1_0_0_lib_s00142.o
 0001:000004e8       .text                      00000001800014e8     libpango-1.0-0:D__a__temp_msys64_mingw64_lib_libpango_1_0_0_lib_s00305.o
 0001:000004f0       .text                      00000001800014f0     libpango-1.0-0:D__a__temp_msys64_mingw64_lib_libpango_1_0_0_lib_s00102.o
 0001:000004f8       .text                      00000001800014f8     libpango-1.0-0:D__a__temp_msys64_mingw64_lib_libpango_1_0_0_lib_s00378.o
 0001:00000500       .text                      0000000180001500     libpango-1.0-0:D__a__temp_msys64_mingw64_lib_libpango_1_0_0_lib_s00300.o
 0001:00000508       .text                      0000000180001508     libpango-1.0-0:D__a__temp_msys64_mingw64_lib_libpango_1_0_0_lib_s00304.o
 0001:00000510       .text                      0000000180001510     libpango-1.0-0:D__a__temp_msys64_mingw64_lib_libpango_1_0_0_lib_s00357.o
 0001:00000518       .text                      0000000180001518     libpango-1.0-0:D__a__temp_msys64_mingw64_lib_libpango_1_0_0_lib_s00146.o
 0001:00000520       .text                      0000000180001520     libpango-1.0-0:D__a__temp_msys64_mingw64_lib_libpango_1_0_0_lib_s00319.o
 0001:00000528       .text                      0000000180001528     libpango-1.0-0:D__a__temp_msys64_mingw64_lib_libpango_1_0_0_lib_s00162.o
 0001:00000530       .text                      0000000180001530     libpango-1.0-0:D__a__temp_msys64_mingw64_lib_libpango_1_0_0_lib_s00100.o
 0001:00000538       .text                      0000000180001538     libpango-1.0-0:D__a__temp_msys64_mingw64_lib_libpango_1_0_0_lib_s00223.o
 0001:00000540       .text                      0000000180001540     libpango-1.0-0:D__a__temp_msys64_mingw64_lib_libpango_1_0_0_lib_s00297.o
 0001:00000548       .text                      0000000180001548     libpango-1.0-0:D__a__temp_msys64_mingw64_lib_libpango_1_0_0_lib_s00389.o
 0001:00000550       .text                      0000000180001550     libpango-1.0-0:D__a__temp_msys64_mingw64_lib_libpango_1_0_0_lib_s00311.o
 0001:00000558       .text                      0000000180001558     libpango-1.0-0:D__a__temp_msys64_mingw64_lib_libpango_1_0_0_lib_s00213.o
 0001:00000560       .text                      0000000180001560     libpango-1.0-0:D__a__temp_msys64_mingw64_lib_libpango_1_0_0_lib_s00167.o
 0001:00000568       .text                      0000000180001568     libpango-1.0-0:D__a__temp_msys64_mingw64_lib_libpango_1_0_0_lib_s00164.o
 0001:00000570       .text                      0000000180001570     libpangocairo-1.0-0:D__a__temp_msys64_mingw64_lib_libpangocairo_1_0_0_lib_s00029.o
 0001:00000578       .text                      0000000180001578     libpangocairo-1.0-0:D__a__temp_msys64_mingw64_lib_libpangocairo_1_0_0_lib_s00032.o
 0001:00000580       .text                      0000000180001580     libpangocairo-1.0-0:D__a__temp_msys64_mingw64_lib_libpangocairo_1_0_0_lib_s00024.o
 0001:00000588       .text                      0000000180001588     libpangocairo-1.0-0:D__a__temp_msys64_mingw64_lib_libpangocairo_1_0_0_lib_s00007.o
 0001:00000590       .text                      0000000180001590     libpangocairo-1.0-0:D__a__temp_msys64_mingw64_lib_libpangocairo_1_0_0_lib_s00020.o
 0001:000005a0       .text                      00000001800015a0     libgobject-2.0-0:D__a__temp_msys64_mingw64_lib_libgobject_2_0_0_lib_s00172.o
 0001:000005b0       .text                      00000001800015b0     libglib-2.0-0:D__a__temp_msys64_mingw64_lib_libglib_2_0_0_lib_s00534.o
 0001:000005b8       .text                      00000001800015b8     libglib-2.0-0:D__a__temp_msys64_mingw64_lib_libglib_2_0_0_lib_s00532.o
 0001:000005c0       .text                      00000001800015c0     libgif-7:D__a__temp_msys64_mingw64_lib_libgif_7_lib_s00014.o
 0001:000005c8       .text                      00000001800015c8     libgif-7:D__a__temp_msys64_mingw64_lib_libgif_7_lib_s00018.o
 0001:000005d0       .text                      00000001800015d0     libgif-7:D__a__temp_msys64_mingw64_lib_libgif_7_lib_s00000.o
 0001:000005e0       .text                      00000001800015e0     libfreetype-6:D__a__temp_msys64_mingw64_lib_libfreetype_6_lib_s00092.o
 0001:000005e8       .text                      00000001800015e8     libfreetype-6:D__a__temp_msys64_mingw64_lib_libfreetype_6_lib_s00035.o
 0001:000005f0       .text                      00000001800015f0     libfreetype-6:D__a__temp_msys64_mingw64_lib_libfreetype_6_lib_s00034.o
 0001:000005f8       .text                      00000001800015f8     libfreetype-6:D__a__temp_msys64_mingw64_lib_libfreetype_6_lib_s00091.o
 0001:00000600       .text                      0000000180001600     libfreetype-6:D__a__temp_msys64_mingw64_lib_libfreetype_6_lib_s00113.o
 0001:00000608       .text                      0000000180001608     libfreetype-6:D__a__temp_msys64_mingw64_lib_libfreetype_6_lib_s00139.o
 0001:00000610       .text                      0000000180001610     libfreetype-6:D__a__temp_msys64_mingw64_lib_libfreetype_6_lib_s00090.o
 0001:00000620       .text                      0000000180001620     librsvg-2-2:D__a__temp_msys64_mingw64_lib_librsvg_2_2_lib_s00029.o
 0001:00000628       .text                      0000000180001628     librsvg-2-2:D__a__temp_msys64_mingw64_lib_librsvg_2_2_lib_s00023.o
 0001:00000630       .text                      0000000180001630     librsvg-2-2:D__a__temp_msys64_mingw64_lib_librsvg_2_2_lib_s00008.o
 0001:00000640       ??__E?constructor@ImageBackend@@2V?$Persistent@VFunctionTemplate@v8@@V?$NonCopyablePersistentTraits@VFunctionTemplate@v8@@@2@@Nan@@A@@YAXXZ 0000000180001640 f   ImageBackend.obj
 0001:00000650       ??__E?constructor@PdfBackend@@2V?$Persistent@VFunctionTemplate@v8@@V?$NonCopyablePersistentTraits@VFunctionTemplate@v8@@@2@@Nan@@A@@YAXXZ 0000000180001650 f   PdfBackend.obj
 0001:00000660       ??__E?constructor@SvgBackend@@2V?$Persistent@VFunctionTemplate@v8@@V?$NonCopyablePersistentTraits@VFunctionTemplate@v8@@@2@@Nan@@A@@YAXXZ 0000000180001660 f   SvgBackend.obj
 0001:00000670       ??__E?constructor@Canvas@@2V?$Persistent@VFunctionTemplate@v8@@V?$NonCopyablePersistentTraits@VFunctionTemplate@v8@@@2@@Nan@@A@@YAXXZ 0000000180001670 f   Canvas.obj
 0001:00000680       ??__Efont_face_list@@YAXXZ 0000000180001680 f   Canvas.obj
 0001:00000690       ??__E?constructor@Gradient@@2V?$Persistent@VFunctionTemplate@v8@@V?$NonCopyablePersistentTraits@VFunctionTemplate@v8@@@2@@Nan@@A@@YAXXZ 0000000180001690 f   CanvasGradient.obj
 0001:000006a0       ??__E?constructor@Pattern@@2V?$Persistent@VFunctionTemplate@v8@@V?$NonCopyablePersistentTraits@VFunctionTemplate@v8@@@2@@Nan@@A@@YAXXZ 00000001800016a0 f   CanvasPattern.obj
 0001:000006b0       ??__E?_DOMMatrix@Pattern@@2V?$Persistent@VFunction@v8@@V?$NonCopyablePersistentTraits@VFunction@v8@@@2@@Nan@@A@@YAXXZ 00000001800016b0 f   CanvasPattern.obj
 0001:000006c0       ??__E?constructor@Context2d@@2V?$Persistent@VFunctionTemplate@v8@@V?$NonCopyablePersistentTraits@VFunctionTemplate@v8@@@2@@Nan@@A@@YAXXZ 00000001800016c0 f   CanvasRenderingContext2d.obj
 0001:000006d0       ??__E?_DOMMatrix@Context2d@@2V?$Persistent@VFunction@v8@@V?$NonCopyablePersistentTraits@VFunction@v8@@@2@@Nan@@A@@YAXXZ 00000001800016d0 f   CanvasRenderingContext2d.obj
 0001:000006e0       ??__E?_parseFont@Context2d@@2V?$Persistent@VFunction@v8@@V?$NonCopyablePersistentTraits@VFunction@v8@@@2@@Nan@@A@@YAXXZ 00000001800016e0 f   CanvasRenderingContext2d.obj
 0001:000006f0       ??__Enamed_colors@@YAXXZ   00000001800016f0 f   color.obj
 0001:00002420       ??__E?constructor@Image@@2V?$Persistent@VFunctionTemplate@v8@@V?$NonCopyablePersistentTraits@VFunctionTemplate@v8@@@2@@Nan@@A@@YAXXZ 0000000180003420 f   Image.obj
 0001:00002430       ??__E?constructor@ImageData@@2V?$Persistent@VFunctionTemplate@v8@@V?$NonCopyablePersistentTraits@VFunctionTemplate@v8@@@2@@Nan@@A@@YAXXZ 0000000180003430 f   ImageData.obj
 0001:0000243c       ??__Einitlocks@std@@YAXXZ  000000018000343c f   libcpmt:xlock.obj
 0001:0000245c       ??__Eclassic_locale@std@@YAXXZ 000000018000345c f   libcpmt:locale0.obj
 0001:00002468       ??__F_Fac_tidy_reg@std@@YAXXZ 0000000180003468 f   libcpmt:locale0.obj
 0001:00002474       ??__Einitlocks@std@@YAXXZ  0000000180003474 f   libcpmt:iosptrs.obj
 0001:00002494       ??__Finit_atexit@@YAXXZ    0000000180003494 f   libcpmt:iosptrs.obj
 0001:00002500       ?canvas_png_flush@@YAXPEAUpng_struct_def@@@Z 0000000180003500 f i Canvas.obj
 0001:000031d0       ?FunctionCallbackWrapper@imp@Nan@@YAXAEBV?$FunctionCallbackInfo@VValue@v8@@@v8@@@Z 00000001800041d0 f   CanvasPattern.obj
 0001:000031d0       ?FunctionCallbackWrapper@imp@Nan@@YAXAEBV?$FunctionCallbackInfo@VValue@v8@@@v8@@@Z 00000001800041d0 f   ImageBackend.obj
 0001:0000730c       $LN2630                    000000018000830c     BMPParser.obj
 0001:00007328       $LN2629                    0000000180008328     BMPParser.obj
 0001:00008910       ?GetterCallbackWrapper@imp@Nan@@YAXV?$Local@VName@v8@@@v8@@AEBV?$PropertyCallbackInfo@VValue@v8@@@4@@Z 0000000180009910 f   Canvas.obj
 0001:00008a00       ?SetterCallbackWrapper@imp@Nan@@YAXV?$Local@VName@v8@@@v8@@V?$Local@VValue@v8@@@4@AEBV?$PropertyCallbackInfo@X@4@@Z 0000000180009a00 f   Canvas.obj
 0001:00008f40       ?canvas_convert_data_to_bytes@@YAXPEAUpng_struct_def@@PEAUpng_row_info_struct@@PEAE@Z 0000000180009f40 f   Canvas.obj
 0001:00008f80       ?canvas_unpremultiply_data@@YAXPEAUpng_struct_def@@PEAUpng_row_info_struct@@PEAE@Z 0000000180009f80 f   Canvas.obj
 0001:00009040       ?canvas_convert_565_to_888@@YAXPEAUpng_struct_def@@PEAUpng_row_info_struct@@PEAE@Z 000000018000a040 f   Canvas.obj
 0001:00009110       ?canvas_write_png@@YA?AW4_cairo_status@@PEAU_cairo_surface@@P6AXPEAUpng_struct_def@@PEAE_K@ZPEAUcanvas_png_write_closure_t@@@Z 000000018000a110 f   Canvas.obj
